 phobos

 Timestamp is 630d60ee (Tue Aug 30 07:59:26 2022)

 Preferred load address is 10000000

 Start         Length     Name                   Class
 0001:00000000 00000bb0H .text$di                CODE
 0001:00000bb0 000bd160H .text$mn                CODE
 0001:000bdd10 00000540H .text$x                 CODE
 0001:000be250 00000928H .text$yd                CODE
 0002:00000000 00000188H .idata$5                DATA
 0002:00000188 00000008H .00cfg                  DATA
 0002:00000190 00000004H .CRT$XCA                DATA
 0002:00000194 0000000cH .CRT$XCC                DATA
 0002:000001a0 00000008H .CRT$XCL                DATA
 0002:000001a8 00000134H .CRT$XCU                DATA
 0002:000002dc 00000004H .CRT$XCZ                DATA
 0002:000002e0 00000004H .CRT$XIA                DATA
 0002:000002e4 00000014H .CRT$XIC                DATA
 0002:000002f8 00000004H .CRT$XIZ                DATA
 0002:000002fc 00000004H .CRT$XPA                DATA
 0002:00000300 00000008H .CRT$XPX                DATA
 0002:00000308 00000004H .CRT$XPXA               DATA
 0002:0000030c 00000004H .CRT$XPZ                DATA
 0002:00000310 00000004H .CRT$XTA                DATA
 0002:00000314 0000000cH .CRT$XTZ                DATA
 0002:00000318 00000000H .gfids$y                DATA
 0002:00000320 0001d420H .rdata                  DATA
 0002:0001d740 00000000H .rdata$CastGuardVftablesA DATA
 0002:0001d740 00000000H .rdata$CastGuardVftablesC DATA
 0002:0001d740 00000958H .rdata$r                DATA
 0002:0001e098 00000134H .rdata$sxdata           DATA
 0002:0001e1cc 000001b4H .rdata$voltmd           DATA
 0002:0001e380 000003c8H .rdata$zzzdbg           DATA
 0002:0001e748 00000004H .rtc$IAA                DATA
 0002:0001e74c 00000004H .rtc$IZZ                DATA
 0002:0001e750 00000004H .rtc$TAA                DATA
 0002:0001e754 00000004H .rtc$TZZ                DATA
 0002:0001e758 00001f18H .xdata$x                DATA
 0002:00020670 000079b0H .edata                  DATA
 0002:00028020 0000003cH .idata$2                DATA
 0002:0002805c 00000014H .idata$3                DATA
 0002:00028070 00000188H .idata$4                DATA
 0002:000281f8 000006f0H .idata$6                DATA
 0003:00000000 00003a20H .data                   DATA
 0003:00003a20 00000220H .data$r                 DATA
 0003:00003c40 000002e0H .data$rs                DATA
 0003:00003f20 00002d3cH .bss                    DATA
 0004:00000000 00003380H .syhks00                DATA
 0005:00000000 00000228H .patch                  DATA
 0006:00000000 00000060H .rsrc$01                DATA
 0006:00000060 000003b0H .rsrc$02                DATA

  Address         Publics by Value              Rva+Base       Lib:Object

 0000:00000000       ___AbsoluteZero            00000000     <absolute>
 0000:00000000       ___arm64x_extra_rfe_table  00000000     <absolute>
 0000:00000000       ___arm64x_extra_rfe_table_size 00000000     <absolute>
 0000:00000000       ___arm64x_native_entrypoint 00000000     <absolute>
 0000:00000000       ___arm64x_redirection_metadata 00000000     <absolute>
 0000:00000000       ___arm64x_redirection_metadata_count 00000000     <absolute>
 0000:00000000       ___dynamic_value_reloc_table 00000000     <absolute>
 0000:00000000       ___enclave_config          00000000     <absolute>
 0000:00000000       ___guard_check_icall_a64n_fptr 00000000     <absolute>
 0000:00000000       ___guard_eh_cont_count     00000000     <absolute>
 0000:00000000       ___guard_eh_cont_table     00000000     <absolute>
 0000:00000000       ___guard_fids_count        00000000     <absolute>
 0000:00000000       ___guard_fids_table        00000000     <absolute>
 0000:00000000       ___guard_iat_count         00000000     <absolute>
 0000:00000000       ___guard_iat_table         00000000     <absolute>
 0000:00000000       ___guard_longjmp_count     00000000     <absolute>
 0000:00000000       ___guard_longjmp_table     00000000     <absolute>
 0000:00000000       ___hybrid_auxiliary_iat    00000000     <absolute>
 0000:00000000       ___hybrid_auxiliary_iat_copy 00000000     <absolute>
 0000:00000000       ___hybrid_code_map         00000000     <absolute>
 0000:00000000       ___hybrid_code_map_count   00000000     <absolute>
 0000:00000000       ___x64_code_ranges_to_entry_points 00000000     <absolute>
 0000:00000000       ___x64_code_ranges_to_entry_points_count 00000000     <absolute>
 0000:00000000       __except_list              00000000     <absolute>
 0000:0000004d       ___safe_se_handler_count   0000004d     <absolute>
 0000:00000100       ___guard_flags             00000100     <absolute>
 0000:00000000       ___ImageBase               10000000     <linker-defined>
 0001:00000bb0       ??$_snprintf_s@$0IA@@@YAHAAY0IA@DIPBDZZ 10001bb0 f i Commands.obj
 0001:00000bf0       ??0CellStruct@@QAE@XZ      10001bf0 f i Commands.obj
 0001:00000c00       ??R<lambda_1>@?1??Execute@ObjectInfoCommandClass@@UBEXW4WWKey@@@Z@QBA@PBDZZ 10001c00 f i Commands.obj
 0001:00000c30       ??R<lambda_3>@?1??Execute@ObjectInfoCommandClass@@UBEXW4WWKey@@@Z@QBE@XZ 10001c30 f i Commands.obj
 0001:00000ca0       ??R<lambda_4>@?1??Execute@ObjectInfoCommandClass@@UBEXW4WWKey@@@Z@QBE@PAVFootClass@@@Z 10001ca0 f i Commands.obj
 0001:00001320       ??R<lambda_5>@?1??Execute@ObjectInfoCommandClass@@UBEXW4WWKey@@@Z@QBE@PAVBuildingClass@@@Z 10002320 f i Commands.obj
 0001:000016d0       ??R<lambda_6>@?1??Execute@ObjectInfoCommandClass@@UBEXW4WWKey@@@Z@QBE@PAVObjectClass@@@Z 100026d0 f i Commands.obj
 0001:00001780       ??_ECaptureObjectsCommandClass@@UAEPAXI@Z 10002780 f i Commands.obj
 0001:00001780       ??_EDamageDisplayCommandClass@@UAEPAXI@Z 10002780 f i Commands.obj
 0001:00001780       ??_ENextIdleHarvesterCommandClass@@UAEPAXI@Z 10002780 f i Commands.obj
 0001:00001780       ??_EObjectInfoCommandClass@@UAEPAXI@Z 10002780 f i Commands.obj
 0001:00001780       ??_EPhobosCommandClass@@UAEPAXI@Z 10002780 f i Commands.obj
 0001:00001780       ??_EQuickSaveCommandClass@@UAEPAXI@Z 10002780 f i Commands.obj
 0001:00001780       ??_EShowHealthPercentCommandClass@@UAEPAXI@Z 10002780 f i Commands.obj
 0001:00001780       ??_GCaptureObjectsCommandClass@@UAEPAXI@Z 10002780 f i Commands.obj
 0001:00001780       ??_GDamageDisplayCommandClass@@UAEPAXI@Z 10002780 f i Commands.obj
 0001:00001780       ??_GNextIdleHarvesterCommandClass@@UAEPAXI@Z 10002780 f i Commands.obj
 0001:00001780       ??_GObjectInfoCommandClass@@UAEPAXI@Z 10002780 f i Commands.obj
 0001:00001780       ??_GPhobosCommandClass@@UAEPAXI@Z 10002780 f i Commands.obj
 0001:00001780       ??_GQuickSaveCommandClass@@UAEPAXI@Z 10002780 f i Commands.obj
 0001:00001780       ??_GShowHealthPercentCommandClass@@UAEPAXI@Z 10002780 f i Commands.obj
 0001:000017b0       ??_H@YGXPAXIIP6EPAX0@Z@Z   100027b0 f i Commands.obj
 0001:000017e0       ?Allocate@YRMemory@@YAPAXI@Z 100027e0 f i Commands.obj
 0001:000017f0       ?AllocateChecked@YRMemory@@YGPAXI@Z 100027f0 f i Commands.obj
 0001:00001800       ?CenterMap@MapClass@@QAEXXZ 10002800 f i Commands.obj
 0001:00001820       ?CheckDebugDeactivated@PhobosCommandClass@@IBE_NXZ 10002820 f i Commands.obj
 0001:000018c0       ?CheckLoop55E020@CommandClass@@UBE_NW4WWKey@@@Z 100028c0 f i Commands.obj
 0001:000018c0       ?OnAI@BounceTrajectory@@UAE_NPAVBulletClass@@@Z 100028c0 f i BounceTrajectory.obj
 0001:000018c0       ?PreventCombinationOverride@CommandClass@@UBE_NW4WWKey@@@Z 100028c0 f i Commands.obj
 0001:000018d0       ?DistanceFrom@ObjectClass@@QBEHPAVAbstractClass@@@Z 100028d0 f i Commands.obj
 0001:000018f0       ?Execute@CaptureObjectsCommandClass@@UBEXW4WWKey@@@Z 100028f0 f i Commands.obj
 0001:000019b0       ?Execute@DamageDisplayCommandClass@@UBEXW4WWKey@@@Z 100029b0 f i Commands.obj
 0001:000019d0       ?Execute@NextIdleHarvesterCommandClass@@UBEXW4WWKey@@@Z 100029d0 f i Commands.obj
 0001:00001b10       ?Execute@ObjectInfoCommandClass@@UBEXW4WWKey@@@Z 10002b10 f i Commands.obj
 0001:00001c30       ?Execute@QuickSaveCommandClass@@UBEXW4WWKey@@@Z 10002c30 f i Commands.obj
 0001:00001e00       ?Execute@ShowHealthPercentCommandClass@@UBEXW4WWKey@@@Z 10002e00 f i Commands.obj
 0001:00001e20       ?ExtraTriggerCondition@CommandClass@@UBE_NW4WWKey@@@Z 10002e20 f i Commands.obj
 0001:00001e30       ?GetCurrentAction@ScriptClass@@QBEPAUScriptActionNode@@PAU2@@Z 10002e30 f i Commands.obj
 0001:00001e50       ?GetName@CaptureObjectsCommandClass@@UBEPBDXZ 10002e50 f i Commands.obj
 0001:00001e60       ?GetName@DamageDisplayCommandClass@@UBEPBDXZ 10002e60 f i Commands.obj
 0001:00001e70       ?GetName@NextIdleHarvesterCommandClass@@UBEPBDXZ 10002e70 f i Commands.obj
 0001:00001e80       ?GetName@ObjectInfoCommandClass@@UBEPBDXZ 10002e80 f i Commands.obj
 0001:00001e90       ?GetName@QuickSaveCommandClass@@UBEPBDXZ 10002e90 f i Commands.obj
 0001:00001ea0       ?GetName@ShowHealthPercentCommandClass@@UBEPBDXZ 10002ea0 f i Commands.obj
 0001:00001eb0       ?GetProgress@FactoryClass@@QBEHXZ 10002eb0 f i Commands.obj
 0001:00001ed0       ?GetUICategory@CaptureObjectsCommandClass@@UBEPB_WXZ 10002ed0 f i Commands.obj
 0001:00001ed0       ?GetUICategory@DamageDisplayCommandClass@@UBEPB_WXZ 10002ed0 f i Commands.obj
 0001:00001ed0       ?GetUICategory@ObjectInfoCommandClass@@UBEPB_WXZ 10002ed0 f i Commands.obj
 0001:00001ee0       ?GetUICategory@NextIdleHarvesterCommandClass@@UBEPB_WXZ 10002ee0 f i Commands.obj
 0001:00001f00       ?GetUICategory@QuickSaveCommandClass@@UBEPB_WXZ 10002f00 f i Commands.obj
 0001:00001f00       ?GetUICategory@ShowHealthPercentCommandClass@@UBEPB_WXZ 10002f00 f i Commands.obj
 0001:00001f10       ?GetUIDescription@CaptureObjectsCommandClass@@UBEPB_WXZ 10002f10 f i Commands.obj
 0001:00001f20       ?GetUIDescription@DamageDisplayCommandClass@@UBEPB_WXZ 10002f20 f i Commands.obj
 0001:00001f30       ?GetUIDescription@NextIdleHarvesterCommandClass@@UBEPB_WXZ 10002f30 f i Commands.obj
 0001:00001f40       ?GetUIDescription@ObjectInfoCommandClass@@UBEPB_WXZ 10002f40 f i Commands.obj
 0001:00001f50       ?GetUIDescription@QuickSaveCommandClass@@UBEPB_WXZ 10002f50 f i Commands.obj
 0001:00001f60       ?GetUIDescription@ShowHealthPercentCommandClass@@UBEPB_WXZ 10002f60 f i Commands.obj
 0001:00001f70       ?GetUIName@CaptureObjectsCommandClass@@UBEPB_WXZ 10002f70 f i Commands.obj
 0001:00001f80       ?GetUIName@DamageDisplayCommandClass@@UBEPB_WXZ 10002f80 f i Commands.obj
 0001:00001f90       ?GetUIName@NextIdleHarvesterCommandClass@@UBEPB_WXZ 10002f90 f i Commands.obj
 0001:00001fa0       ?GetUIName@ObjectInfoCommandClass@@UBEPB_WXZ 10002fa0 f i Commands.obj
 0001:00001fb0       ?GetUIName@QuickSaveCommandClass@@UBEPB_WXZ 10002fb0 f i Commands.obj
 0001:00001fc0       ?GetUIName@ShowHealthPercentCommandClass@@UBEPB_WXZ 10002fc0 f i Commands.obj
 0001:00001fd0       ?GiveMoney@HouseClass@@QAEXH@Z 10002fd0 f i Commands.obj
 0001:00001ff0       ?LoadStringA@StringTable@@SIPB_WPBDPAD0H@Z 10002ff0 f i Commands.obj
 0001:00002010       ?NextObject@MapClass@@QAEPAVObjectClass@@PAV2@@Z 10003010 f i Commands.obj
 0001:00002030       ?PrintMessage@MessageListClass@@QAEXPB_WK0HKH_N@Z 10003030 f i Commands.obj
 0001:00002050       ?Recalc@SidebarClass@@QBEXXZ 10003050 f i Commands.obj
 0001:00002070       ?Reveal@MapClass@@QAEXPAVHouseClass@@@Z 10003070 f i Commands.obj
 0001:00002090       ?SaveGame@ScenarioClass@@SI_NPBDPB_W_N@Z 10003090 f i Commands.obj
 0001:000020b0       ?SetRepairMode@MapClass@@QAEXH@Z 100030b0 f i Commands.obj
 0001:000020d0       ?SetSellMode@MapClass@@QAEXH@Z 100030d0 f i Commands.obj
 0001:000020f0       ?SetTogglePowerMode@MapClass@@QAEXH@Z 100030f0 f i Commands.obj
 0001:00002110       ?SetWaypointMode@MapClass@@QAEXH_N@Z 10003110 f i Commands.obj
 0001:00002130       ?UnselectAll@MapClass@@SIXXZ 10003130 f i Commands.obj
 0001:00002140       ?find@?$VectorMapContainer@VBuildingClass@@VExtData@BuildingExt@@@@QBEPAVExtData@BuildingExt@@PBVBuildingClass@@@Z 10003140 f i Hooks.obj
 0001:00002140       ?find@?$VectorMapContainer@VBuildingTypeClass@@VExtData@BuildingTypeExt@@@@QBEPAVExtData@BuildingTypeExt@@PBVBuildingTypeClass@@@Z 10003140 f i Hooks.obj
 0001:00002140       ?find@?$VectorMapContainer@VParticleClass@@VExtData@ParticleExt@@@@QBEPAVExtData@ParticleExt@@PBVParticleClass@@@Z 10003140 f i Body.obj
 0001:00002140       ?find@?$VectorMapContainer@VParticleTypeClass@@VExtData@ParticleTypeExt@@@@QBEPAVExtData@ParticleTypeExt@@PBVParticleTypeClass@@@Z 10003140 f i Body.obj
 0001:00002140       ?find@?$VectorMapContainer@VScriptClass@@VExtData@ScriptExt@@@@QBEPAVExtData@ScriptExt@@PBVScriptClass@@@Z 10003140 f i Body.obj
 0001:00002140       ?find@?$VectorMapContainer@VTEventClass@@VExtData@TEventExt@@@@QBEPAVExtData@TEventExt@@PBVTEventClass@@@Z 10003140 f i Body.obj
 0001:00002140       ?find@?$VectorMapContainer@VTeamTypeClass@@VExtData@TeamTypeExt@@@@QBEPAVExtData@TeamTypeExt@@PBVTeamTypeClass@@@Z 10003140 f i Body.obj
 0001:00002140       ?find@?$VectorMapContainer@VTechnoClass@@VExtData@TechnoExt@@@@QBEPAVExtData@TechnoExt@@PBVTechnoClass@@@Z 10003140 f i Hooks.AnimCreateUnit.obj
 0001:00002140       ?find@?$VectorMapContainer@VTechnoTypeClass@@VExtData@TechnoTypeExt@@@@QBEPAVExtData@TechnoTypeExt@@PBVTechnoTypeClass@@@Z 10003140 f i Commands.obj
 0001:00002140       ?find@?$VectorMapContainer@VTemporalClass@@VExtData@TemporalExt@@@@QBEPAVExtData@TemporalExt@@PBVTemporalClass@@@Z 10003140 f i Body.obj
 0001:00002140       ?find@?$VectorMapContainer@VVoxelAnimClass@@VExtData@VoxelAnimExt@@@@QBEPAVExtData@VoxelAnimExt@@PBVVoxelAnimClass@@@Z 10003140 f i Hooks.obj
 0001:00002140       ?find@?$VectorMapContainer@VVoxelAnimTypeClass@@VExtData@VoxelAnimTypeExt@@@@QBEPAVExtData@VoxelAnimTypeExt@@PBVVoxelAnimTypeClass@@@Z 10003140 f i Body.obj
 0001:00002190       ?mbstowcs@ObjectInfoCommandClass@@SAIPA_WPBDI@Z 10003190 f i Commands.obj
 0001:000021a0       ?vsprintf@ObjectInfoCommandClass@@SAHPADPBD0@Z 100031a0 f i Commands.obj
 0001:000021b0       _CommandClassCallback_Register 100031b0 f   Commands.obj
 0001:00002480       ___local_stdio_printf_options 10003480 f i Commands.obj
 0001:00002490       ??0AnimClass@@QAE@PAVAnimTypeClass@@ABUCoordStruct@@HHW4AnimFlag@@H_N@Z 10003490 f i Hooks.obj
 0001:000024d0       ??0IPersistStream@@QAE@XZ  100034d0 f i Hooks.obj
 0001:000024d0       ??0IRTTITypeInfo@@QAE@XZ   100034d0 f i Hooks.obj
 0001:000024e0       _AircraftClass_AI_TrailerInheritOwner 100034e0 f   Hooks.obj
 0001:00002550       _AircraftClass_Mission_Attack_FireAtTarget_BurstFix 10003550 f   Hooks.obj
 0001:00002580       _AircraftClass_Mission_Attack_FireAt_Strafe_BurstFix 10003580 f   Hooks.obj
 0001:000025a0       _AircraftClass_Mission_Attack_Strafe2_Strafe_BurstFix 100035a0 f   Hooks.obj
 0001:000025c0       _AircraftClass_Mission_Attack_Strafe3_Strafe_BurstFix 100035c0 f   Hooks.obj
 0001:000025e0       _AircraftClass_Mission_Attack_Strafe4_Strafe_BurstFix 100035e0 f   Hooks.obj
 0001:00002600       _AircraftClass_Mission_Attack_Strafe5_Strafe_BurstFix 10003600 f   Hooks.obj
 0001:00002620       _AircraftClass_Mission_Attack_StrafeShots 10003620 f   Hooks.obj
 0001:000026a0       ??AMapClass@@QAEPAVCellClass@@ABUCoordStruct@@@Z 100036a0 f i Hooks.Otamaa.obj
 0001:000026c0       ?DropOffParadropCargo@AircraftClass@@QBEXXZ 100036c0 f i Hooks.Otamaa.obj
 0001:000026e0       ?IsClearToMove@CellClass@@QBE_NW4SpeedType@@_N1HW4MovementZone@@H1@Z 100036e0 f i Hooks.Otamaa.obj
 0001:00002700       ?IsValidMapCoords@CellClass@@QBE_NXZ 10003700 f i Hooks.Otamaa.obj
 0001:00002720       ?NewLandingZone@AircraftClass@@QAEPAVCellClass@@PAVAbstractClass@@@Z 10003720 f i Hooks.Otamaa.obj
 0001:00002740       _AircraftClass_EnterIdleMode_Opentopped 10003740 f   Hooks.Otamaa.obj
 0001:00002790       _AircraftClass_MI_Move_Carryall_AllowWater 10003790 f   Hooks.Otamaa.obj
 0001:00002870       _AircraftClass_MI_Move_Carryall_AllowWater_LZClear 10003870 f   Hooks.Otamaa.obj
 0001:00002950       _AircraftClass_Mission_SpyplaneApproach_camerasound 10003950 f   Hooks.Otamaa.obj
 0001:000029a0       _AircraftClass_ParadropCargo_Dont 100039a0 f   Hooks.Otamaa.obj
 0001:000029f0       _FlyLocomotionClass_Movement_AI_TriggerCrashWeapon 100039f0 f   Hooks.Otamaa.obj
 0001:00002a50       ?Explode@BulletClass@@QBEX_N@Z 10003a50 f i Body.obj
 0001:00002a70       ?FireBurst@AircraftExt@@SGXPAVAircraftClass@@PAVAbstractClass@@W4AircraftFireMode@@@Z 10003a70 f   Body.obj
 0001:00002af0       ?FireDeathWeapon@TechnoClass@@QAEXH@Z 10003af0 f i Body.obj
 0001:00002b10       ?RandomRanged@Random2Class@@QAEHHH@Z 10003b10 f i Body.obj
 0001:00002b30       ?TriggerCrashWeapon@AircraftExt@@SGXPAVTechnoClass@@H@Z 10003b30 f   Body.obj
 0001:00002dc0       ?current@FacingStruct@@QBE?AUDirStruct@@_NH@Z 10003dc0 f i Body.obj
 0001:00002f90       ??$_Emplace_reallocate@ABU?$pair@PBVAITriggerTypeClass@@PAVExtData@AITriggerTypeExt@@@std@@@?$vector@U?$pair@PBVAITriggerTypeClass@@PAVExtData@AITriggerTypeExt@@@std@@V?$allocator@U?$pair@PBVAITriggerTypeClass@@PAVExtData@AITriggerTypeExt@@@std@@@2@@std@@AAEPAU?$pair@PBVAITriggerTypeClass@@PAVExtData@AITriggerTypeExt@@@1@QAU21@ABU21@@Z 10003f90 f i Body.obj
 0001:00002f90       ??$_Emplace_reallocate@ABU?$pair@PBVAnimClass@@PAVExtData@AnimExt@@@std@@@?$vector@U?$pair@PBVAnimClass@@PAVExtData@AnimExt@@@std@@V?$allocator@U?$pair@PBVAnimClass@@PAVExtData@AnimExt@@@std@@@2@@std@@AAEPAU?$pair@PBVAnimClass@@PAVExtData@AnimExt@@@1@QAU21@ABU21@@Z 10003f90 f i Body.obj
 0001:00002f90       ??$_Emplace_reallocate@ABU?$pair@PBVAnimTypeClass@@PAVExtData@AnimTypeExt@@@std@@@?$vector@U?$pair@PBVAnimTypeClass@@PAVExtData@AnimTypeExt@@@std@@V?$allocator@U?$pair@PBVAnimTypeClass@@PAVExtData@AnimTypeExt@@@std@@@2@@std@@AAEPAU?$pair@PBVAnimTypeClass@@PAVExtData@AnimTypeExt@@@1@QAU21@ABU21@@Z 10003f90 f i Body.obj
 0001:00002f90       ??$_Emplace_reallocate@ABU?$pair@PBVBombClass@@PAVExtData@BombExt@@@std@@@?$vector@U?$pair@PBVBombClass@@PAVExtData@BombExt@@@std@@V?$allocator@U?$pair@PBVBombClass@@PAVExtData@BombExt@@@std@@@2@@std@@AAEPAU?$pair@PBVBombClass@@PAVExtData@BombExt@@@1@QAU21@ABU21@@Z 10003f90 f i Body.obj
 0001:00002f90       ??$_Emplace_reallocate@ABU?$pair@PBVBuildingClass@@PAVExtData@BuildingExt@@@std@@@?$vector@U?$pair@PBVBuildingClass@@PAVExtData@BuildingExt@@@std@@V?$allocator@U?$pair@PBVBuildingClass@@PAVExtData@BuildingExt@@@std@@@2@@std@@AAEPAU?$pair@PBVBuildingClass@@PAVExtData@BuildingExt@@@1@QAU21@ABU21@@Z 10003f90 f i Body.obj
 0001:00002f90       ??$_Emplace_reallocate@ABU?$pair@PBVBuildingTypeClass@@PAVExtData@BuildingTypeExt@@@std@@@?$vector@U?$pair@PBVBuildingTypeClass@@PAVExtData@BuildingTypeExt@@@std@@V?$allocator@U?$pair@PBVBuildingTypeClass@@PAVExtData@BuildingTypeExt@@@std@@@2@@std@@AAEPAU?$pair@PBVBuildingTypeClass@@PAVExtData@BuildingTypeExt@@@1@QAU21@ABU21@@Z 10003f90 f i Body.obj
 0001:00002f90       ??$_Emplace_reallocate@ABU?$pair@PBVBulletClass@@PAVExtData@BulletExt@@@std@@@?$vector@U?$pair@PBVBulletClass@@PAVExtData@BulletExt@@@std@@V?$allocator@U?$pair@PBVBulletClass@@PAVExtData@BulletExt@@@std@@@2@@std@@AAEPAU?$pair@PBVBulletClass@@PAVExtData@BulletExt@@@1@QAU21@ABU21@@Z 10003f90 f i Body.obj
 0001:00002f90       ??$_Emplace_reallocate@ABU?$pair@PBVBulletTypeClass@@PAVExtData@BulletTypeExt@@@std@@@?$vector@U?$pair@PBVBulletTypeClass@@PAVExtData@BulletTypeExt@@@std@@V?$allocator@U?$pair@PBVBulletTypeClass@@PAVExtData@BulletTypeExt@@@std@@@2@@std@@AAEPAU?$pair@PBVBulletTypeClass@@PAVExtData@BulletTypeExt@@@1@QAU21@ABU21@@Z 10003f90 f i Body.obj
 0001:00002f90       ??$_Emplace_reallocate@ABU?$pair@PBVCaptureManagerClass@@PAVExtData@CaptureExt@@@std@@@?$vector@U?$pair@PBVCaptureManagerClass@@PAVExtData@CaptureExt@@@std@@V?$allocator@U?$pair@PBVCaptureManagerClass@@PAVExtData@CaptureExt@@@std@@@2@@std@@AAEPAU?$pair@PBVCaptureManagerClass@@PAVExtData@CaptureExt@@@1@QAU21@ABU21@@Z 10003f90 f i Body.obj
 0001:00002f90       ??$_Emplace_reallocate@ABU?$pair@PBVCellClass@@PAVExtData@CellExt@@@std@@@?$vector@U?$pair@PBVCellClass@@PAVExtData@CellExt@@@std@@V?$allocator@U?$pair@PBVCellClass@@PAVExtData@CellExt@@@std@@@2@@std@@AAEPAU?$pair@PBVCellClass@@PAVExtData@CellExt@@@1@QAU21@ABU21@@Z 10003f90 f i Body.obj
 0001:00002f90       ??$_Emplace_reallocate@ABU?$pair@PBVHouseClass@@PAVExtData@HouseExt@@@std@@@?$vector@U?$pair@PBVHouseClass@@PAVExtData@HouseExt@@@std@@V?$allocator@U?$pair@PBVHouseClass@@PAVExtData@HouseExt@@@std@@@2@@std@@AAEPAU?$pair@PBVHouseClass@@PAVExtData@HouseExt@@@1@QAU21@ABU21@@Z 10003f90 f i Body.obj
 0001:00002f90       ??$_Emplace_reallocate@ABU?$pair@PBVParasiteClass@@PAVExtData@ParasiteExt@@@std@@@?$vector@U?$pair@PBVParasiteClass@@PAVExtData@ParasiteExt@@@std@@V?$allocator@U?$pair@PBVParasiteClass@@PAVExtData@ParasiteExt@@@std@@@2@@std@@AAEPAU?$pair@PBVParasiteClass@@PAVExtData@ParasiteExt@@@1@QAU21@ABU21@@Z 10003f90 f i Body.obj
 0001:00002f90       ??$_Emplace_reallocate@ABU?$pair@PBVParticleClass@@PAVExtData@ParticleExt@@@std@@@?$vector@U?$pair@PBVParticleClass@@PAVExtData@ParticleExt@@@std@@V?$allocator@U?$pair@PBVParticleClass@@PAVExtData@ParticleExt@@@std@@@2@@std@@AAEPAU?$pair@PBVParticleClass@@PAVExtData@ParticleExt@@@1@QAU21@ABU21@@Z 10003f90 f i Body.obj
 0001:00002f90       ??$_Emplace_reallocate@ABU?$pair@PBVParticleTypeClass@@PAVExtData@ParticleTypeExt@@@std@@@?$vector@U?$pair@PBVParticleTypeClass@@PAVExtData@ParticleTypeExt@@@std@@V?$allocator@U?$pair@PBVParticleTypeClass@@PAVExtData@ParticleTypeExt@@@std@@@2@@std@@AAEPAU?$pair@PBVParticleTypeClass@@PAVExtData@ParticleTypeExt@@@1@QAU21@ABU21@@Z 10003f90 f i Body.obj
 0001:00002f90       ??$_Emplace_reallocate@ABU?$pair@PBVRadSiteClass@@PAVExtData@RadSiteExt@@@std@@@?$vector@U?$pair@PBVRadSiteClass@@PAVExtData@RadSiteExt@@@std@@V?$allocator@U?$pair@PBVRadSiteClass@@PAVExtData@RadSiteExt@@@std@@@2@@std@@AAEPAU?$pair@PBVRadSiteClass@@PAVExtData@RadSiteExt@@@1@QAU21@ABU21@@Z 10003f90 f i Body.obj
 0001:00002f90       ??$_Emplace_reallocate@ABU?$pair@PBVScriptClass@@PAVExtData@ScriptExt@@@std@@@?$vector@U?$pair@PBVScriptClass@@PAVExtData@ScriptExt@@@std@@V?$allocator@U?$pair@PBVScriptClass@@PAVExtData@ScriptExt@@@std@@@2@@std@@AAEPAU?$pair@PBVScriptClass@@PAVExtData@ScriptExt@@@1@QAU21@ABU21@@Z 10003f90 f i Body.obj
 0001:00002f90       ??$_Emplace_reallocate@ABU?$pair@PBVScriptTypeClass@@PAVExtData@ScriptTypeExt@@@std@@@?$vector@U?$pair@PBVScriptTypeClass@@PAVExtData@ScriptTypeExt@@@std@@V?$allocator@U?$pair@PBVScriptTypeClass@@PAVExtData@ScriptTypeExt@@@std@@@2@@std@@AAEPAU?$pair@PBVScriptTypeClass@@PAVExtData@ScriptTypeExt@@@1@QAU21@ABU21@@Z 10003f90 f i Body.obj
 0001:00002f90       ??$_Emplace_reallocate@ABU?$pair@PBVSideClass@@PAVExtData@SideExt@@@std@@@?$vector@U?$pair@PBVSideClass@@PAVExtData@SideExt@@@std@@V?$allocator@U?$pair@PBVSideClass@@PAVExtData@SideExt@@@std@@@2@@std@@AAEPAU?$pair@PBVSideClass@@PAVExtData@SideExt@@@1@QAU21@ABU21@@Z 10003f90 f i Body.obj
 0001:00002f90       ??$_Emplace_reallocate@ABU?$pair@PBVSmudgeTypeClass@@PAVExtData@SmudgeTypeExt@@@std@@@?$vector@U?$pair@PBVSmudgeTypeClass@@PAVExtData@SmudgeTypeExt@@@std@@V?$allocator@U?$pair@PBVSmudgeTypeClass@@PAVExtData@SmudgeTypeExt@@@std@@@2@@std@@AAEPAU?$pair@PBVSmudgeTypeClass@@PAVExtData@SmudgeTypeExt@@@1@QAU21@ABU21@@Z 10003f90 f i Body.obj
 0001:00002f90       ??$_Emplace_reallocate@ABU?$pair@PBVSuperClass@@PAVExtData@SuperExt@@@std@@@?$vector@U?$pair@PBVSuperClass@@PAVExtData@SuperExt@@@std@@V?$allocator@U?$pair@PBVSuperClass@@PAVExtData@SuperExt@@@std@@@2@@std@@AAEPAU?$pair@PBVSuperClass@@PAVExtData@SuperExt@@@1@QAU21@ABU21@@Z 10003f90 f i Body.obj
 0001:00002f90       ??$_Emplace_reallocate@ABU?$pair@PBVSuperWeaponTypeClass@@PAVExtData@SWTypeExt@@@std@@@?$vector@U?$pair@PBVSuperWeaponTypeClass@@PAVExtData@SWTypeExt@@@std@@V?$allocator@U?$pair@PBVSuperWeaponTypeClass@@PAVExtData@SWTypeExt@@@std@@@2@@std@@AAEPAU?$pair@PBVSuperWeaponTypeClass@@PAVExtData@SWTypeExt@@@1@QAU21@ABU21@@Z 10003f90 f i Body.obj
 0001:00002f90       ??$_Emplace_reallocate@ABU?$pair@PBVTActionClass@@PAVExtData@TActionExt@@@std@@@?$vector@U?$pair@PBVTActionClass@@PAVExtData@TActionExt@@@std@@V?$allocator@U?$pair@PBVTActionClass@@PAVExtData@TActionExt@@@std@@@2@@std@@AAEPAU?$pair@PBVTActionClass@@PAVExtData@TActionExt@@@1@QAU21@ABU21@@Z 10003f90 f i Body.obj
 0001:00002f90       ??$_Emplace_reallocate@ABU?$pair@PBVTEventClass@@PAVExtData@TEventExt@@@std@@@?$vector@U?$pair@PBVTEventClass@@PAVExtData@TEventExt@@@std@@V?$allocator@U?$pair@PBVTEventClass@@PAVExtData@TEventExt@@@std@@@2@@std@@AAEPAU?$pair@PBVTEventClass@@PAVExtData@TEventExt@@@1@QAU21@ABU21@@Z 10003f90 f i Body.obj
 0001:00002f90       ??$_Emplace_reallocate@ABU?$pair@PBVTeamClass@@PAVExtData@TeamExt@@@std@@@?$vector@U?$pair@PBVTeamClass@@PAVExtData@TeamExt@@@std@@V?$allocator@U?$pair@PBVTeamClass@@PAVExtData@TeamExt@@@std@@@2@@std@@AAEPAU?$pair@PBVTeamClass@@PAVExtData@TeamExt@@@1@QAU21@ABU21@@Z 10003f90 f i Body.obj
 0001:00002f90       ??$_Emplace_reallocate@ABU?$pair@PBVTeamTypeClass@@PAVExtData@TeamTypeExt@@@std@@@?$vector@U?$pair@PBVTeamTypeClass@@PAVExtData@TeamTypeExt@@@std@@V?$allocator@U?$pair@PBVTeamTypeClass@@PAVExtData@TeamTypeExt@@@std@@@2@@std@@AAEPAU?$pair@PBVTeamTypeClass@@PAVExtData@TeamTypeExt@@@1@QAU21@ABU21@@Z 10003f90 f i Body.obj
 0001:00002f90       ??$_Emplace_reallocate@ABU?$pair@PBVTechnoClass@@PAVExtData@TechnoExt@@@std@@@?$vector@U?$pair@PBVTechnoClass@@PAVExtData@TechnoExt@@@std@@V?$allocator@U?$pair@PBVTechnoClass@@PAVExtData@TechnoExt@@@std@@@2@@std@@AAEPAU?$pair@PBVTechnoClass@@PAVExtData@TechnoExt@@@1@QAU21@ABU21@@Z 10003f90 f i Body.obj
 0001:00002f90       ??$_Emplace_reallocate@ABU?$pair@PBVTechnoTypeClass@@PAVExtData@TechnoTypeExt@@@std@@@?$vector@U?$pair@PBVTechnoTypeClass@@PAVExtData@TechnoTypeExt@@@std@@V?$allocator@U?$pair@PBVTechnoTypeClass@@PAVExtData@TechnoTypeExt@@@std@@@2@@std@@AAEPAU?$pair@PBVTechnoTypeClass@@PAVExtData@TechnoTypeExt@@@1@QAU21@ABU21@@Z 10003f90 f i Body.obj
 0001:00002f90       ??$_Emplace_reallocate@ABU?$pair@PBVTemporalClass@@PAVExtData@TemporalExt@@@std@@@?$vector@U?$pair@PBVTemporalClass@@PAVExtData@TemporalExt@@@std@@V?$allocator@U?$pair@PBVTemporalClass@@PAVExtData@TemporalExt@@@std@@@2@@std@@AAEPAU?$pair@PBVTemporalClass@@PAVExtData@TemporalExt@@@1@QAU21@ABU21@@Z 10003f90 f i Body.obj
 0001:00002f90       ??$_Emplace_reallocate@ABU?$pair@PBVTerrainClass@@PAVExtData@TerrainExt@@@std@@@?$vector@U?$pair@PBVTerrainClass@@PAVExtData@TerrainExt@@@std@@V?$allocator@U?$pair@PBVTerrainClass@@PAVExtData@TerrainExt@@@std@@@2@@std@@AAEPAU?$pair@PBVTerrainClass@@PAVExtData@TerrainExt@@@1@QAU21@ABU21@@Z 10003f90 f i Body.obj
 0001:00002f90       ??$_Emplace_reallocate@ABU?$pair@PBVTerrainTypeClass@@PAVExtData@TerrainTypeExt@@@std@@@?$vector@U?$pair@PBVTerrainTypeClass@@PAVExtData@TerrainTypeExt@@@std@@V?$allocator@U?$pair@PBVTerrainTypeClass@@PAVExtData@TerrainTypeExt@@@std@@@2@@std@@AAEPAU?$pair@PBVTerrainTypeClass@@PAVExtData@TerrainTypeExt@@@1@QAU21@ABU21@@Z 10003f90 f i Body.obj
 0001:00002f90       ??$_Emplace_reallocate@ABU?$pair@PBVTiberiumClass@@PAVExtData@TiberiumExt@@@std@@@?$vector@U?$pair@PBVTiberiumClass@@PAVExtData@TiberiumExt@@@std@@V?$allocator@U?$pair@PBVTiberiumClass@@PAVExtData@TiberiumExt@@@std@@@2@@std@@AAEPAU?$pair@PBVTiberiumClass@@PAVExtData@TiberiumExt@@@1@QAU21@ABU21@@Z 10003f90 f i Body.obj
 0001:00002f90       ??$_Emplace_reallocate@ABU?$pair@PBVVoxelAnimClass@@PAVExtData@VoxelAnimExt@@@std@@@?$vector@U?$pair@PBVVoxelAnimClass@@PAVExtData@VoxelAnimExt@@@std@@V?$allocator@U?$pair@PBVVoxelAnimClass@@PAVExtData@VoxelAnimExt@@@std@@@2@@std@@AAEPAU?$pair@PBVVoxelAnimClass@@PAVExtData@VoxelAnimExt@@@1@QAU21@ABU21@@Z 10003f90 f i Body.obj
 0001:00002f90       ??$_Emplace_reallocate@ABU?$pair@PBVVoxelAnimTypeClass@@PAVExtData@VoxelAnimTypeExt@@@std@@@?$vector@U?$pair@PBVVoxelAnimTypeClass@@PAVExtData@VoxelAnimTypeExt@@@std@@V?$allocator@U?$pair@PBVVoxelAnimTypeClass@@PAVExtData@VoxelAnimTypeExt@@@std@@@2@@std@@AAEPAU?$pair@PBVVoxelAnimTypeClass@@PAVExtData@VoxelAnimTypeExt@@@1@QAU21@ABU21@@Z 10003f90 f i Body.obj
 0001:00002f90       ??$_Emplace_reallocate@ABU?$pair@PBVWarheadTypeClass@@PAVExtData@WarheadTypeExt@@@std@@@?$vector@U?$pair@PBVWarheadTypeClass@@PAVExtData@WarheadTypeExt@@@std@@V?$allocator@U?$pair@PBVWarheadTypeClass@@PAVExtData@WarheadTypeExt@@@std@@@2@@std@@AAEPAU?$pair@PBVWarheadTypeClass@@PAVExtData@WarheadTypeExt@@@1@QAU21@ABU21@@Z 10003f90 f i Body.obj
 0001:00002f90       ??$_Emplace_reallocate@ABU?$pair@PBVWeaponTypeClass@@PAVExtData@WeaponTypeExt@@@std@@@?$vector@U?$pair@PBVWeaponTypeClass@@PAVExtData@WeaponTypeExt@@@std@@V?$allocator@U?$pair@PBVWeaponTypeClass@@PAVExtData@WeaponTypeExt@@@std@@@2@@std@@AAEPAU?$pair@PBVWeaponTypeClass@@PAVExtData@WeaponTypeExt@@@1@QAU21@ABU21@@Z 10003f90 f i Body.obj
 0001:000033a0       ??$string_copy_n@DU?$char_traits@D@std@@@detail@@YIXQADQBDI@Z 100043a0 f i Body.obj
 0001:000033e0       ??0?$DynamicVectorClass@V?$basic_string@DU?$char_traits@D@std@@V?$allocator@D@2@@std@@@@QAE@ABV0@@Z 100043e0 f i Body.obj
 0001:00003490       ??0?$basic_string@DU?$char_traits@D@std@@V?$allocator@D@2@@std@@QAE@ABV01@@Z 10004490 f i Body.obj
 0001:00003540       ??0bad_alloc@std@@QAE@ABV01@@Z 10004540 f i Body.obj
 0001:00003570       ??0bad_array_new_length@std@@QAE@ABV01@@Z 10004570 f i Body.obj
 0001:000035a0       ??0bad_array_new_length@std@@QAE@XZ 100045a0 f i Body.obj
 0001:000035c0       ??0exception@std@@QAE@ABV01@@Z 100045c0 f i Body.obj
 0001:000035f0       ??1?$VectorClass@V?$DynamicVectorClass@V?$basic_string@DU?$char_traits@D@std@@V?$allocator@D@2@@std@@@@@@UAE@XZ 100045f0 f i Body.obj
 0001:00003630       ??1ExtContainer@AITriggerTypeExt@@UAE@XZ 10004630 f   Body.obj
 0001:00003690       ??1bad_alloc@std@@UAE@XZ   10004690 f i libcpmt:xthrow.obj
 0001:00003690       ??1bad_array_new_length@std@@UAE@XZ 10004690 f i Body.obj
 0001:00003690       ??1bad_exception@std@@UAE@XZ 10004690 f i libvcruntime:frame.obj
 0001:00003690       ??1failure@ios_base@std@@UAE@XZ 10004690 f i PhobosToolTip.obj
 0001:00003690       ??1length_error@std@@UAE@XZ 10004690 f i libcpmt:xthrow.obj
 0001:00003690       ??1out_of_range@std@@UAE@XZ 10004690 f i libcpmt:xthrow.obj
 0001:00003690       ??1runtime_error@std@@UAE@XZ 10004690 f i libcpmt:xthrow.obj
 0001:000036b0       ??8?$VectorClass@V?$DynamicVectorClass@PAVScriptTypeClass@@@@@@UBE_NABV0@@Z 100046b0 f i Body.obj
 0001:000036b0       ??8?$VectorClass@V?$DynamicVectorClass@PAVTechnoTypeClass@@@@@@UBE_NABV0@@Z 100046b0 f i Body.obj
 0001:000036b0       ??8?$VectorClass@V?$DynamicVectorClass@V?$basic_string@DU?$char_traits@D@std@@V?$allocator@D@2@@std@@@@@@UBE_NABV0@@Z 100046b0 f i Body.obj
 0001:00003710       ??8?$VectorClass@V?$basic_string@DU?$char_traits@D@std@@V?$allocator@D@2@@std@@@@UBE_NABV0@@Z 10004710 f i Body.obj
 0001:000037d0       ??_E?$Container@VAITriggerTypeExt@@@@UAEPAXI@Z 100047d0 f i Body.obj
 0001:000037d0       ??_E?$Container@VAnimExt@@@@UAEPAXI@Z 100047d0 f i Body.obj
 0001:000037d0       ??_E?$Container@VAnimTypeExt@@@@UAEPAXI@Z 100047d0 f i Body.obj
 0001:000037d0       ??_E?$Container@VBombExt@@@@UAEPAXI@Z 100047d0 f i Body.obj
 0001:000037d0       ??_E?$Container@VBuildingExt@@@@UAEPAXI@Z 100047d0 f i Body.obj
 0001:000037d0       ??_E?$Container@VBuildingTypeExt@@@@UAEPAXI@Z 100047d0 f i Body.obj
 0001:000037d0       ??_E?$Container@VBulletExt@@@@UAEPAXI@Z 100047d0 f i Body.obj
 0001:000037d0       ??_E?$Container@VBulletTypeExt@@@@UAEPAXI@Z 100047d0 f i Body.obj
 0001:000037d0       ??_E?$Container@VCaptureExt@@@@UAEPAXI@Z 100047d0 f i Body.obj
 0001:000037d0       ??_E?$Container@VCellExt@@@@UAEPAXI@Z 100047d0 f i Body.obj
 0001:000037d0       ??_E?$Container@VHouseExt@@@@UAEPAXI@Z 100047d0 f i Body.obj
 0001:000037d0       ??_E?$Container@VParasiteExt@@@@UAEPAXI@Z 100047d0 f i Body.obj
 0001:000037d0       ??_E?$Container@VParticleExt@@@@UAEPAXI@Z 100047d0 f i Body.obj
 0001:000037d0       ??_E?$Container@VParticleTypeExt@@@@UAEPAXI@Z 100047d0 f i Body.obj
 0001:000037d0       ??_E?$Container@VRadSiteExt@@@@UAEPAXI@Z 100047d0 f i Body.obj
 0001:000037d0       ??_E?$Container@VSWTypeExt@@@@UAEPAXI@Z 100047d0 f i Body.obj
 0001:000037d0       ??_E?$Container@VScriptExt@@@@UAEPAXI@Z 100047d0 f i Body.obj
 0001:000037d0       ??_E?$Container@VScriptTypeExt@@@@UAEPAXI@Z 100047d0 f i Body.obj
 0001:000037d0       ??_E?$Container@VSideExt@@@@UAEPAXI@Z 100047d0 f i Body.obj
 0001:000037d0       ??_E?$Container@VSmudgeTypeExt@@@@UAEPAXI@Z 100047d0 f i Body.obj
 0001:000037d0       ??_E?$Container@VSuperExt@@@@UAEPAXI@Z 100047d0 f i Body.obj
 0001:000037d0       ??_E?$Container@VTActionExt@@@@UAEPAXI@Z 100047d0 f i Body.obj
 0001:000037d0       ??_E?$Container@VTEventExt@@@@UAEPAXI@Z 100047d0 f i Body.obj
 0001:000037d0       ??_E?$Container@VTeamExt@@@@UAEPAXI@Z 100047d0 f i Body.obj
 0001:000037d0       ??_E?$Container@VTeamTypeExt@@@@UAEPAXI@Z 100047d0 f i Body.obj
 0001:000037d0       ??_E?$Container@VTechnoExt@@@@UAEPAXI@Z 100047d0 f i Body.obj
 0001:000037d0       ??_E?$Container@VTechnoTypeExt@@@@UAEPAXI@Z 100047d0 f i Body.obj
 0001:000037d0       ??_E?$Container@VTemporalExt@@@@UAEPAXI@Z 100047d0 f i Body.obj
 0001:000037d0       ??_E?$Container@VTerrainExt@@@@UAEPAXI@Z 100047d0 f i Body.obj
 0001:000037d0       ??_E?$Container@VTerrainTypeExt@@@@UAEPAXI@Z 100047d0 f i Body.obj
 0001:000037d0       ??_E?$Container@VTiberiumExt@@@@UAEPAXI@Z 100047d0 f i Body.obj
 0001:000037d0       ??_E?$Container@VVoxelAnimExt@@@@UAEPAXI@Z 100047d0 f i Body.obj
 0001:000037d0       ??_E?$Container@VVoxelAnimTypeExt@@@@UAEPAXI@Z 100047d0 f i Body.obj
 0001:000037d0       ??_E?$Container@VWarheadTypeExt@@@@UAEPAXI@Z 100047d0 f i Body.obj
 0001:000037d0       ??_E?$Container@VWeaponTypeExt@@@@UAEPAXI@Z 100047d0 f i Body.obj
 0001:000037d0       ??_G?$Container@VAITriggerTypeExt@@@@UAEPAXI@Z 100047d0 f i Body.obj
 0001:000037d0       ??_G?$Container@VAnimExt@@@@UAEPAXI@Z 100047d0 f i Body.obj
 0001:000037d0       ??_G?$Container@VAnimTypeExt@@@@UAEPAXI@Z 100047d0 f i Body.obj
 0001:000037d0       ??_G?$Container@VBombExt@@@@UAEPAXI@Z 100047d0 f i Body.obj
 0001:000037d0       ??_G?$Container@VBuildingExt@@@@UAEPAXI@Z 100047d0 f i Body.obj
 0001:000037d0       ??_G?$Container@VBuildingTypeExt@@@@UAEPAXI@Z 100047d0 f i Body.obj
 0001:000037d0       ??_G?$Container@VBulletExt@@@@UAEPAXI@Z 100047d0 f i Body.obj
 0001:000037d0       ??_G?$Container@VBulletTypeExt@@@@UAEPAXI@Z 100047d0 f i Body.obj
 0001:000037d0       ??_G?$Container@VCaptureExt@@@@UAEPAXI@Z 100047d0 f i Body.obj
 0001:000037d0       ??_G?$Container@VCellExt@@@@UAEPAXI@Z 100047d0 f i Body.obj
 0001:000037d0       ??_G?$Container@VHouseExt@@@@UAEPAXI@Z 100047d0 f i Body.obj
 0001:000037d0       ??_G?$Container@VParasiteExt@@@@UAEPAXI@Z 100047d0 f i Body.obj
 0001:000037d0       ??_G?$Container@VParticleExt@@@@UAEPAXI@Z 100047d0 f i Body.obj
 0001:000037d0       ??_G?$Container@VParticleTypeExt@@@@UAEPAXI@Z 100047d0 f i Body.obj
 0001:000037d0       ??_G?$Container@VRadSiteExt@@@@UAEPAXI@Z 100047d0 f i Body.obj
 0001:000037d0       ??_G?$Container@VSWTypeExt@@@@UAEPAXI@Z 100047d0 f i Body.obj
 0001:000037d0       ??_G?$Container@VScriptExt@@@@UAEPAXI@Z 100047d0 f i Body.obj
 0001:000037d0       ??_G?$Container@VScriptTypeExt@@@@UAEPAXI@Z 100047d0 f i Body.obj
 0001:000037d0       ??_G?$Container@VSideExt@@@@UAEPAXI@Z 100047d0 f i Body.obj
 0001:000037d0       ??_G?$Container@VSmudgeTypeExt@@@@UAEPAXI@Z 100047d0 f i Body.obj
 0001:000037d0       ??_G?$Container@VSuperExt@@@@UAEPAXI@Z 100047d0 f i Body.obj
 0001:000037d0       ??_G?$Container@VTActionExt@@@@UAEPAXI@Z 100047d0 f i Body.obj
 0001:000037d0       ??_G?$Container@VTEventExt@@@@UAEPAXI@Z 100047d0 f i Body.obj
 0001:000037d0       ??_G?$Container@VTeamExt@@@@UAEPAXI@Z 100047d0 f i Body.obj
 0001:000037d0       ??_G?$Container@VTeamTypeExt@@@@UAEPAXI@Z 100047d0 f i Body.obj
 0001:000037d0       ??_G?$Container@VTechnoExt@@@@UAEPAXI@Z 100047d0 f i Body.obj
 0001:000037d0       ??_G?$Container@VTechnoTypeExt@@@@UAEPAXI@Z 100047d0 f i Body.obj
 0001:000037d0       ??_G?$Container@VTemporalExt@@@@UAEPAXI@Z 100047d0 f i Body.obj
 0001:000037d0       ??_G?$Container@VTerrainExt@@@@UAEPAXI@Z 100047d0 f i Body.obj
 0001:000037d0       ??_G?$Container@VTerrainTypeExt@@@@UAEPAXI@Z 100047d0 f i Body.obj
 0001:000037d0       ??_G?$Container@VTiberiumExt@@@@UAEPAXI@Z 100047d0 f i Body.obj
 0001:000037d0       ??_G?$Container@VVoxelAnimExt@@@@UAEPAXI@Z 100047d0 f i Body.obj
 0001:000037d0       ??_G?$Container@VVoxelAnimTypeExt@@@@UAEPAXI@Z 100047d0 f i Body.obj
 0001:000037d0       ??_G?$Container@VWarheadTypeExt@@@@UAEPAXI@Z 100047d0 f i Body.obj
 0001:000037d0       ??_G?$Container@VWeaponTypeExt@@@@UAEPAXI@Z 100047d0 f i Body.obj
 0001:00003840       ??_E?$DynamicVectorClass@V?$DynamicVectorClass@V?$basic_string@DU?$char_traits@D@std@@V?$allocator@D@2@@std@@@@@@UAEPAXI@Z 10004840 f i Body.obj
 0001:00003840       ??_G?$DynamicVectorClass@V?$DynamicVectorClass@V?$basic_string@DU?$char_traits@D@std@@V?$allocator@D@2@@std@@@@@@UAEPAXI@Z 10004840 f i Body.obj
 0001:00003860       ??_E?$DynamicVectorClass@V?$basic_string@DU?$char_traits@D@std@@V?$allocator@D@2@@std@@@@UAEPAXI@Z 10004860 f i Body.obj
 0001:00003860       ??_G?$DynamicVectorClass@V?$basic_string@DU?$char_traits@D@std@@V?$allocator@D@2@@std@@@@UAEPAXI@Z 10004860 f i Body.obj
 0001:000038a0       ??_E?$VectorClass@V?$DynamicVectorClass@V?$basic_string@DU?$char_traits@D@std@@V?$allocator@D@2@@std@@@@@@UAEPAXI@Z 100048a0 f i Body.obj
 0001:000038a0       ??_G?$VectorClass@V?$DynamicVectorClass@V?$basic_string@DU?$char_traits@D@std@@V?$allocator@D@2@@std@@@@@@UAEPAXI@Z 100048a0 f i Body.obj
 0001:000038c0       ??_E?$VectorClass@V?$basic_string@DU?$char_traits@D@std@@V?$allocator@D@2@@std@@@@UAEPAXI@Z 100048c0 f i Body.obj
 0001:000038c0       ??_G?$VectorClass@V?$basic_string@DU?$char_traits@D@std@@V?$allocator@D@2@@std@@@@UAEPAXI@Z 100048c0 f i Body.obj
 0001:00003900       ??_EExtContainer@AITriggerTypeExt@@UAEPAXI@Z 10004900 f i Body.obj
 0001:00003900       ??_GExtContainer@AITriggerTypeExt@@UAEPAXI@Z 10004900 f i Body.obj
 0001:00003930       ??_EExtData@AITriggerTypeExt@@UAEPAXI@Z 10004930 f i Body.obj
 0001:00003930       ??_EExtData@BombExt@@UAEPAXI@Z 10004930 f i Body.obj
 0001:00003930       ??_EExtData@CaptureExt@@UAEPAXI@Z 10004930 f i Body.obj
 0001:00003930       ??_EExtData@CellExt@@UAEPAXI@Z 10004930 f i Body.obj
 0001:00003930       ??_EExtData@ParasiteExt@@UAEPAXI@Z 10004930 f i Body.obj
 0001:00003930       ??_EExtData@ScriptExt@@UAEPAXI@Z 10004930 f i Body.obj
 0001:00003930       ??_EExtData@SidebarExt@@UAEPAXI@Z 10004930 f i Body.obj
 0001:00003930       ??_EExtData@SuperExt@@UAEPAXI@Z 10004930 f i Body.obj
 0001:00003930       ??_EExtData@TEventExt@@UAEPAXI@Z 10004930 f i Body.obj
 0001:00003930       ??_EExtData@TemporalExt@@UAEPAXI@Z 10004930 f i Body.obj
 0001:00003930       ??_GExtData@AITriggerTypeExt@@UAEPAXI@Z 10004930 f i Body.obj
 0001:00003930       ??_GExtData@BombExt@@UAEPAXI@Z 10004930 f i Body.obj
 0001:00003930       ??_GExtData@CaptureExt@@UAEPAXI@Z 10004930 f i Body.obj
 0001:00003930       ??_GExtData@CellExt@@UAEPAXI@Z 10004930 f i Body.obj
 0001:00003930       ??_GExtData@ParasiteExt@@UAEPAXI@Z 10004930 f i Body.obj
 0001:00003930       ??_GExtData@ScriptExt@@UAEPAXI@Z 10004930 f i Body.obj
 0001:00003930       ??_GExtData@SidebarExt@@UAEPAXI@Z 10004930 f i Body.obj
 0001:00003930       ??_GExtData@SuperExt@@UAEPAXI@Z 10004930 f i Body.obj
 0001:00003930       ??_GExtData@TEventExt@@UAEPAXI@Z 10004930 f i Body.obj
 0001:00003930       ??_GExtData@TemporalExt@@UAEPAXI@Z 10004930 f i Body.obj
 0001:00003950       ??_Ebad_alloc@std@@UAEPAXI@Z 10004950 f i Body.obj
 0001:00003950       ??_Ebad_array_new_length@std@@UAEPAXI@Z 10004950 f i Body.obj
 0001:00003950       ??_Eexception@std@@UAEPAXI@Z 10004950 f i Body.obj
 0001:00003950       ??_Eruntime_error@std@@UAEPAXI@Z 10004950 f i PhobosToolTip.obj
 0001:00003950       ??_Gbad_alloc@std@@UAEPAXI@Z 10004950 f i Body.obj
 0001:00003950       ??_Gbad_array_new_length@std@@UAEPAXI@Z 10004950 f i Body.obj
 0001:00003950       ??_Gexception@std@@UAEPAXI@Z 10004950 f i Body.obj
 0001:00003950       ??_Gruntime_error@std@@UAEPAXI@Z 10004950 f i PhobosToolTip.obj
 0001:00003980       ?Clear@?$DynamicVectorClass@V?$DynamicVectorClass@PAVScriptTypeClass@@@@@@UAEXXZ 10004980 f i Body.obj
 0001:00003980       ?Clear@?$DynamicVectorClass@V?$DynamicVectorClass@PAVTechnoTypeClass@@@@@@UAEXXZ 10004980 f i Body.obj
 0001:00003980       ?Clear@?$DynamicVectorClass@V?$DynamicVectorClass@V?$basic_string@DU?$char_traits@D@std@@V?$allocator@D@2@@std@@@@@@UAEXXZ 10004980 f i Body.obj
 0001:000039f0       ?Clear@?$DynamicVectorClass@V?$basic_string@DU?$char_traits@D@std@@V?$allocator@D@2@@std@@@@UAEXXZ 100049f0 f i Body.obj
 0001:00003a30       ?Clear@?$VectorClass@V?$DynamicVectorClass@PAVScriptTypeClass@@@@@@UAEXXZ 10004a30 f i Body.obj
 0001:00003a30       ?Clear@?$VectorClass@V?$DynamicVectorClass@PAVTechnoTypeClass@@@@@@UAEXXZ 10004a30 f i Body.obj
 0001:00003a30       ?Clear@?$VectorClass@V?$DynamicVectorClass@V?$basic_string@DU?$char_traits@D@std@@V?$allocator@D@2@@std@@@@@@UAEXXZ 10004a30 f i Body.obj
 0001:00003aa0       ?Clear@?$VectorClass@V?$basic_string@DU?$char_traits@D@std@@V?$allocator@D@2@@std@@@@UAEXXZ 10004aa0 f i Body.obj
 0001:00003ad0       ?ControlledByHuman@HouseClass@@QBE_NXZ 10004ad0 f i Body.obj
 0001:00003af0       ?CustomizableAICondition@AITriggerTypeExt@@SGXPAVAITriggerTypeClass@@PAVHouseClass@@H@Z 10004af0 f   Body.obj
 0001:000040d0       ?Deallocate@YRMemory@@YAXPBX@Z 100050d0 f i Body.obj
 0001:000040e0       ?Find@TechnoTypeClass@@SIPAV1@PBD@Z 100050e0 f i Body.obj
 0001:00004120       ?FindItemIndex@?$DynamicVectorClass@V?$DynamicVectorClass@PAVScriptTypeClass@@@@@@UBEHABV?$DynamicVectorClass@PAVScriptTypeClass@@@@@Z 10005120 f i Body.obj
 0001:00004120       ?FindItemIndex@?$DynamicVectorClass@V?$DynamicVectorClass@PAVTechnoTypeClass@@@@@@UBEHABV?$DynamicVectorClass@PAVTechnoTypeClass@@@@@Z 10005120 f i Body.obj
 0001:00004120       ?FindItemIndex@?$DynamicVectorClass@V?$DynamicVectorClass@V?$basic_string@DU?$char_traits@D@std@@V?$allocator@D@2@@std@@@@@@UBEHABV?$DynamicVectorClass@V?$basic_string@DU?$char_traits@D@std@@V?$allocator@D@2@@std@@@@@Z 10005120 f i Body.obj
 0001:00004170       ?FindItemIndex@?$DynamicVectorClass@V?$basic_string@DU?$char_traits@D@std@@V?$allocator@D@2@@std@@@@UBEHABV?$basic_string@DU?$char_traits@D@std@@V?$allocator@D@2@@std@@@Z 10005170 f i Body.obj
 0001:00004220       ?FindItemIndex@?$VectorClass@V?$DynamicVectorClass@PAVScriptTypeClass@@@@@@UBEHABV?$DynamicVectorClass@PAVScriptTypeClass@@@@@Z 10005220 f i Body.obj
 0001:00004220       ?FindItemIndex@?$VectorClass@V?$DynamicVectorClass@PAVTechnoTypeClass@@@@@@UBEHABV?$DynamicVectorClass@PAVTechnoTypeClass@@@@@Z 10005220 f i Body.obj
 0001:00004220       ?FindItemIndex@?$VectorClass@V?$DynamicVectorClass@V?$basic_string@DU?$char_traits@D@std@@V?$allocator@D@2@@std@@@@@@UBEHABV?$DynamicVectorClass@V?$basic_string@DU?$char_traits@D@std@@V?$allocator@D@2@@std@@@@@Z 10005220 f i Body.obj
 0001:00004270       ?FindItemIndex@?$VectorClass@V?$basic_string@DU?$char_traits@D@std@@V?$allocator@D@2@@std@@@@UBEHABV?$basic_string@DU?$char_traits@D@std@@V?$allocator@D@2@@std@@@Z 10005270 f i Body.obj
 0001:00004320       ?FindOrAllocate@TechnoTypeClass@@SIPAV1@PBD@Z 10005320 f i Body.obj
 0001:00004360       ?GetItem@?$VectorClass@V?$DynamicVectorClass@V?$basic_string@DU?$char_traits@D@std@@V?$allocator@D@2@@std@@@@@@UBE?AV?$DynamicVectorClass@V?$basic_string@DU?$char_traits@D@std@@V?$allocator@D@2@@std@@@@H@Z 10005360 f i Body.obj
 0001:00004380       ?GetItem@?$VectorClass@V?$basic_string@DU?$char_traits@D@std@@V?$allocator@D@2@@std@@@@UBE?AV?$basic_string@DU?$char_traits@D@std@@V?$allocator@D@2@@std@@H@Z 10005380 f i Body.obj
 0001:000043a0       ?GetItemIndex@?$VectorClass@V?$DynamicVectorClass@PAVScriptTypeClass@@@@@@UBEHPBV?$DynamicVectorClass@PAVScriptTypeClass@@@@@Z 100053a0 f i Body.obj
 0001:000043a0       ?GetItemIndex@?$VectorClass@V?$DynamicVectorClass@PAVTechnoTypeClass@@@@@@UBEHPBV?$DynamicVectorClass@PAVTechnoTypeClass@@@@@Z 100053a0 f i Body.obj
 0001:000043a0       ?GetItemIndex@?$VectorClass@V?$DynamicVectorClass@V?$basic_string@DU?$char_traits@D@std@@V?$allocator@D@2@@std@@@@@@UBEHPBV?$DynamicVectorClass@V?$basic_string@DU?$char_traits@D@std@@V?$allocator@D@2@@std@@@@@Z 100053a0 f i Body.obj
 0001:000043a0       ?GetItemIndex@?$VectorClass@V?$basic_string@DU?$char_traits@D@std@@V?$allocator@D@2@@std@@@@UBEHPBV?$basic_string@DU?$char_traits@D@std@@V?$allocator@D@2@@std@@@Z 100053a0 f i Body.obj
 0001:000043d0       ?CompleteInitialization@ExtData@BuildingTypeExt@@UAEXXZ 100053d0 f i Body.obj
 0001:000043d0       ?Initialize@?$Extension@VAITriggerTypeClass@@@@MAEXXZ 100053d0 f i Body.obj
 0001:000043d0       ?Initialize@?$Extension@VAnimClass@@@@MAEXXZ 100053d0 f i Body.obj
 0001:000043d0       ?Initialize@?$Extension@VBombClass@@@@MAEXXZ 100053d0 f i Body.obj
 0001:000043d0       ?Initialize@?$Extension@VBuildingClass@@@@MAEXXZ 100053d0 f i Body.obj
 0001:000043d0       ?Initialize@?$Extension@VBuildingTypeClass@@@@MAEXXZ 100053d0 f i Body.obj
 0001:000043d0       ?Initialize@?$Extension@VBulletClass@@@@MAEXXZ 100053d0 f i Body.obj
 0001:000043d0       ?Initialize@?$Extension@VCaptureManagerClass@@@@MAEXXZ 100053d0 f i Body.obj
 0001:000043d0       ?Initialize@?$Extension@VHouseClass@@@@MAEXXZ 100053d0 f i Body.obj
 0001:000043d0       ?Initialize@?$Extension@VParasiteClass@@@@MAEXXZ 100053d0 f i Body.obj
 0001:000043d0       ?Initialize@?$Extension@VParticleClass@@@@MAEXXZ 100053d0 f i Body.obj
 0001:000043d0       ?Initialize@?$Extension@VRadSiteClass@@@@MAEXXZ 100053d0 f i Body.obj
 0001:000043d0       ?Initialize@?$Extension@VRulesClass@@@@MAEXXZ 100053d0 f i Body.obj
 0001:000043d0       ?Initialize@?$Extension@VScenarioClass@@@@MAEXXZ 100053d0 f i Body.obj
 0001:000043d0       ?Initialize@?$Extension@VScriptClass@@@@MAEXXZ 100053d0 f i Body.obj
 0001:000043d0       ?Initialize@?$Extension@VScriptTypeClass@@@@MAEXXZ 100053d0 f i Body.obj
 0001:000043d0       ?Initialize@?$Extension@VSidebarClass@@@@MAEXXZ 100053d0 f i Body.obj
 0001:000043d0       ?Initialize@?$Extension@VSmudgeTypeClass@@@@MAEXXZ 100053d0 f i Body.obj
 0001:000043d0       ?Initialize@?$Extension@VSuperClass@@@@MAEXXZ 100053d0 f i Body.obj
 0001:000043d0       ?Initialize@?$Extension@VSuperWeaponTypeClass@@@@MAEXXZ 100053d0 f i Body.obj
 0001:000043d0       ?Initialize@?$Extension@VTActionClass@@@@MAEXXZ 100053d0 f i Body.obj
 0001:000043d0       ?Initialize@?$Extension@VTEventClass@@@@MAEXXZ 100053d0 f i Body.obj
 0001:000043d0       ?Initialize@?$Extension@VTeamClass@@@@MAEXXZ 100053d0 f i Body.obj
 0001:000043d0       ?Initialize@?$Extension@VTeamTypeClass@@@@MAEXXZ 100053d0 f i Body.obj
 0001:000043d0       ?Initialize@?$Extension@VTechnoClass@@@@MAEXXZ 100053d0 f i Body.obj
 0001:000043d0       ?Initialize@?$Extension@VTemporalClass@@@@MAEXXZ 100053d0 f i Body.obj
 0001:000043d0       ?Initialize@?$Extension@VTerrainClass@@@@MAEXXZ 100053d0 f i Body.obj
 0001:000043d0       ?Initialize@?$Extension@VTerrainTypeClass@@@@MAEXXZ 100053d0 f i Body.obj
 0001:000043d0       ?Initialize@?$Extension@VVoxelAnimClass@@@@MAEXXZ 100053d0 f i Body.obj
 0001:000043d0       ?Initialize@ExtData@AnimTypeExt@@UAEXXZ 100053d0 f i Body.obj
 0001:000043d0       ?Initialize@ExtData@CellExt@@UAEXXZ 100053d0 f i Body.obj
 0001:000043d0       ?Initialize@ExtData@TiberiumExt@@UAEXXZ 100053d0 f i Body.obj
 0001:000043d0       ?InitializeConstants@?$Extension@VAITriggerTypeClass@@@@MAEXXZ 100053d0 f i Body.obj
 0001:000043d0       ?InitializeConstants@?$Extension@VBulletTypeClass@@@@MAEXXZ 100053d0 f i Body.obj
 0001:000043d0       ?InitializeConstants@?$Extension@VCellClass@@@@MAEXXZ 100053d0 f i Body.obj
 0001:000043d0       ?InitializeConstants@?$Extension@VParticleTypeClass@@@@MAEXXZ 100053d0 f i Body.obj
 0001:000043d0       ?InitializeConstants@?$Extension@VScenarioClass@@@@MAEXXZ 100053d0 f i Body.obj
 0001:000043d0       ?InitializeConstants@?$Extension@VSmudgeTypeClass@@@@MAEXXZ 100053d0 f i Body.obj
 0001:000043d0       ?InitializeConstants@?$Extension@VSuperClass@@@@MAEXXZ 100053d0 f i Body.obj
 0001:000043d0       ?InitializeConstants@?$Extension@VSuperWeaponTypeClass@@@@MAEXXZ 100053d0 f i Body.obj
 0001:000043d0       ?InitializeConstants@?$Extension@VTeamTypeClass@@@@MAEXXZ 100053d0 f i Body.obj
 0001:000043d0       ?InitializeConstants@?$Extension@VTechnoTypeClass@@@@MAEXXZ 100053d0 f i Body.obj
 0001:000043d0       ?InitializeConstants@?$Extension@VTerrainTypeClass@@@@MAEXXZ 100053d0 f i Body.obj
 0001:000043d0       ?InitializeConstants@?$Extension@VTiberiumClass@@@@MAEXXZ 100053d0 f i Body.obj
 0001:000043d0       ?InitializeConstants@?$Extension@VVoxelAnimTypeClass@@@@MAEXXZ 100053d0 f i Body.obj
 0001:000043d0       ?InitializeConstants@?$Extension@VWarheadTypeClass@@@@MAEXXZ 100053d0 f i Body.obj
 0001:000043d0       ?InitializeConstants@?$Extension@VWeaponTypeClass@@@@MAEXXZ 100053d0 f i Body.obj
 0001:000043d0       ?InitializeConstants@ExtData@BombExt@@UAEXXZ 100053d0 f i Body.obj
 0001:000043d0       ?InitializeConstants@ExtData@BuildingExt@@UAEXXZ 100053d0 f i Body.obj
 0001:000043d0       ?InitializeConstants@ExtData@CaptureExt@@UAEXXZ 100053d0 f i Body.obj
 0001:000043d0       ?InitializeConstants@ExtData@HouseExt@@UAEXXZ 100053d0 f i Body.obj
 0001:000043d0       ?InitializeConstants@ExtData@ParasiteExt@@UAEXXZ 100053d0 f i Body.obj
 0001:000043d0       ?InitializeConstants@ExtData@RulesExt@@UAEXXZ 100053d0 f i Body.obj
 0001:000043d0       ?InitializeConstants@ExtData@ScriptExt@@UAEXXZ 100053d0 f i Body.obj
 0001:000043d0       ?InitializeConstants@ExtData@SideExt@@UAEXXZ 100053d0 f i Body.obj
 0001:000043d0       ?InitializeConstants@ExtData@SidebarExt@@UAEXXZ 100053d0 f i Body.obj
 0001:000043d0       ?InitializeConstants@ExtData@TActionExt@@UAEXXZ 100053d0 f i Body.obj
 0001:000043d0       ?InitializeConstants@ExtData@TEventExt@@UAEXXZ 100053d0 f i Body.obj
 0001:000043d0       ?InitializeConstants@ExtData@TeamExt@@UAEXXZ 100053d0 f i Body.obj
 0001:000043d0       ?InitializeConstants@ExtData@TemporalExt@@UAEXXZ 100053d0 f i Body.obj
 0001:000043d0       ?InitializeConstants@ExtData@TerrainExt@@UAEXXZ 100053d0 f i Body.obj
 0001:000043d0       ?InitializeRuled@?$Extension@VAITriggerTypeClass@@@@MAEXXZ 100053d0 f i Body.obj
 0001:000043d0       ?InitializeRuled@?$Extension@VAnimClass@@@@MAEXXZ 100053d0 f i Body.obj
 0001:000043d0       ?InitializeRuled@?$Extension@VAnimTypeClass@@@@MAEXXZ 100053d0 f i Body.obj
 0001:000043d0       ?InitializeRuled@?$Extension@VBombClass@@@@MAEXXZ 100053d0 f i Body.obj
 0001:000043d0       ?InitializeRuled@?$Extension@VBuildingClass@@@@MAEXXZ 100053d0 f i Body.obj
 0001:000043d0       ?InitializeRuled@?$Extension@VBuildingTypeClass@@@@MAEXXZ 100053d0 f i Body.obj
 0001:000043d0       ?InitializeRuled@?$Extension@VBulletClass@@@@MAEXXZ 100053d0 f i Body.obj
 0001:000043d0       ?InitializeRuled@?$Extension@VBulletTypeClass@@@@MAEXXZ 100053d0 f i Body.obj
 0001:000043d0       ?InitializeRuled@?$Extension@VCaptureManagerClass@@@@MAEXXZ 100053d0 f i Body.obj
 0001:000043d0       ?InitializeRuled@?$Extension@VCellClass@@@@MAEXXZ 100053d0 f i Body.obj
 0001:000043d0       ?InitializeRuled@?$Extension@VHouseClass@@@@MAEXXZ 100053d0 f i Body.obj
 0001:000043d0       ?InitializeRuled@?$Extension@VParasiteClass@@@@MAEXXZ 100053d0 f i Body.obj
 0001:000043d0       ?InitializeRuled@?$Extension@VParticleClass@@@@MAEXXZ 100053d0 f i Body.obj
 0001:000043d0       ?InitializeRuled@?$Extension@VParticleTypeClass@@@@MAEXXZ 100053d0 f i Body.obj
 0001:000043d0       ?InitializeRuled@?$Extension@VRadSiteClass@@@@MAEXXZ 100053d0 f i Body.obj
 0001:000043d0       ?InitializeRuled@?$Extension@VRulesClass@@@@MAEXXZ 100053d0 f i Body.obj
 0001:000043d0       ?InitializeRuled@?$Extension@VScenarioClass@@@@MAEXXZ 100053d0 f i Body.obj
 0001:000043d0       ?InitializeRuled@?$Extension@VScriptClass@@@@MAEXXZ 100053d0 f i Body.obj
 0001:000043d0       ?InitializeRuled@?$Extension@VScriptTypeClass@@@@MAEXXZ 100053d0 f i Body.obj
 0001:000043d0       ?InitializeRuled@?$Extension@VSideClass@@@@MAEXXZ 100053d0 f i Body.obj
 0001:000043d0       ?InitializeRuled@?$Extension@VSidebarClass@@@@MAEXXZ 100053d0 f i Body.obj
 0001:000043d0       ?InitializeRuled@?$Extension@VSmudgeTypeClass@@@@MAEXXZ 100053d0 f i Body.obj
 0001:000043d0       ?InitializeRuled@?$Extension@VSuperClass@@@@MAEXXZ 100053d0 f i Body.obj
 0001:000043d0       ?InitializeRuled@?$Extension@VSuperWeaponTypeClass@@@@MAEXXZ 100053d0 f i Body.obj
 0001:000043d0       ?InitializeRuled@?$Extension@VTActionClass@@@@MAEXXZ 100053d0 f i Body.obj
 0001:000043d0       ?InitializeRuled@?$Extension@VTEventClass@@@@MAEXXZ 100053d0 f i Body.obj
 0001:000043d0       ?InitializeRuled@?$Extension@VTeamClass@@@@MAEXXZ 100053d0 f i Body.obj
 0001:000043d0       ?InitializeRuled@?$Extension@VTeamTypeClass@@@@MAEXXZ 100053d0 f i Body.obj
 0001:000043d0       ?InitializeRuled@?$Extension@VTechnoClass@@@@MAEXXZ 100053d0 f i Body.obj
 0001:000043d0       ?InitializeRuled@?$Extension@VTechnoTypeClass@@@@MAEXXZ 100053d0 f i Body.obj
 0001:000043d0       ?InitializeRuled@?$Extension@VTemporalClass@@@@MAEXXZ 100053d0 f i Body.obj
 0001:000043d0       ?InitializeRuled@?$Extension@VTerrainClass@@@@MAEXXZ 100053d0 f i Body.obj
 0001:000043d0       ?InitializeRuled@?$Extension@VTerrainTypeClass@@@@MAEXXZ 100053d0 f i Body.obj
 0001:000043d0       ?InitializeRuled@?$Extension@VTiberiumClass@@@@MAEXXZ 100053d0 f i Body.obj
 0001:000043d0       ?InitializeRuled@?$Extension@VVoxelAnimClass@@@@MAEXXZ 100053d0 f i Body.obj
 0001:000043d0       ?InitializeRuled@?$Extension@VVoxelAnimTypeClass@@@@MAEXXZ 100053d0 f i Body.obj
 0001:000043d0       ?InitializeRuled@?$Extension@VWarheadTypeClass@@@@MAEXXZ 100053d0 f i Body.obj
 0001:000043d0       ?InitializeRuled@?$Extension@VWeaponTypeClass@@@@MAEXXZ 100053d0 f i Body.obj
 0001:000043d0       ?OnDeploy@ShieldClass@@UAEXXZ 100053d0 f i Body.obj
 0001:000043d0       ?OnGuardCommand@ShieldClass@@UAEXXZ 100053d0 f i Body.obj
 0001:000043d0       ?OnInit@ShieldClass@@UAEXXZ 100053d0 f i Body.obj
 0001:000043d0       ?OnStopCommand@ShieldClass@@UAEXXZ 100053d0 f i Body.obj
 0001:000043d0       ?OnUnInit@ShieldClass@@UAEXXZ 100053d0 f i Body.obj
 0001:000043d0       ?Uninitialize@?$Extension@VAITriggerTypeClass@@@@UAEXXZ 100053d0 f i Body.obj
 0001:000043d0       ?Uninitialize@?$Extension@VAnimClass@@@@UAEXXZ 100053d0 f i Body.obj
 0001:000043d0       ?Uninitialize@?$Extension@VAnimTypeClass@@@@UAEXXZ 100053d0 f i Body.obj
 0001:000043d0       ?Uninitialize@?$Extension@VBombClass@@@@UAEXXZ 100053d0 f i Body.obj
 0001:000043d0       ?Uninitialize@?$Extension@VBuildingClass@@@@UAEXXZ 100053d0 f i Body.obj
 0001:000043d0       ?Uninitialize@?$Extension@VBuildingTypeClass@@@@UAEXXZ 100053d0 f i Body.obj
 0001:000043d0       ?Uninitialize@?$Extension@VCaptureManagerClass@@@@UAEXXZ 100053d0 f i Body.obj
 0001:000043d0       ?Uninitialize@?$Extension@VCellClass@@@@UAEXXZ 100053d0 f i Body.obj
 0001:000043d0       ?Uninitialize@?$Extension@VParasiteClass@@@@UAEXXZ 100053d0 f i Body.obj
 0001:000043d0       ?Uninitialize@?$Extension@VParticleTypeClass@@@@UAEXXZ 100053d0 f i Body.obj
 0001:000043d0       ?Uninitialize@?$Extension@VRulesClass@@@@UAEXXZ 100053d0 f i Body.obj
 0001:000043d0       ?Uninitialize@?$Extension@VScenarioClass@@@@UAEXXZ 100053d0 f i Body.obj
 0001:000043d0       ?Uninitialize@?$Extension@VScriptClass@@@@UAEXXZ 100053d0 f i Body.obj
 0001:000043d0       ?Uninitialize@?$Extension@VScriptTypeClass@@@@UAEXXZ 100053d0 f i Body.obj
 0001:000043d0       ?Uninitialize@?$Extension@VSideClass@@@@UAEXXZ 100053d0 f i Body.obj
 0001:000043d0       ?Uninitialize@?$Extension@VSidebarClass@@@@UAEXXZ 100053d0 f i Body.obj
 0001:000043d0       ?Uninitialize@?$Extension@VSmudgeTypeClass@@@@UAEXXZ 100053d0 f i Body.obj
 0001:000043d0       ?Uninitialize@?$Extension@VSuperClass@@@@UAEXXZ 100053d0 f i Body.obj
 0001:000043d0       ?Uninitialize@?$Extension@VSuperWeaponTypeClass@@@@UAEXXZ 100053d0 f i Body.obj
 0001:000043d0       ?Uninitialize@?$Extension@VTActionClass@@@@UAEXXZ 100053d0 f i Body.obj
 0001:000043d0       ?Uninitialize@?$Extension@VTEventClass@@@@UAEXXZ 100053d0 f i Body.obj
 0001:000043d0       ?Uninitialize@?$Extension@VTeamClass@@@@UAEXXZ 100053d0 f i Body.obj
 0001:000043d0       ?Uninitialize@?$Extension@VTeamTypeClass@@@@UAEXXZ 100053d0 f i Body.obj
 0001:000043d0       ?Uninitialize@?$Extension@VTechnoTypeClass@@@@UAEXXZ 100053d0 f i Body.obj
 0001:000043d0       ?Uninitialize@?$Extension@VTemporalClass@@@@UAEXXZ 100053d0 f i Body.obj
 0001:000043d0       ?Uninitialize@?$Extension@VTerrainTypeClass@@@@UAEXXZ 100053d0 f i Body.obj
 0001:000043d0       ?Uninitialize@?$Extension@VTiberiumClass@@@@UAEXXZ 100053d0 f i Body.obj
 0001:000043d0       ?Uninitialize@?$Extension@VVoxelAnimTypeClass@@@@UAEXXZ 100053d0 f i Body.obj
 0001:000043d0       ?Uninitialize@?$Extension@VWarheadTypeClass@@@@UAEXXZ 100053d0 f i Body.obj
 0001:000043d0       ?Uninitialize@?$Extension@VWeaponTypeClass@@@@UAEXXZ 100053d0 f i Body.obj
 0001:000043d0       ?Uninitialize@ExtData@BulletExt@@UAEXXZ 100053d0 f i Body.obj
 0001:000043d0       ?Uninitialize@ExtData@BulletTypeExt@@UAEXXZ 100053d0 f i Body.obj
 0001:000043d0       ?Uninitialize@ExtData@RadSiteExt@@UAEXXZ 100053d0 f i Body.obj
 0001:000043d0       ?Uninitialize@ExtData@TerrainExt@@UAEXXZ 100053d0 f i Body.obj
 0001:000043d0       ?Uninitialize@ExtData@VoxelAnimExt@@UAEXXZ 100053d0 f i Body.obj
 0001:000043d0       ?_Lock@?$basic_streambuf@DU?$char_traits@D@std@@@std@@UAEXXZ 100053d0 f i ArmorTypeClass.obj
 0001:000043d0       ?_Lock@?$basic_streambuf@_WU?$char_traits@_W@std@@@std@@UAEXXZ 100053d0 f i PhobosToolTip.obj
 0001:000043d0       ?_Unlock@?$basic_streambuf@DU?$char_traits@D@std@@@std@@UAEXXZ 100053d0 f i ArmorTypeClass.obj
 0001:000043d0       ?_Unlock@?$basic_streambuf@_WU?$char_traits@_W@std@@@std@@UAEXXZ 100053d0 f i PhobosToolTip.obj
 0001:000043d0       @_guard_check_icall_nop@4  100053d0 f i LIBCMT:guard_support.obj
 0001:000043e0       ?InvalidateExtDataIgnorable@?$Container@VAITriggerTypeExt@@@@MBE_NQAX@Z 100053e0 f i Body.obj
 0001:000043e0       ?InvalidateExtDataIgnorable@?$Container@VAnimExt@@@@MBE_NQAX@Z 100053e0 f i Body.obj
 0001:000043e0       ?InvalidateExtDataIgnorable@?$Container@VAnimTypeExt@@@@MBE_NQAX@Z 100053e0 f i Body.obj
 0001:000043e0       ?InvalidateExtDataIgnorable@?$Container@VBombExt@@@@MBE_NQAX@Z 100053e0 f i Body.obj
 0001:000043e0       ?InvalidateExtDataIgnorable@?$Container@VBuildingExt@@@@MBE_NQAX@Z 100053e0 f i Body.obj
 0001:000043e0       ?InvalidateExtDataIgnorable@?$Container@VBuildingTypeExt@@@@MBE_NQAX@Z 100053e0 f i Body.obj
 0001:000043e0       ?InvalidateExtDataIgnorable@?$Container@VBulletExt@@@@MBE_NQAX@Z 100053e0 f i Body.obj
 0001:000043e0       ?InvalidateExtDataIgnorable@?$Container@VBulletTypeExt@@@@MBE_NQAX@Z 100053e0 f i Body.obj
 0001:000043e0       ?InvalidateExtDataIgnorable@?$Container@VCaptureExt@@@@MBE_NQAX@Z 100053e0 f i Body.obj
 0001:000043e0       ?InvalidateExtDataIgnorable@?$Container@VCellExt@@@@MBE_NQAX@Z 100053e0 f i Body.obj
 0001:000043e0       ?InvalidateExtDataIgnorable@?$Container@VHouseExt@@@@MBE_NQAX@Z 100053e0 f i Body.obj
 0001:000043e0       ?InvalidateExtDataIgnorable@?$Container@VParasiteExt@@@@MBE_NQAX@Z 100053e0 f i Body.obj
 0001:000043e0       ?InvalidateExtDataIgnorable@?$Container@VParticleExt@@@@MBE_NQAX@Z 100053e0 f i Body.obj
 0001:000043e0       ?InvalidateExtDataIgnorable@?$Container@VParticleTypeExt@@@@MBE_NQAX@Z 100053e0 f i Body.obj
 0001:000043e0       ?InvalidateExtDataIgnorable@?$Container@VRadSiteExt@@@@MBE_NQAX@Z 100053e0 f i Body.obj
 0001:000043e0       ?InvalidateExtDataIgnorable@?$Container@VSWTypeExt@@@@MBE_NQAX@Z 100053e0 f i Body.obj
 0001:000043e0       ?InvalidateExtDataIgnorable@?$Container@VScriptExt@@@@MBE_NQAX@Z 100053e0 f i Body.obj
 0001:000043e0       ?InvalidateExtDataIgnorable@?$Container@VScriptTypeExt@@@@MBE_NQAX@Z 100053e0 f i Body.obj
 0001:000043e0       ?InvalidateExtDataIgnorable@?$Container@VSideExt@@@@MBE_NQAX@Z 100053e0 f i Body.obj
 0001:000043e0       ?InvalidateExtDataIgnorable@?$Container@VSmudgeTypeExt@@@@MBE_NQAX@Z 100053e0 f i Body.obj
 0001:000043e0       ?InvalidateExtDataIgnorable@?$Container@VSuperExt@@@@MBE_NQAX@Z 100053e0 f i Body.obj
 0001:000043e0       ?InvalidateExtDataIgnorable@?$Container@VTActionExt@@@@MBE_NQAX@Z 100053e0 f i Body.obj
 0001:000043e0       ?InvalidateExtDataIgnorable@?$Container@VTEventExt@@@@MBE_NQAX@Z 100053e0 f i Body.obj
 0001:000043e0       ?InvalidateExtDataIgnorable@?$Container@VTeamExt@@@@MBE_NQAX@Z 100053e0 f i Body.obj
 0001:000043e0       ?InvalidateExtDataIgnorable@?$Container@VTeamTypeExt@@@@MBE_NQAX@Z 100053e0 f i Body.obj
 0001:000043e0       ?InvalidateExtDataIgnorable@?$Container@VTechnoExt@@@@MBE_NQAX@Z 100053e0 f i Body.obj
 0001:000043e0       ?InvalidateExtDataIgnorable@?$Container@VTechnoTypeExt@@@@MBE_NQAX@Z 100053e0 f i Body.obj
 0001:000043e0       ?InvalidateExtDataIgnorable@?$Container@VTemporalExt@@@@MBE_NQAX@Z 100053e0 f i Body.obj
 0001:000043e0       ?InvalidateExtDataIgnorable@?$Container@VTerrainExt@@@@MBE_NQAX@Z 100053e0 f i Body.obj
 0001:000043e0       ?InvalidateExtDataIgnorable@?$Container@VTerrainTypeExt@@@@MBE_NQAX@Z 100053e0 f i Body.obj
 0001:000043e0       ?InvalidateExtDataIgnorable@?$Container@VTiberiumExt@@@@MBE_NQAX@Z 100053e0 f i Body.obj
 0001:000043e0       ?InvalidateExtDataIgnorable@?$Container@VVoxelAnimExt@@@@MBE_NQAX@Z 100053e0 f i Body.obj
 0001:000043e0       ?InvalidateExtDataIgnorable@?$Container@VVoxelAnimTypeExt@@@@MBE_NQAX@Z 100053e0 f i Body.obj
 0001:000043e0       ?InvalidateExtDataIgnorable@?$Container@VWarheadTypeExt@@@@MBE_NQAX@Z 100053e0 f i Body.obj
 0001:000043e0       ?InvalidateExtDataIgnorable@?$Container@VWeaponTypeExt@@@@MBE_NQAX@Z 100053e0 f i Body.obj
 0001:000043e0       ?InvalidateExtDataIgnorable@ExtContainer@TechnoExt@@UBE_NQAX@Z 100053e0 f i Body.obj
 0001:000043e0       ?LoadGlobals@TemporalExt@@SG_NAAVPhobosStreamReader@@@Z 100053e0 f i Body.obj
 0001:000043e0       ?SaveGlobals@TemporalExt@@SG_NAAVPhobosStreamWriter@@@Z 100053e0 f i Body.obj
 0001:000043f0       ?InvalidatePointer@?$Container@VAITriggerTypeExt@@@@MAEXPAX_N@Z 100053f0 f i Body.obj
 0001:000043f0       ?InvalidatePointer@?$Container@VAnimExt@@@@MAEXPAX_N@Z 100053f0 f i Body.obj
 0001:000043f0       ?InvalidatePointer@?$Container@VAnimTypeExt@@@@MAEXPAX_N@Z 100053f0 f i Body.obj
 0001:000043f0       ?InvalidatePointer@?$Container@VBombExt@@@@MAEXPAX_N@Z 100053f0 f i Body.obj
 0001:000043f0       ?InvalidatePointer@?$Container@VBuildingExt@@@@MAEXPAX_N@Z 100053f0 f i Body.obj
 0001:000043f0       ?InvalidatePointer@?$Container@VBuildingTypeExt@@@@MAEXPAX_N@Z 100053f0 f i Body.obj
 0001:000043f0       ?InvalidatePointer@?$Container@VBulletExt@@@@MAEXPAX_N@Z 100053f0 f i Body.obj
 0001:000043f0       ?InvalidatePointer@?$Container@VBulletTypeExt@@@@MAEXPAX_N@Z 100053f0 f i Body.obj
 0001:000043f0       ?InvalidatePointer@?$Container@VCaptureExt@@@@MAEXPAX_N@Z 100053f0 f i Body.obj
 0001:000043f0       ?InvalidatePointer@?$Container@VCellExt@@@@MAEXPAX_N@Z 100053f0 f i Body.obj
 0001:000043f0       ?InvalidatePointer@?$Container@VHouseExt@@@@MAEXPAX_N@Z 100053f0 f i Body.obj
 0001:000043f0       ?InvalidatePointer@?$Container@VParasiteExt@@@@MAEXPAX_N@Z 100053f0 f i Body.obj
 0001:000043f0       ?InvalidatePointer@?$Container@VParticleExt@@@@MAEXPAX_N@Z 100053f0 f i Body.obj
 0001:000043f0       ?InvalidatePointer@?$Container@VParticleTypeExt@@@@MAEXPAX_N@Z 100053f0 f i Body.obj
 0001:000043f0       ?InvalidatePointer@?$Container@VRadSiteExt@@@@MAEXPAX_N@Z 100053f0 f i Body.obj
 0001:000043f0       ?InvalidatePointer@?$Container@VSWTypeExt@@@@MAEXPAX_N@Z 100053f0 f i Body.obj
 0001:000043f0       ?InvalidatePointer@?$Container@VScriptExt@@@@MAEXPAX_N@Z 100053f0 f i Body.obj
 0001:000043f0       ?InvalidatePointer@?$Container@VScriptTypeExt@@@@MAEXPAX_N@Z 100053f0 f i Body.obj
 0001:000043f0       ?InvalidatePointer@?$Container@VSideExt@@@@MAEXPAX_N@Z 100053f0 f i Body.obj
 0001:000043f0       ?InvalidatePointer@?$Container@VSmudgeTypeExt@@@@MAEXPAX_N@Z 100053f0 f i Body.obj
 0001:000043f0       ?InvalidatePointer@?$Container@VSuperExt@@@@MAEXPAX_N@Z 100053f0 f i Body.obj
 0001:000043f0       ?InvalidatePointer@?$Container@VTActionExt@@@@MAEXPAX_N@Z 100053f0 f i Body.obj
 0001:000043f0       ?InvalidatePointer@?$Container@VTEventExt@@@@MAEXPAX_N@Z 100053f0 f i Body.obj
 0001:000043f0       ?InvalidatePointer@?$Container@VTeamExt@@@@MAEXPAX_N@Z 100053f0 f i Body.obj
 0001:000043f0       ?InvalidatePointer@?$Container@VTeamTypeExt@@@@MAEXPAX_N@Z 100053f0 f i Body.obj
 0001:000043f0       ?InvalidatePointer@?$Container@VTechnoExt@@@@MAEXPAX_N@Z 100053f0 f i Body.obj
 0001:000043f0       ?InvalidatePointer@?$Container@VTechnoTypeExt@@@@MAEXPAX_N@Z 100053f0 f i Body.obj
 0001:000043f0       ?InvalidatePointer@?$Container@VTemporalExt@@@@MAEXPAX_N@Z 100053f0 f i Body.obj
 0001:000043f0       ?InvalidatePointer@?$Container@VTerrainExt@@@@MAEXPAX_N@Z 100053f0 f i Body.obj
 0001:000043f0       ?InvalidatePointer@?$Container@VTerrainTypeExt@@@@MAEXPAX_N@Z 100053f0 f i Body.obj
 0001:000043f0       ?InvalidatePointer@?$Container@VTiberiumExt@@@@MAEXPAX_N@Z 100053f0 f i Body.obj
 0001:000043f0       ?InvalidatePointer@?$Container@VVoxelAnimExt@@@@MAEXPAX_N@Z 100053f0 f i Body.obj
 0001:000043f0       ?InvalidatePointer@?$Container@VVoxelAnimTypeExt@@@@MAEXPAX_N@Z 100053f0 f i Body.obj
 0001:000043f0       ?InvalidatePointer@?$Container@VWarheadTypeExt@@@@MAEXPAX_N@Z 100053f0 f i Body.obj
 0001:000043f0       ?InvalidatePointer@?$Container@VWeaponTypeExt@@@@MAEXPAX_N@Z 100053f0 f i Body.obj
 0001:000043f0       ?InvalidatePointer@ArtilleryTrajectory@@UAEXPAX_N@Z 100053f0 f i PhobosTrajectory.obj
 0001:000043f0       ?InvalidatePointer@ArtilleryTrajectoryType@@UAEXPAX_N@Z 100053f0 f i PhobosTrajectory.obj
 0001:000043f0       ?InvalidatePointer@BombardTrajectory@@UAEXPAX_N@Z 100053f0 f i PhobosTrajectory.obj
 0001:000043f0       ?InvalidatePointer@BombardTrajectoryType@@UAEXPAX_N@Z 100053f0 f i PhobosTrajectory.obj
 0001:000043f0       ?InvalidatePointer@BounceTrajectory@@UAEXPAX_N@Z 100053f0 f i PhobosTrajectory.obj
 0001:000043f0       ?InvalidatePointer@BounceTrajectoryType@@UAEXPAX_N@Z 100053f0 f i PhobosTrajectory.obj
 0001:000043f0       ?InvalidatePointer@ExtContainer@AnimTypeExt@@UAEXPAX_N@Z 100053f0 f i Body.obj
 0001:000043f0       ?InvalidatePointer@ExtContainer@BuildingExt@@UAEXPAX_N@Z 100053f0 f i Body.obj
 0001:000043f0       ?InvalidatePointer@ExtContainer@BuildingTypeExt@@UAEXPAX_N@Z 100053f0 f i Body.obj
 0001:000043f0       ?InvalidatePointer@ExtContainer@BulletTypeExt@@UAEXPAX_N@Z 100053f0 f i Body.obj
 0001:000043f0       ?InvalidatePointer@ExtContainer@ParticleTypeExt@@UAEXPAX_N@Z 100053f0 f i Body.obj
 0001:000043f0       ?InvalidatePointer@ExtContainer@RadSiteExt@@UAEXPAX_N@Z 100053f0 f i Body.obj
 0001:000043f0       ?InvalidatePointer@ExtContainer@ScriptExt@@UAEXPAX_N@Z 100053f0 f i Body.obj
 0001:000043f0       ?InvalidatePointer@ExtContainer@ScriptTypeExt@@UAEXPAX_N@Z 100053f0 f i Body.obj
 0001:000043f0       ?InvalidatePointer@ExtContainer@SideExt@@UAEXPAX_N@Z 100053f0 f i Body.obj
 0001:000043f0       ?InvalidatePointer@ExtContainer@SuperExt@@UAEXPAX_N@Z 100053f0 f i Body.obj
 0001:000043f0       ?InvalidatePointer@ExtContainer@TeamExt@@UAEXPAX_N@Z 100053f0 f i Body.obj
 0001:000043f0       ?InvalidatePointer@ExtContainer@TechnoTypeExt@@UAEXPAX_N@Z 100053f0 f i Body.obj
 0001:000043f0       ?InvalidatePointer@ExtContainer@TemporalExt@@UAEXPAX_N@Z 100053f0 f i Body.obj
 0001:000043f0       ?InvalidatePointer@ExtContainer@TerrainExt@@UAEXPAX_N@Z 100053f0 f i Body.obj
 0001:000043f0       ?InvalidatePointer@ExtContainer@VoxelAnimExt@@UAEXPAX_N@Z 100053f0 f i Body.obj
 0001:000043f0       ?InvalidatePointer@ExtContainer@VoxelAnimTypeExt@@UAEXPAX_N@Z 100053f0 f i Body.obj
 0001:000043f0       ?InvalidatePointer@ExtContainer@WarheadTypeExt@@UAEXPAX_N@Z 100053f0 f i Body.obj
 0001:000043f0       ?InvalidatePointer@ExtData@AITriggerTypeExt@@UAEXPAX_N@Z 100053f0 f i Body.obj
 0001:000043f0       ?InvalidatePointer@ExtData@AnimTypeExt@@UAEXPAX_N@Z 100053f0 f i Body.obj
 0001:000043f0       ?InvalidatePointer@ExtData@BombExt@@UAEXPAX_N@Z 100053f0 f i Body.obj
 0001:000043f0       ?InvalidatePointer@ExtData@BuildingTypeExt@@UAEXPAX_N@Z 100053f0 f i Body.obj
 0001:000043f0       ?InvalidatePointer@ExtData@CaptureExt@@UAEXPAX_N@Z 100053f0 f i Body.obj
 0001:000043f0       ?InvalidatePointer@ExtData@CellExt@@UAEXPAX_N@Z 100053f0 f i Body.obj
 0001:000043f0       ?InvalidatePointer@ExtData@ParasiteExt@@UAEXPAX_N@Z 100053f0 f i Body.obj
 0001:000043f0       ?InvalidatePointer@ExtData@ParticleExt@@UAEXPAX_N@Z 100053f0 f i Body.obj
 0001:000043f0       ?InvalidatePointer@ExtData@ParticleTypeExt@@UAEXPAX_N@Z 100053f0 f i Body.obj
 0001:000043f0       ?InvalidatePointer@ExtData@RulesExt@@UAEXPAX_N@Z 100053f0 f i Body.obj
 0001:000043f0       ?InvalidatePointer@ExtData@SWTypeExt@@UAEXPAX_N@Z 100053f0 f i Body.obj
 0001:000043f0       ?InvalidatePointer@ExtData@ScenarioExt@@UAEXPAX_N@Z 100053f0 f i Body.obj
 0001:000043f0       ?InvalidatePointer@ExtData@ScriptExt@@UAEXPAX_N@Z 100053f0 f i Body.obj
 0001:000043f0       ?InvalidatePointer@ExtData@ScriptTypeExt@@UAEXPAX_N@Z 100053f0 f i Body.obj
 0001:000043f0       ?InvalidatePointer@ExtData@SideExt@@UAEXPAX_N@Z 100053f0 f i Body.obj
 0001:000043f0       ?InvalidatePointer@ExtData@SidebarExt@@UAEXPAX_N@Z 100053f0 f i Body.obj
 0001:000043f0       ?InvalidatePointer@ExtData@SmudgeTypeExt@@UAEXPAX_N@Z 100053f0 f i Body.obj
 0001:000043f0       ?InvalidatePointer@ExtData@SuperExt@@UAEXPAX_N@Z 100053f0 f i Body.obj
 0001:000043f0       ?InvalidatePointer@ExtData@TActionExt@@UAEXPAX_N@Z 100053f0 f i Body.obj
 0001:000043f0       ?InvalidatePointer@ExtData@TEventExt@@UAEXPAX_N@Z 100053f0 f i Body.obj
 0001:000043f0       ?InvalidatePointer@ExtData@TeamTypeExt@@UAEXPAX_N@Z 100053f0 f i Body.obj
 0001:000043f0       ?InvalidatePointer@ExtData@TechnoTypeExt@@UAEXPAX_N@Z 100053f0 f i Body.obj
 0001:000043f0       ?InvalidatePointer@ExtData@TemporalExt@@UAEXPAX_N@Z 100053f0 f i Body.obj
 0001:000043f0       ?InvalidatePointer@ExtData@TerrainTypeExt@@UAEXPAX_N@Z 100053f0 f i Body.obj
 0001:000043f0       ?InvalidatePointer@ExtData@TiberiumExt@@UAEXPAX_N@Z 100053f0 f i Body.obj
 0001:000043f0       ?InvalidatePointer@ExtData@VoxelAnimTypeExt@@UAEXPAX_N@Z 100053f0 f i Body.obj
 0001:000043f0       ?InvalidatePointer@ExtData@WarheadTypeExt@@UAEXPAX_N@Z 100053f0 f i Body.obj
 0001:000043f0       ?InvalidatePointer@ExtData@WeaponTypeExt@@UAEXPAX_N@Z 100053f0 f i Body.obj
 0001:000043f0       ?InvalidatePointer@PhobosTrajectory@@UAEXPAX_N@Z 100053f0 f i PhobosTrajectory.obj
 0001:000043f0       ?InvalidatePointer@StraightTrajectory@@UAEXPAX_N@Z 100053f0 f i PhobosTrajectory.obj
 0001:000043f0       ?InvalidatePointer@StraightTrajectoryType@@UAEXPAX_N@Z 100053f0 f i PhobosTrajectory.obj
 0001:000043f0       ?OnFire@ShieldClass@@UAEXPAVAbstractClass@@H@Z 100053f0 f i Body.obj
 0001:000043f0       ?PointerGotInvalid@VerticalLaserClass@@SGXPAX_N@Z 100053f0 f i VerticalLaserClass.obj
 0001:00004400       ?IsAlliedWith@HouseClass@@QBE_NPBV1@@Z 10005400 f i Body.obj
 0001:00004420       ?Load@?$Container@VAITriggerTypeExt@@@@MAE_NPAVAITriggerTypeClass@@PAUIStream@@@Z 10005420 f i Body.obj
 0001:000045b0       ?LoadFromINI@?$Enumerable@VArmorTypeClass@@@@UAEXPAVCCINIClass@@@Z 100055b0 f i ArmorTypeClass.obj
 0001:000045b0       ?LoadFromINI@?$Enumerable@VHoverTypeClass@@@@UAEXPAVCCINIClass@@@Z 100055b0 f i Hooks.Hover.obj
 0001:000045b0       ?LoadFromINI@?$Enumerable@VLaserTrailTypeClass@@@@UAEXPAVCCINIClass@@@Z 100055b0 f i Body.obj
 0001:000045b0       ?LoadFromINI@?$Enumerable@VRadTypeClass@@@@UAEXPAVCCINIClass@@@Z 100055b0 f i RadTypeClass.obj
 0001:000045b0       ?LoadFromINI@?$Enumerable@VShieldTypeClass@@@@UAEXPAVCCINIClass@@@Z 100055b0 f i Body.obj
 0001:000045b0       ?LoadFromINI@?$Enumerable@VTrailType@@@@UAEXPAVCCINIClass@@@Z 100055b0 f i Body.obj
 0001:000045b0       ?LoadFromINIFile@?$Extension@VAITriggerTypeClass@@@@MAEXPAVCCINIClass@@@Z 100055b0 f i Body.obj
 0001:000045b0       ?LoadFromINIFile@?$Extension@VAnimClass@@@@MAEXPAVCCINIClass@@@Z 100055b0 f i Body.obj
 0001:000045b0       ?LoadFromINIFile@?$Extension@VBombClass@@@@MAEXPAVCCINIClass@@@Z 100055b0 f i Body.obj
 0001:000045b0       ?LoadFromINIFile@?$Extension@VBuildingClass@@@@MAEXPAVCCINIClass@@@Z 100055b0 f i Body.obj
 0001:000045b0       ?LoadFromINIFile@?$Extension@VBulletClass@@@@MAEXPAVCCINIClass@@@Z 100055b0 f i Body.obj
 0001:000045b0       ?LoadFromINIFile@?$Extension@VCaptureManagerClass@@@@MAEXPAVCCINIClass@@@Z 100055b0 f i Body.obj
 0001:000045b0       ?LoadFromINIFile@?$Extension@VCellClass@@@@MAEXPAVCCINIClass@@@Z 100055b0 f i Body.obj
 0001:000045b0       ?LoadFromINIFile@?$Extension@VHouseClass@@@@MAEXPAVCCINIClass@@@Z 100055b0 f i Body.obj
 0001:000045b0       ?LoadFromINIFile@?$Extension@VParasiteClass@@@@MAEXPAVCCINIClass@@@Z 100055b0 f i Body.obj
 0001:000045b0       ?LoadFromINIFile@?$Extension@VParticleClass@@@@MAEXPAVCCINIClass@@@Z 100055b0 f i Body.obj
 0001:000045b0       ?LoadFromINIFile@?$Extension@VRadSiteClass@@@@MAEXPAVCCINIClass@@@Z 100055b0 f i Body.obj
 0001:000045b0       ?LoadFromINIFile@?$Extension@VScriptClass@@@@MAEXPAVCCINIClass@@@Z 100055b0 f i Body.obj
 0001:000045b0       ?LoadFromINIFile@?$Extension@VSidebarClass@@@@MAEXPAVCCINIClass@@@Z 100055b0 f i Body.obj
 0001:000045b0       ?LoadFromINIFile@?$Extension@VSuperClass@@@@MAEXPAVCCINIClass@@@Z 100055b0 f i Body.obj
 0001:000045b0       ?LoadFromINIFile@?$Extension@VTActionClass@@@@MAEXPAVCCINIClass@@@Z 100055b0 f i Body.obj
 0001:000045b0       ?LoadFromINIFile@?$Extension@VTEventClass@@@@MAEXPAVCCINIClass@@@Z 100055b0 f i Body.obj
 0001:000045b0       ?LoadFromINIFile@?$Extension@VTeamClass@@@@MAEXPAVCCINIClass@@@Z 100055b0 f i Body.obj
 0001:000045b0       ?LoadFromINIFile@?$Extension@VTechnoClass@@@@MAEXPAVCCINIClass@@@Z 100055b0 f i Body.obj
 0001:000045b0       ?LoadFromINIFile@?$Extension@VTemporalClass@@@@MAEXPAVCCINIClass@@@Z 100055b0 f i Body.obj
 0001:000045b0       ?LoadFromINIFile@?$Extension@VTerrainClass@@@@MAEXPAVCCINIClass@@@Z 100055b0 f i Body.obj
 0001:000045b0       ?LoadFromINIFile@?$Extension@VVoxelAnimClass@@@@MAEXPAVCCINIClass@@@Z 100055b0 f i Body.obj
 0001:000045b0       ?LoadFromINIFile@ExtData@RulesExt@@UAEXPAVCCINIClass@@@Z 100055b0 f i Body.obj
 0001:000045b0       ?LoadFromRulesFile@?$Extension@VAITriggerTypeClass@@@@MAEXPAVCCINIClass@@@Z 100055b0 f i Body.obj
 0001:000045b0       ?LoadFromRulesFile@?$Extension@VAnimClass@@@@MAEXPAVCCINIClass@@@Z 100055b0 f i Body.obj
 0001:000045b0       ?LoadFromRulesFile@?$Extension@VAnimTypeClass@@@@MAEXPAVCCINIClass@@@Z 100055b0 f i Body.obj
 0001:000045b0       ?LoadFromRulesFile@?$Extension@VBombClass@@@@MAEXPAVCCINIClass@@@Z 100055b0 f i Body.obj
 0001:000045b0       ?LoadFromRulesFile@?$Extension@VBuildingClass@@@@MAEXPAVCCINIClass@@@Z 100055b0 f i Body.obj
 0001:000045b0       ?LoadFromRulesFile@?$Extension@VBuildingTypeClass@@@@MAEXPAVCCINIClass@@@Z 100055b0 f i Body.obj
 0001:000045b0       ?LoadFromRulesFile@?$Extension@VBulletClass@@@@MAEXPAVCCINIClass@@@Z 100055b0 f i Body.obj
 0001:000045b0       ?LoadFromRulesFile@?$Extension@VBulletTypeClass@@@@MAEXPAVCCINIClass@@@Z 100055b0 f i Body.obj
 0001:000045b0       ?LoadFromRulesFile@?$Extension@VCaptureManagerClass@@@@MAEXPAVCCINIClass@@@Z 100055b0 f i Body.obj
 0001:000045b0       ?LoadFromRulesFile@?$Extension@VCellClass@@@@MAEXPAVCCINIClass@@@Z 100055b0 f i Body.obj
 0001:000045b0       ?LoadFromRulesFile@?$Extension@VHouseClass@@@@MAEXPAVCCINIClass@@@Z 100055b0 f i Body.obj
 0001:000045b0       ?LoadFromRulesFile@?$Extension@VParasiteClass@@@@MAEXPAVCCINIClass@@@Z 100055b0 f i Body.obj
 0001:000045b0       ?LoadFromRulesFile@?$Extension@VParticleClass@@@@MAEXPAVCCINIClass@@@Z 100055b0 f i Body.obj
 0001:000045b0       ?LoadFromRulesFile@?$Extension@VParticleTypeClass@@@@MAEXPAVCCINIClass@@@Z 100055b0 f i Body.obj
 0001:000045b0       ?LoadFromRulesFile@?$Extension@VRadSiteClass@@@@MAEXPAVCCINIClass@@@Z 100055b0 f i Body.obj
 0001:000045b0       ?LoadFromRulesFile@?$Extension@VRulesClass@@@@MAEXPAVCCINIClass@@@Z 100055b0 f i Body.obj
 0001:000045b0       ?LoadFromRulesFile@?$Extension@VScenarioClass@@@@MAEXPAVCCINIClass@@@Z 100055b0 f i Body.obj
 0001:000045b0       ?LoadFromRulesFile@?$Extension@VScriptClass@@@@MAEXPAVCCINIClass@@@Z 100055b0 f i Body.obj
 0001:000045b0       ?LoadFromRulesFile@?$Extension@VScriptTypeClass@@@@MAEXPAVCCINIClass@@@Z 100055b0 f i Body.obj
 0001:000045b0       ?LoadFromRulesFile@?$Extension@VSideClass@@@@MAEXPAVCCINIClass@@@Z 100055b0 f i Body.obj
 0001:000045b0       ?LoadFromRulesFile@?$Extension@VSidebarClass@@@@MAEXPAVCCINIClass@@@Z 100055b0 f i Body.obj
 0001:000045b0       ?LoadFromRulesFile@?$Extension@VSmudgeTypeClass@@@@MAEXPAVCCINIClass@@@Z 100055b0 f i Body.obj
 0001:000045b0       ?LoadFromRulesFile@?$Extension@VSuperClass@@@@MAEXPAVCCINIClass@@@Z 100055b0 f i Body.obj
 0001:000045b0       ?LoadFromRulesFile@?$Extension@VSuperWeaponTypeClass@@@@MAEXPAVCCINIClass@@@Z 100055b0 f i Body.obj
 0001:000045b0       ?LoadFromRulesFile@?$Extension@VTActionClass@@@@MAEXPAVCCINIClass@@@Z 100055b0 f i Body.obj
 0001:000045b0       ?LoadFromRulesFile@?$Extension@VTEventClass@@@@MAEXPAVCCINIClass@@@Z 100055b0 f i Body.obj
 0001:000045b0       ?LoadFromRulesFile@?$Extension@VTeamClass@@@@MAEXPAVCCINIClass@@@Z 100055b0 f i Body.obj
 0001:000045b0       ?LoadFromRulesFile@?$Extension@VTeamTypeClass@@@@MAEXPAVCCINIClass@@@Z 100055b0 f i Body.obj
 0001:000045b0       ?LoadFromRulesFile@?$Extension@VTechnoClass@@@@MAEXPAVCCINIClass@@@Z 100055b0 f i Body.obj
 0001:000045b0       ?LoadFromRulesFile@?$Extension@VTechnoTypeClass@@@@MAEXPAVCCINIClass@@@Z 100055b0 f i Body.obj
 0001:000045b0       ?LoadFromRulesFile@?$Extension@VTemporalClass@@@@MAEXPAVCCINIClass@@@Z 100055b0 f i Body.obj
 0001:000045b0       ?LoadFromRulesFile@?$Extension@VTerrainClass@@@@MAEXPAVCCINIClass@@@Z 100055b0 f i Body.obj
 0001:000045b0       ?LoadFromRulesFile@?$Extension@VTerrainTypeClass@@@@MAEXPAVCCINIClass@@@Z 100055b0 f i Body.obj
 0001:000045b0       ?LoadFromRulesFile@?$Extension@VTiberiumClass@@@@MAEXPAVCCINIClass@@@Z 100055b0 f i Body.obj
 0001:000045b0       ?LoadFromRulesFile@?$Extension@VVoxelAnimClass@@@@MAEXPAVCCINIClass@@@Z 100055b0 f i Body.obj
 0001:000045b0       ?LoadFromRulesFile@?$Extension@VVoxelAnimTypeClass@@@@MAEXPAVCCINIClass@@@Z 100055b0 f i Body.obj
 0001:000045b0       ?LoadFromRulesFile@?$Extension@VWarheadTypeClass@@@@MAEXPAVCCINIClass@@@Z 100055b0 f i Body.obj
 0001:000045b0       ?LoadFromRulesFile@?$Extension@VWeaponTypeClass@@@@MAEXPAVCCINIClass@@@Z 100055b0 f i Body.obj
 0001:000045b0       ?OnAIPreDetonate@ArtilleryTrajectory@@UAEXPAVBulletClass@@@Z 100055b0 f i ArtilleryTrajectory.obj
 0001:000045b0       ?OnAIPreDetonate@BombardTrajectory@@UAEXPAVBulletClass@@@Z 100055b0 f i BombardTrajectory.obj
 0001:000045b0       ?OnAIPreDetonate@BounceTrajectory@@UAEXPAVBulletClass@@@Z 100055b0 f i BounceTrajectory.obj
 0001:000045b0       ?OnDetonate@ShieldClass@@UAEXPAUCoordStruct@@@Z 100055b0 f i Body.obj
 0001:000045b0       ?OnSelect@ShieldClass@@UAEXAA_N@Z 100055b0 f i Body.obj
 0001:000045b0       ?imbue@?$basic_streambuf@DU?$char_traits@D@std@@@std@@MAEXABVlocale@2@@Z 100055b0 f i ArmorTypeClass.obj
 0001:000045b0       ?imbue@?$basic_streambuf@_WU?$char_traits@_W@std@@@std@@MAEXABVlocale@2@@Z 100055b0 f i PhobosToolTip.obj
 0001:000045c0       ?LoadFromStream@ExtData@AITriggerTypeExt@@UAEXAAVPhobosStreamReader@@@Z 100055c0 f   Body.obj
 0001:000045c0       ?LoadFromStream@ExtData@BombExt@@UAEXAAVPhobosStreamReader@@@Z 100055c0 f   Body.obj
 0001:000045c0       ?LoadFromStream@ExtData@CaptureExt@@UAEXAAVPhobosStreamReader@@@Z 100055c0 f   Body.obj
 0001:000045c0       ?LoadFromStream@ExtData@CellExt@@UAEXAAVPhobosStreamReader@@@Z 100055c0 f   Body.obj
 0001:000045c0       ?LoadFromStream@ExtData@ScriptExt@@UAEXAAVPhobosStreamReader@@@Z 100055c0 f   Body.obj
 0001:000045c0       ?LoadFromStream@ExtData@SidebarExt@@UAEXAAVPhobosStreamReader@@@Z 100055c0 f   Body.obj
 0001:000045c0       ?LoadFromStream@ExtData@SuperExt@@UAEXAAVPhobosStreamReader@@@Z 100055c0 f   Body.obj
 0001:000045c0       ?LoadFromStream@ExtData@TEventExt@@UAEXAAVPhobosStreamReader@@@Z 100055c0 f   Body.obj
 0001:000045e0       ?ProcessCondition@AITriggerTypeExt@@SGXPAVAITriggerTypeClass@@PAVHouseClass@@HH@Z 100055e0 f   Body.obj
 0001:00004610       ?ReadCustomizableAICondition@AITriggerTypeExt@@SG_NPAVHouseClass@@HHHPAVTechnoTypeClass@@@Z 10005610 f   Body.obj
 0001:000046b0       ?Save@?$Container@VAITriggerTypeExt@@@@MAE_NPAVAITriggerTypeClass@@PAUIStream@@@Z 100056b0 f i Body.obj
 0001:000047b0       ?SaveToStream@ExtData@AITriggerTypeExt@@UAEXAAVPhobosStreamWriter@@@Z 100057b0 f   Body.obj
 0001:000047b0       ?SaveToStream@ExtData@BombExt@@UAEXAAVPhobosStreamWriter@@@Z 100057b0 f   Body.obj
 0001:000047b0       ?SaveToStream@ExtData@CaptureExt@@UAEXAAVPhobosStreamWriter@@@Z 100057b0 f   Body.obj
 0001:000047b0       ?SaveToStream@ExtData@CellExt@@UAEXAAVPhobosStreamWriter@@@Z 100057b0 f   Body.obj
 0001:000047b0       ?SaveToStream@ExtData@ScriptExt@@UAEXAAVPhobosStreamWriter@@@Z 100057b0 f   Body.obj
 0001:000047b0       ?SaveToStream@ExtData@SidebarExt@@UAEXAAVPhobosStreamWriter@@@Z 100057b0 f   Body.obj
 0001:000047b0       ?SaveToStream@ExtData@SuperExt@@UAEXAAVPhobosStreamWriter@@@Z 100057b0 f   Body.obj
 0001:000047b0       ?SaveToStream@ExtData@TEventExt@@UAEXAAVPhobosStreamWriter@@@Z 100057b0 f   Body.obj
 0001:000047d0       ?SetCapacity@?$DynamicVectorClass@V?$DynamicVectorClass@V?$basic_string@DU?$char_traits@D@std@@V?$allocator@D@2@@std@@@@@@UAE_NHPAV?$DynamicVectorClass@V?$basic_string@DU?$char_traits@D@std@@V?$allocator@D@2@@std@@@@@Z 100057d0 f i Body.obj
 0001:00004930       ?SetCapacity@?$DynamicVectorClass@V?$basic_string@DU?$char_traits@D@std@@V?$allocator@D@2@@std@@@@UAE_NHPAV?$basic_string@DU?$char_traits@D@std@@V?$allocator@D@2@@std@@@Z 10005930 f i Body.obj
 0001:00004a40       ?SetCapacity@?$VectorClass@V?$DynamicVectorClass@V?$basic_string@DU?$char_traits@D@std@@V?$allocator@D@2@@std@@@@@@UAE_NHPAV?$DynamicVectorClass@V?$basic_string@DU?$char_traits@D@std@@V?$allocator@D@2@@std@@@@@Z 10005a40 f i Body.obj
 0001:00004b90       ?SetCapacity@?$VectorClass@V?$basic_string@DU?$char_traits@D@std@@V?$allocator@D@2@@std@@@@UAE_NHPAV?$basic_string@DU?$char_traits@D@std@@V?$allocator@D@2@@std@@@Z 10005b90 f i Body.obj
 0001:00004c90       ?_Throw_bad_array_new_length@std@@YGXXZ 10005c90 f i Body.obj
 0001:00004cb0       ??1?$basic_string@DU?$char_traits@D@std@@V?$allocator@D@2@@std@@QAE@XZ 10005cb0 f i Body.obj
 0001:00004cb0       ?_Tidy_deallocate@?$basic_string@DU?$char_traits@D@std@@V?$allocator@D@2@@std@@AAEXXZ 10005cb0 f i Body.obj
 0001:00004d00       ?_Xlen_string@std@@YGXXZ   10005d00 f i Body.obj
 0001:00004d10       ?_Xlength@?$vector@DV?$allocator@D@std@@@std@@CGXXZ 10005d10 f i Body.obj
 0001:00004d10       ?_Xlength@?$vector@EV?$allocator@E@std@@@std@@CGXXZ 10005d10 f i LodePNG.obj
 0001:00004d10       ?_Xlength@?$vector@HV?$allocator@H@std@@@std@@CGXXZ 10005d10 f i Body.obj
 0001:00004d10       ?_Xlength@?$vector@MV?$allocator@M@std@@@std@@CGXXZ 10005d10 f i Body.obj
 0001:00004d10       ?_Xlength@?$vector@NV?$allocator@N@std@@@std@@CGXXZ 10005d10 f i Body.obj
 0001:00004d10       ?_Xlength@?$vector@PAVAbstractClass@@V?$allocator@PAVAbstractClass@@@std@@@std@@CGXXZ 10005d10 f i Hooks.obj
 0001:00004d10       ?_Xlength@?$vector@PAVAnimClass@@V?$allocator@PAVAnimClass@@@std@@@std@@CGXXZ 10005d10 f i Body.obj
 0001:00004d10       ?_Xlength@?$vector@PAVAnimTypeClass@@V?$allocator@PAVAnimTypeClass@@@std@@@std@@CGXXZ 10005d10 f i Body.obj
 0001:00004d10       ?_Xlength@?$vector@PAVBuildingClass@@V?$allocator@PAVBuildingClass@@@std@@@std@@CGXXZ 10005d10 f i Body.obj
 0001:00004d10       ?_Xlength@?$vector@PAVBuildingTypeClass@@V?$allocator@PAVBuildingTypeClass@@@std@@@std@@CGXXZ 10005d10 f i Body.obj
 0001:00004d10       ?_Xlength@?$vector@PAVElectricBoltClass@@V?$allocator@PAVElectricBoltClass@@@std@@@std@@CGXXZ 10005d10 f i ElectricBoltClass.obj
 0001:00004d10       ?_Xlength@?$vector@PAVFootClass@@V?$allocator@PAVFootClass@@@std@@@std@@CGXXZ 10005d10 f i Body.obj
 0001:00004d10       ?_Xlength@?$vector@PAVShieldTypeClass@@V?$allocator@PAVShieldTypeClass@@@std@@@std@@CGXXZ 10005d10 f i Body.obj
 0001:00004d10       ?_Xlength@?$vector@PAVTechnoClass@@V?$allocator@PAVTechnoClass@@@std@@@std@@CGXXZ 10005d10 f i Detonate.obj
 0001:00004d10       ?_Xlength@?$vector@PAVTechnoTypeClass@@V?$allocator@PAVTechnoTypeClass@@@std@@@std@@CGXXZ 10005d10 f i Body.obj
 0001:00004d10       ?_Xlength@?$vector@PAVVerticalLaserClass@@V?$allocator@PAVVerticalLaserClass@@@std@@@std@@CGXXZ 10005d10 f i VerticalLaserClass.obj
 0001:00004d10       ?_Xlength@?$vector@PAVWeaponTypeClass@@V?$allocator@PAVWeaponTypeClass@@@std@@@std@@CGXXZ 10005d10 f i Body.obj
 0001:00004d10       ?_Xlength@?$vector@U?$pair@HPAVAnimTypeClass@@@std@@V?$allocator@U?$pair@HPAVAnimTypeClass@@@std@@@2@@std@@CGXXZ 10005d10 f i Body.obj
 0001:00004d10       ?_Xlength@?$vector@U?$pair@PAVEBolt@@PBVExtData@WeaponTypeExt@@@std@@V?$allocator@U?$pair@PAVEBolt@@PBVExtData@WeaponTypeExt@@@std@@@2@@std@@CGXXZ 10005d10 f i Hook.EBolt.obj
 0001:00004d10       ?_Xlength@?$vector@U?$pair@PAVWeaponTypeClass@@VTimerStruct@@@std@@V?$allocator@U?$pair@PAVWeaponTypeClass@@VTimerStruct@@@std@@@2@@std@@CGXXZ 10005d10 f i Body.obj
 0001:00004d10       ?_Xlength@?$vector@U?$pair@PBVAITriggerTypeClass@@PAVExtData@AITriggerTypeExt@@@std@@V?$allocator@U?$pair@PBVAITriggerTypeClass@@PAVExtData@AITriggerTypeExt@@@std@@@2@@std@@CGXXZ 10005d10 f i Body.obj
 0001:00004d10       ?_Xlength@?$vector@U?$pair@PBVAnimClass@@PAVExtData@AnimExt@@@std@@V?$allocator@U?$pair@PBVAnimClass@@PAVExtData@AnimExt@@@std@@@2@@std@@CGXXZ 10005d10 f i Body.obj
 0001:00004d10       ?_Xlength@?$vector@U?$pair@PBVAnimTypeClass@@PAVExtData@AnimTypeExt@@@std@@V?$allocator@U?$pair@PBVAnimTypeClass@@PAVExtData@AnimTypeExt@@@std@@@2@@std@@CGXXZ 10005d10 f i Body.obj
 0001:00004d10       ?_Xlength@?$vector@U?$pair@PBVBombClass@@PAVExtData@BombExt@@@std@@V?$allocator@U?$pair@PBVBombClass@@PAVExtData@BombExt@@@std@@@2@@std@@CGXXZ 10005d10 f i Body.obj
 0001:00004d10       ?_Xlength@?$vector@U?$pair@PBVBuildingClass@@PAVExtData@BuildingExt@@@std@@V?$allocator@U?$pair@PBVBuildingClass@@PAVExtData@BuildingExt@@@std@@@2@@std@@CGXXZ 10005d10 f i Body.obj
 0001:00004d10       ?_Xlength@?$vector@U?$pair@PBVBuildingTypeClass@@PAVExtData@BuildingTypeExt@@@std@@V?$allocator@U?$pair@PBVBuildingTypeClass@@PAVExtData@BuildingTypeExt@@@std@@@2@@std@@CGXXZ 10005d10 f i Body.obj
 0001:00004d10       ?_Xlength@?$vector@U?$pair@PBVBulletClass@@PAVExtData@BulletExt@@@std@@V?$allocator@U?$pair@PBVBulletClass@@PAVExtData@BulletExt@@@std@@@2@@std@@CGXXZ 10005d10 f i Body.obj
 0001:00004d10       ?_Xlength@?$vector@U?$pair@PBVBulletTypeClass@@PAVExtData@BulletTypeExt@@@std@@V?$allocator@U?$pair@PBVBulletTypeClass@@PAVExtData@BulletTypeExt@@@std@@@2@@std@@CGXXZ 10005d10 f i Body.obj
 0001:00004d10       ?_Xlength@?$vector@U?$pair@PBVCaptureManagerClass@@PAVExtData@CaptureExt@@@std@@V?$allocator@U?$pair@PBVCaptureManagerClass@@PAVExtData@CaptureExt@@@std@@@2@@std@@CGXXZ 10005d10 f i Body.obj
 0001:00004d10       ?_Xlength@?$vector@U?$pair@PBVCellClass@@PAVExtData@CellExt@@@std@@V?$allocator@U?$pair@PBVCellClass@@PAVExtData@CellExt@@@std@@@2@@std@@CGXXZ 10005d10 f i Body.obj
 0001:00004d10       ?_Xlength@?$vector@U?$pair@PBVHouseClass@@PAVExtData@HouseExt@@@std@@V?$allocator@U?$pair@PBVHouseClass@@PAVExtData@HouseExt@@@std@@@2@@std@@CGXXZ 10005d10 f i Body.obj
 0001:00004d10       ?_Xlength@?$vector@U?$pair@PBVParasiteClass@@PAVExtData@ParasiteExt@@@std@@V?$allocator@U?$pair@PBVParasiteClass@@PAVExtData@ParasiteExt@@@std@@@2@@std@@CGXXZ 10005d10 f i Body.obj
 0001:00004d10       ?_Xlength@?$vector@U?$pair@PBVParticleClass@@PAVExtData@ParticleExt@@@std@@V?$allocator@U?$pair@PBVParticleClass@@PAVExtData@ParticleExt@@@std@@@2@@std@@CGXXZ 10005d10 f i Body.obj
 0001:00004d10       ?_Xlength@?$vector@U?$pair@PBVParticleTypeClass@@PAVExtData@ParticleTypeExt@@@std@@V?$allocator@U?$pair@PBVParticleTypeClass@@PAVExtData@ParticleTypeExt@@@std@@@2@@std@@CGXXZ 10005d10 f i Body.obj
 0001:00004d10       ?_Xlength@?$vector@U?$pair@PBVRadSiteClass@@PAVExtData@RadSiteExt@@@std@@V?$allocator@U?$pair@PBVRadSiteClass@@PAVExtData@RadSiteExt@@@std@@@2@@std@@CGXXZ 10005d10 f i Body.obj
 0001:00004d10       ?_Xlength@?$vector@U?$pair@PBVScriptClass@@PAVExtData@ScriptExt@@@std@@V?$allocator@U?$pair@PBVScriptClass@@PAVExtData@ScriptExt@@@std@@@2@@std@@CGXXZ 10005d10 f i Body.obj
 0001:00004d10       ?_Xlength@?$vector@U?$pair@PBVScriptTypeClass@@PAVExtData@ScriptTypeExt@@@std@@V?$allocator@U?$pair@PBVScriptTypeClass@@PAVExtData@ScriptTypeExt@@@std@@@2@@std@@CGXXZ 10005d10 f i Body.obj
 0001:00004d10       ?_Xlength@?$vector@U?$pair@PBVSideClass@@PAVExtData@SideExt@@@std@@V?$allocator@U?$pair@PBVSideClass@@PAVExtData@SideExt@@@std@@@2@@std@@CGXXZ 10005d10 f i Body.obj
 0001:00004d10       ?_Xlength@?$vector@U?$pair@PBVSmudgeTypeClass@@PAVExtData@SmudgeTypeExt@@@std@@V?$allocator@U?$pair@PBVSmudgeTypeClass@@PAVExtData@SmudgeTypeExt@@@std@@@2@@std@@CGXXZ 10005d10 f i Body.obj
 0001:00004d10       ?_Xlength@?$vector@U?$pair@PBVSuperClass@@PAVExtData@SuperExt@@@std@@V?$allocator@U?$pair@PBVSuperClass@@PAVExtData@SuperExt@@@std@@@2@@std@@CGXXZ 10005d10 f i Body.obj
 0001:00004d10       ?_Xlength@?$vector@U?$pair@PBVSuperWeaponTypeClass@@PAVExtData@SWTypeExt@@@std@@V?$allocator@U?$pair@PBVSuperWeaponTypeClass@@PAVExtData@SWTypeExt@@@std@@@2@@std@@CGXXZ 10005d10 f i Body.obj
 0001:00004d10       ?_Xlength@?$vector@U?$pair@PBVTActionClass@@PAVExtData@TActionExt@@@std@@V?$allocator@U?$pair@PBVTActionClass@@PAVExtData@TActionExt@@@std@@@2@@std@@CGXXZ 10005d10 f i Body.obj
 0001:00004d10       ?_Xlength@?$vector@U?$pair@PBVTEventClass@@PAVExtData@TEventExt@@@std@@V?$allocator@U?$pair@PBVTEventClass@@PAVExtData@TEventExt@@@std@@@2@@std@@CGXXZ 10005d10 f i Body.obj
 0001:00004d10       ?_Xlength@?$vector@U?$pair@PBVTeamClass@@PAVExtData@TeamExt@@@std@@V?$allocator@U?$pair@PBVTeamClass@@PAVExtData@TeamExt@@@std@@@2@@std@@CGXXZ 10005d10 f i Body.obj
 0001:00004d10       ?_Xlength@?$vector@U?$pair@PBVTeamTypeClass@@PAVExtData@TeamTypeExt@@@std@@V?$allocator@U?$pair@PBVTeamTypeClass@@PAVExtData@TeamTypeExt@@@std@@@2@@std@@CGXXZ 10005d10 f i Body.obj
 0001:00004d10       ?_Xlength@?$vector@U?$pair@PBVTechnoClass@@PAVExtData@TechnoExt@@@std@@V?$allocator@U?$pair@PBVTechnoClass@@PAVExtData@TechnoExt@@@std@@@2@@std@@CGXXZ 10005d10 f i Body.obj
 0001:00004d10       ?_Xlength@?$vector@U?$pair@PBVTechnoTypeClass@@PAVExtData@TechnoTypeExt@@@std@@V?$allocator@U?$pair@PBVTechnoTypeClass@@PAVExtData@TechnoTypeExt@@@std@@@2@@std@@CGXXZ 10005d10 f i Body.obj
 0001:00004d10       ?_Xlength@?$vector@U?$pair@PBVTemporalClass@@PAVExtData@TemporalExt@@@std@@V?$allocator@U?$pair@PBVTemporalClass@@PAVExtData@TemporalExt@@@std@@@2@@std@@CGXXZ 10005d10 f i Body.obj
 0001:00004d10       ?_Xlength@?$vector@U?$pair@PBVTerrainClass@@PAVExtData@TerrainExt@@@std@@V?$allocator@U?$pair@PBVTerrainClass@@PAVExtData@TerrainExt@@@std@@@2@@std@@CGXXZ 10005d10 f i Body.obj
 0001:00004d10       ?_Xlength@?$vector@U?$pair@PBVTerrainTypeClass@@PAVExtData@TerrainTypeExt@@@std@@V?$allocator@U?$pair@PBVTerrainTypeClass@@PAVExtData@TerrainTypeExt@@@std@@@2@@std@@CGXXZ 10005d10 f i Body.obj
 0001:00004d10       ?_Xlength@?$vector@U?$pair@PBVTiberiumClass@@PAVExtData@TiberiumExt@@@std@@V?$allocator@U?$pair@PBVTiberiumClass@@PAVExtData@TiberiumExt@@@std@@@2@@std@@CGXXZ 10005d10 f i Body.obj
 0001:00004d10       ?_Xlength@?$vector@U?$pair@PBVVoxelAnimClass@@PAVExtData@VoxelAnimExt@@@std@@V?$allocator@U?$pair@PBVVoxelAnimClass@@PAVExtData@VoxelAnimExt@@@std@@@2@@std@@CGXXZ 10005d10 f i Body.obj
 0001:00004d10       ?_Xlength@?$vector@U?$pair@PBVVoxelAnimTypeClass@@PAVExtData@VoxelAnimTypeExt@@@std@@V?$allocator@U?$pair@PBVVoxelAnimTypeClass@@PAVExtData@VoxelAnimTypeExt@@@std@@@2@@std@@CGXXZ 10005d10 f i Body.obj
 0001:00004d10       ?_Xlength@?$vector@U?$pair@PBVWarheadTypeClass@@PAVExtData@WarheadTypeExt@@@std@@V?$allocator@U?$pair@PBVWarheadTypeClass@@PAVExtData@WarheadTypeExt@@@std@@@2@@std@@CGXXZ 10005d10 f i Body.obj
 0001:00004d10       ?_Xlength@?$vector@U?$pair@PBVWeaponTypeClass@@PAVExtData@WeaponTypeExt@@@std@@V?$allocator@U?$pair@PBVWeaponTypeClass@@PAVExtData@WeaponTypeExt@@@std@@@2@@std@@CGXXZ 10005d10 f i Body.obj
 0001:00004d10       ?_Xlength@?$vector@UCoordStruct@@V?$allocator@UCoordStruct@@@std@@@std@@CGXXZ 10005d10 f i Body.obj
 0001:00004d10       ?_Xlength@?$vector@UDelayFireWeapon@@V?$allocator@UDelayFireWeapon@@@std@@@std@@CGXXZ 10005d10 f i Body.obj
 0001:00004d10       ?_Xlength@?$vector@UItem@FlyingStrings@@V?$allocator@UItem@FlyingStrings@@@std@@@std@@CGXXZ 10005d10 f i FlyingStrings.obj
 0001:00004d10       ?_Xlength@?$vector@ULaserTrailDataEntry@ExtData@TechnoTypeExt@@V?$allocator@ULaserTrailDataEntry@ExtData@TechnoTypeExt@@@std@@@std@@CGXXZ 10005d10 f i Body.obj
 0001:00004d10       ?_Xlength@?$vector@ULauchSWData@@V?$allocator@ULauchSWData@@@std@@@std@@CGXXZ 10005d10 f i Body.obj
 0001:00004d10       ?_Xlength@?$vector@ULineDrawDataStruct@@V?$allocator@ULineDrawDataStruct@@@std@@@std@@CGXXZ 10005d10 f i ElectricBoltClass.obj
 0001:00004d10       ?_Xlength@?$vector@UScriptActionNode@@V?$allocator@UScriptActionNode@@@std@@@std@@CGXXZ 10005d10 f i Body.obj
 0001:00004d10       ?_Xlength@?$vector@USimulateBurst@@V?$allocator@USimulateBurst@@@std@@@std@@CGXXZ 10005d10 f i Body.obj
 0001:00004d10       ?_Xlength@?$vector@UTrailData@@V?$allocator@UTrailData@@@std@@@std@@CGXXZ 10005d10 f i Body.obj
 0001:00004d10       ?_Xlength@?$vector@V?$DynamicVectorClass@UCoordStruct@@@@V?$allocator@V?$DynamicVectorClass@UCoordStruct@@@@@std@@@std@@CGXXZ 10005d10 f i Body.obj
 0001:00004d10       ?_Xlength@?$vector@V?$ValueableVector@H@@V?$allocator@V?$ValueableVector@H@@@std@@@std@@CGXXZ 10005d10 f i Body.obj
 0001:00004d10       ?_Xlength@?$vector@V?$unique_ptr@VArmorTypeClass@@U?$default_delete@VArmorTypeClass@@@std@@@std@@V?$allocator@V?$unique_ptr@VArmorTypeClass@@U?$default_delete@VArmorTypeClass@@@std@@@std@@@2@@std@@CGXXZ 10005d10 f i ArmorTypeClass.obj
 0001:00004d10       ?_Xlength@?$vector@V?$unique_ptr@VHoverTypeClass@@U?$default_delete@VHoverTypeClass@@@std@@@std@@V?$allocator@V?$unique_ptr@VHoverTypeClass@@U?$default_delete@VHoverTypeClass@@@std@@@std@@@2@@std@@CGXXZ 10005d10 f i Hooks.Hover.obj
 0001:00004d10       ?_Xlength@?$vector@V?$unique_ptr@VLaserTrailClass@@U?$default_delete@VLaserTrailClass@@@std@@@std@@V?$allocator@V?$unique_ptr@VLaserTrailClass@@U?$default_delete@VLaserTrailClass@@@std@@@std@@@2@@std@@CGXXZ 10005d10 f i Body.obj
 0001:00004d10       ?_Xlength@?$vector@V?$unique_ptr@VLaserTrailTypeClass@@U?$default_delete@VLaserTrailTypeClass@@@std@@@std@@V?$allocator@V?$unique_ptr@VLaserTrailTypeClass@@U?$default_delete@VLaserTrailTypeClass@@@std@@@std@@@2@@std@@CGXXZ 10005d10 f i Body.obj
 0001:00004d10       ?_Xlength@?$vector@V?$unique_ptr@VRadTypeClass@@U?$default_delete@VRadTypeClass@@@std@@@std@@V?$allocator@V?$unique_ptr@VRadTypeClass@@U?$default_delete@VRadTypeClass@@@std@@@std@@@2@@std@@CGXXZ 10005d10 f i RadTypeClass.obj
 0001:00004d10       ?_Xlength@?$vector@V?$unique_ptr@VShieldTypeClass@@U?$default_delete@VShieldTypeClass@@@std@@@std@@V?$allocator@V?$unique_ptr@VShieldTypeClass@@U?$default_delete@VShieldTypeClass@@@std@@@std@@@2@@std@@CGXXZ 10005d10 f i Body.obj
 0001:00004d10       ?_Xlength@?$vector@V?$unique_ptr@VTrailType@@U?$default_delete@VTrailType@@@std@@@std@@V?$allocator@V?$unique_ptr@VTrailType@@U?$default_delete@VTrailType@@@std@@@std@@@2@@std@@CGXXZ 10005d10 f i Body.obj
 0001:00004d10       ?_Xlength@?$vector@V?$unique_ptr@VUniversalTrail@@U?$default_delete@VUniversalTrail@@@std@@@std@@V?$allocator@V?$unique_ptr@VUniversalTrail@@U?$default_delete@VUniversalTrail@@@std@@@std@@@2@@std@@CGXXZ 10005d10 f i Body.obj
 0001:00004d10       ?_Xlength@?$vector@V?$vector@PAVWeaponTypeClass@@V?$allocator@PAVWeaponTypeClass@@@std@@@std@@V?$allocator@V?$vector@PAVWeaponTypeClass@@V?$allocator@PAVWeaponTypeClass@@@std@@@std@@@2@@std@@CGXXZ 10005d10 f i Body.obj
 0001:00004d10       ?_Xlength@?$vector@VCellStruct@@V?$allocator@VCellStruct@@@std@@@std@@CGXXZ 10005d10 f i GeneralUtils.obj
 0001:00004d10       ?_Xlength@?$vector@W4LandType@@V?$allocator@W4LandType@@@std@@@std@@CGXXZ 10005d10 f i Body.obj
 0001:00004d10       ?_Xlength@?$vector@W4TileType@@V?$allocator@W4TileType@@@std@@@std@@CGXXZ 10005d10 f i Body.obj
 0001:00004d20       ?allocate@?$allocator@D@std@@QAEPADI@Z 10005d20 f i Body.obj
 0001:00004d20       ?allocate@?$allocator@E@std@@QAEPAEI@Z 10005d20 f i LodePNG.obj
 0001:00004d70       ?assign@?$basic_string@DU?$char_traits@D@std@@V?$allocator@D@2@@std@@QAEAAV12@QBDI@Z 10005d70 f i Body.obj
 0001:00004e60       ?deallocate@?$allocator@N@std@@QAEXQANI@Z 10005e60 f i Body.obj
 0001:00004e60       ?deallocate@?$allocator@U?$pair@HPAVAnimTypeClass@@@std@@@std@@QAEXQAU?$pair@HPAVAnimTypeClass@@@2@I@Z 10005e60 f i Body.obj
 0001:00004e60       ?deallocate@?$allocator@U?$pair@PAVEBolt@@PBVExtData@WeaponTypeExt@@@std@@@std@@QAEXQAU?$pair@PAVEBolt@@PBVExtData@WeaponTypeExt@@@2@I@Z 10005e60 f i Hook.EBolt.obj
 0001:00004e60       ?deallocate@?$allocator@U?$pair@PBVAITriggerTypeClass@@PAVExtData@AITriggerTypeExt@@@std@@@std@@QAEXQAU?$pair@PBVAITriggerTypeClass@@PAVExtData@AITriggerTypeExt@@@2@I@Z 10005e60 f i Body.obj
 0001:00004e60       ?deallocate@?$allocator@U?$pair@PBVAnimClass@@PAVExtData@AnimExt@@@std@@@std@@QAEXQAU?$pair@PBVAnimClass@@PAVExtData@AnimExt@@@2@I@Z 10005e60 f i Body.obj
 0001:00004e60       ?deallocate@?$allocator@U?$pair@PBVAnimTypeClass@@PAVExtData@AnimTypeExt@@@std@@@std@@QAEXQAU?$pair@PBVAnimTypeClass@@PAVExtData@AnimTypeExt@@@2@I@Z 10005e60 f i Body.obj
 0001:00004e60       ?deallocate@?$allocator@U?$pair@PBVBombClass@@PAVExtData@BombExt@@@std@@@std@@QAEXQAU?$pair@PBVBombClass@@PAVExtData@BombExt@@@2@I@Z 10005e60 f i Body.obj
 0001:00004e60       ?deallocate@?$allocator@U?$pair@PBVBuildingClass@@PAVExtData@BuildingExt@@@std@@@std@@QAEXQAU?$pair@PBVBuildingClass@@PAVExtData@BuildingExt@@@2@I@Z 10005e60 f i Body.obj
 0001:00004e60       ?deallocate@?$allocator@U?$pair@PBVBuildingTypeClass@@PAVExtData@BuildingTypeExt@@@std@@@std@@QAEXQAU?$pair@PBVBuildingTypeClass@@PAVExtData@BuildingTypeExt@@@2@I@Z 10005e60 f i Body.obj
 0001:00004e60       ?deallocate@?$allocator@U?$pair@PBVBulletClass@@PAVExtData@BulletExt@@@std@@@std@@QAEXQAU?$pair@PBVBulletClass@@PAVExtData@BulletExt@@@2@I@Z 10005e60 f i Body.obj
 0001:00004e60       ?deallocate@?$allocator@U?$pair@PBVBulletTypeClass@@PAVExtData@BulletTypeExt@@@std@@@std@@QAEXQAU?$pair@PBVBulletTypeClass@@PAVExtData@BulletTypeExt@@@2@I@Z 10005e60 f i Body.obj
 0001:00004e60       ?deallocate@?$allocator@U?$pair@PBVCaptureManagerClass@@PAVExtData@CaptureExt@@@std@@@std@@QAEXQAU?$pair@PBVCaptureManagerClass@@PAVExtData@CaptureExt@@@2@I@Z 10005e60 f i Body.obj
 0001:00004e60       ?deallocate@?$allocator@U?$pair@PBVCellClass@@PAVExtData@CellExt@@@std@@@std@@QAEXQAU?$pair@PBVCellClass@@PAVExtData@CellExt@@@2@I@Z 10005e60 f i Body.obj
 0001:00004e60       ?deallocate@?$allocator@U?$pair@PBVHouseClass@@PAVExtData@HouseExt@@@std@@@std@@QAEXQAU?$pair@PBVHouseClass@@PAVExtData@HouseExt@@@2@I@Z 10005e60 f i Body.obj
 0001:00004e60       ?deallocate@?$allocator@U?$pair@PBVParasiteClass@@PAVExtData@ParasiteExt@@@std@@@std@@QAEXQAU?$pair@PBVParasiteClass@@PAVExtData@ParasiteExt@@@2@I@Z 10005e60 f i Body.obj
 0001:00004e60       ?deallocate@?$allocator@U?$pair@PBVParticleClass@@PAVExtData@ParticleExt@@@std@@@std@@QAEXQAU?$pair@PBVParticleClass@@PAVExtData@ParticleExt@@@2@I@Z 10005e60 f i Body.obj
 0001:00004e60       ?deallocate@?$allocator@U?$pair@PBVParticleTypeClass@@PAVExtData@ParticleTypeExt@@@std@@@std@@QAEXQAU?$pair@PBVParticleTypeClass@@PAVExtData@ParticleTypeExt@@@2@I@Z 10005e60 f i Body.obj
 0001:00004e60       ?deallocate@?$allocator@U?$pair@PBVRadSiteClass@@PAVExtData@RadSiteExt@@@std@@@std@@QAEXQAU?$pair@PBVRadSiteClass@@PAVExtData@RadSiteExt@@@2@I@Z 10005e60 f i Body.obj
 0001:00004e60       ?deallocate@?$allocator@U?$pair@PBVScriptClass@@PAVExtData@ScriptExt@@@std@@@std@@QAEXQAU?$pair@PBVScriptClass@@PAVExtData@ScriptExt@@@2@I@Z 10005e60 f i Body.obj
 0001:00004e60       ?deallocate@?$allocator@U?$pair@PBVScriptTypeClass@@PAVExtData@ScriptTypeExt@@@std@@@std@@QAEXQAU?$pair@PBVScriptTypeClass@@PAVExtData@ScriptTypeExt@@@2@I@Z 10005e60 f i Body.obj
 0001:00004e60       ?deallocate@?$allocator@U?$pair@PBVSideClass@@PAVExtData@SideExt@@@std@@@std@@QAEXQAU?$pair@PBVSideClass@@PAVExtData@SideExt@@@2@I@Z 10005e60 f i Body.obj
 0001:00004e60       ?deallocate@?$allocator@U?$pair@PBVSmudgeTypeClass@@PAVExtData@SmudgeTypeExt@@@std@@@std@@QAEXQAU?$pair@PBVSmudgeTypeClass@@PAVExtData@SmudgeTypeExt@@@2@I@Z 10005e60 f i Body.obj
 0001:00004e60       ?deallocate@?$allocator@U?$pair@PBVSuperClass@@PAVExtData@SuperExt@@@std@@@std@@QAEXQAU?$pair@PBVSuperClass@@PAVExtData@SuperExt@@@2@I@Z 10005e60 f i Body.obj
 0001:00004e60       ?deallocate@?$allocator@U?$pair@PBVSuperWeaponTypeClass@@PAVExtData@SWTypeExt@@@std@@@std@@QAEXQAU?$pair@PBVSuperWeaponTypeClass@@PAVExtData@SWTypeExt@@@2@I@Z 10005e60 f i Body.obj
 0001:00004e60       ?deallocate@?$allocator@U?$pair@PBVTActionClass@@PAVExtData@TActionExt@@@std@@@std@@QAEXQAU?$pair@PBVTActionClass@@PAVExtData@TActionExt@@@2@I@Z 10005e60 f i Body.obj
 0001:00004e60       ?deallocate@?$allocator@U?$pair@PBVTEventClass@@PAVExtData@TEventExt@@@std@@@std@@QAEXQAU?$pair@PBVTEventClass@@PAVExtData@TEventExt@@@2@I@Z 10005e60 f i Body.obj
 0001:00004e60       ?deallocate@?$allocator@U?$pair@PBVTeamClass@@PAVExtData@TeamExt@@@std@@@std@@QAEXQAU?$pair@PBVTeamClass@@PAVExtData@TeamExt@@@2@I@Z 10005e60 f i Body.obj
 0001:00004e60       ?deallocate@?$allocator@U?$pair@PBVTeamTypeClass@@PAVExtData@TeamTypeExt@@@std@@@std@@QAEXQAU?$pair@PBVTeamTypeClass@@PAVExtData@TeamTypeExt@@@2@I@Z 10005e60 f i Body.obj
 0001:00004e60       ?deallocate@?$allocator@U?$pair@PBVTechnoClass@@PAVExtData@TechnoExt@@@std@@@std@@QAEXQAU?$pair@PBVTechnoClass@@PAVExtData@TechnoExt@@@2@I@Z 10005e60 f i Body.obj
 0001:00004e60       ?deallocate@?$allocator@U?$pair@PBVTechnoTypeClass@@PAVExtData@TechnoTypeExt@@@std@@@std@@QAEXQAU?$pair@PBVTechnoTypeClass@@PAVExtData@TechnoTypeExt@@@2@I@Z 10005e60 f i Body.obj
 0001:00004e60       ?deallocate@?$allocator@U?$pair@PBVTemporalClass@@PAVExtData@TemporalExt@@@std@@@std@@QAEXQAU?$pair@PBVTemporalClass@@PAVExtData@TemporalExt@@@2@I@Z 10005e60 f i Body.obj
 0001:00004e60       ?deallocate@?$allocator@U?$pair@PBVTerrainClass@@PAVExtData@TerrainExt@@@std@@@std@@QAEXQAU?$pair@PBVTerrainClass@@PAVExtData@TerrainExt@@@2@I@Z 10005e60 f i Body.obj
 0001:00004e60       ?deallocate@?$allocator@U?$pair@PBVTerrainTypeClass@@PAVExtData@TerrainTypeExt@@@std@@@std@@QAEXQAU?$pair@PBVTerrainTypeClass@@PAVExtData@TerrainTypeExt@@@2@I@Z 10005e60 f i Body.obj
 0001:00004e60       ?deallocate@?$allocator@U?$pair@PBVTiberiumClass@@PAVExtData@TiberiumExt@@@std@@@std@@QAEXQAU?$pair@PBVTiberiumClass@@PAVExtData@TiberiumExt@@@2@I@Z 10005e60 f i Body.obj
 0001:00004e60       ?deallocate@?$allocator@U?$pair@PBVVoxelAnimClass@@PAVExtData@VoxelAnimExt@@@std@@@std@@QAEXQAU?$pair@PBVVoxelAnimClass@@PAVExtData@VoxelAnimExt@@@2@I@Z 10005e60 f i Body.obj
 0001:00004e60       ?deallocate@?$allocator@U?$pair@PBVVoxelAnimTypeClass@@PAVExtData@VoxelAnimTypeExt@@@std@@@std@@QAEXQAU?$pair@PBVVoxelAnimTypeClass@@PAVExtData@VoxelAnimTypeExt@@@2@I@Z 10005e60 f i Body.obj
 0001:00004e60       ?deallocate@?$allocator@U?$pair@PBVWarheadTypeClass@@PAVExtData@WarheadTypeExt@@@std@@@std@@QAEXQAU?$pair@PBVWarheadTypeClass@@PAVExtData@WarheadTypeExt@@@2@I@Z 10005e60 f i Body.obj
 0001:00004e60       ?deallocate@?$allocator@U?$pair@PBVWeaponTypeClass@@PAVExtData@WeaponTypeExt@@@std@@@std@@QAEXQAU?$pair@PBVWeaponTypeClass@@PAVExtData@WeaponTypeExt@@@2@I@Z 10005e60 f i Body.obj
 0001:00004e60       ?deallocate@?$allocator@UScriptActionNode@@@std@@QAEXQAUScriptActionNode@@I@Z 10005e60 f i Body.obj
 0001:00004ea0       ?insert@?$VectorMapContainer@VAITriggerTypeClass@@VExtData@AITriggerTypeExt@@@@QAEPAVExtData@AITriggerTypeExt@@PBVAITriggerTypeClass@@PAV23@@Z 10005ea0 f i Body.obj
 0001:00004ea0       ?insert@?$VectorMapContainer@VAnimClass@@VExtData@AnimExt@@@@QAEPAVExtData@AnimExt@@PBVAnimClass@@PAV23@@Z 10005ea0 f i Body.obj
 0001:00004ea0       ?insert@?$VectorMapContainer@VAnimTypeClass@@VExtData@AnimTypeExt@@@@QAEPAVExtData@AnimTypeExt@@PBVAnimTypeClass@@PAV23@@Z 10005ea0 f i Body.obj
 0001:00004ea0       ?insert@?$VectorMapContainer@VBombClass@@VExtData@BombExt@@@@QAEPAVExtData@BombExt@@PBVBombClass@@PAV23@@Z 10005ea0 f i Body.obj
 0001:00004ea0       ?insert@?$VectorMapContainer@VBulletClass@@VExtData@BulletExt@@@@QAEPAVExtData@BulletExt@@PBVBulletClass@@PAV23@@Z 10005ea0 f i Body.obj
 0001:00004ea0       ?insert@?$VectorMapContainer@VBulletTypeClass@@VExtData@BulletTypeExt@@@@QAEPAVExtData@BulletTypeExt@@PBVBulletTypeClass@@PAV23@@Z 10005ea0 f i Body.obj
 0001:00004ea0       ?insert@?$VectorMapContainer@VCaptureManagerClass@@VExtData@CaptureExt@@@@QAEPAVExtData@CaptureExt@@PBVCaptureManagerClass@@PAV23@@Z 10005ea0 f i Body.obj
 0001:00004ea0       ?insert@?$VectorMapContainer@VCellClass@@VExtData@CellExt@@@@QAEPAVExtData@CellExt@@PBVCellClass@@PAV23@@Z 10005ea0 f i Body.obj
 0001:00004ea0       ?insert@?$VectorMapContainer@VHouseClass@@VExtData@HouseExt@@@@QAEPAVExtData@HouseExt@@PBVHouseClass@@PAV23@@Z 10005ea0 f i Body.obj
 0001:00004ea0       ?insert@?$VectorMapContainer@VParasiteClass@@VExtData@ParasiteExt@@@@QAEPAVExtData@ParasiteExt@@PBVParasiteClass@@PAV23@@Z 10005ea0 f i Body.obj
 0001:00004ea0       ?insert@?$VectorMapContainer@VRadSiteClass@@VExtData@RadSiteExt@@@@QAEPAVExtData@RadSiteExt@@PBVRadSiteClass@@PAV23@@Z 10005ea0 f i Body.obj
 0001:00004ea0       ?insert@?$VectorMapContainer@VScriptTypeClass@@VExtData@ScriptTypeExt@@@@QAEPAVExtData@ScriptTypeExt@@PBVScriptTypeClass@@PAV23@@Z 10005ea0 f i Body.obj
 0001:00004ea0       ?insert@?$VectorMapContainer@VSideClass@@VExtData@SideExt@@@@QAEPAVExtData@SideExt@@PBVSideClass@@PAV23@@Z 10005ea0 f i Body.obj
 0001:00004ea0       ?insert@?$VectorMapContainer@VSmudgeTypeClass@@VExtData@SmudgeTypeExt@@@@QAEPAVExtData@SmudgeTypeExt@@PBVSmudgeTypeClass@@PAV23@@Z 10005ea0 f i Body.obj
 0001:00004ea0       ?insert@?$VectorMapContainer@VSuperClass@@VExtData@SuperExt@@@@QAEPAVExtData@SuperExt@@PBVSuperClass@@PAV23@@Z 10005ea0 f i Body.obj
 0001:00004ea0       ?insert@?$VectorMapContainer@VSuperWeaponTypeClass@@VExtData@SWTypeExt@@@@QAEPAVExtData@SWTypeExt@@PBVSuperWeaponTypeClass@@PAV23@@Z 10005ea0 f i Body.obj
 0001:00004ea0       ?insert@?$VectorMapContainer@VTActionClass@@VExtData@TActionExt@@@@QAEPAVExtData@TActionExt@@PBVTActionClass@@PAV23@@Z 10005ea0 f i Body.obj
 0001:00004ea0       ?insert@?$VectorMapContainer@VTeamClass@@VExtData@TeamExt@@@@QAEPAVExtData@TeamExt@@PBVTeamClass@@PAV23@@Z 10005ea0 f i Body.obj
 0001:00004ea0       ?insert@?$VectorMapContainer@VTerrainClass@@VExtData@TerrainExt@@@@QAEPAVExtData@TerrainExt@@PBVTerrainClass@@PAV23@@Z 10005ea0 f i Body.obj
 0001:00004ea0       ?insert@?$VectorMapContainer@VTerrainTypeClass@@VExtData@TerrainTypeExt@@@@QAEPAVExtData@TerrainTypeExt@@PBVTerrainTypeClass@@PAV23@@Z 10005ea0 f i Body.obj
 0001:00004ea0       ?insert@?$VectorMapContainer@VTiberiumClass@@VExtData@TiberiumExt@@@@QAEPAVExtData@TiberiumExt@@PBVTiberiumClass@@PAV23@@Z 10005ea0 f i Body.obj
 0001:00004ea0       ?insert@?$VectorMapContainer@VWarheadTypeClass@@VExtData@WarheadTypeExt@@@@QAEPAVExtData@WarheadTypeExt@@PBVWarheadTypeClass@@PAV23@@Z 10005ea0 f i Body.obj
 0001:00004ea0       ?insert@?$VectorMapContainer@VWeaponTypeClass@@VExtData@WeaponTypeExt@@@@QAEPAVExtData@WeaponTypeExt@@PBVWeaponTypeClass@@PAV23@@Z 10005ea0 f i Body.obj
 0001:00004f60       ?lower_bound@?$VectorMap@PBVAITriggerTypeClass@@PAVExtData@AITriggerTypeExt@@U?$less@PBVAITriggerTypeClass@@@std@@V?$allocator@U?$pair@PBVAITriggerTypeClass@@PAVExtData@AITriggerTypeExt@@@std@@@5@@@QAE?AV?$_Vector_iterator@V?$_Vector_val@U?$_Simple_types@U?$pair@PBVAITriggerTypeClass@@PAVExtData@AITriggerTypeExt@@@std@@@std@@@std@@@std@@ABQBVAITriggerTypeClass@@@Z 10005f60 f i Body.obj
 0001:00004f60       ?lower_bound@?$VectorMap@PBVAnimClass@@PAVExtData@AnimExt@@U?$less@PBVAnimClass@@@std@@V?$allocator@U?$pair@PBVAnimClass@@PAVExtData@AnimExt@@@std@@@5@@@QAE?AV?$_Vector_iterator@V?$_Vector_val@U?$_Simple_types@U?$pair@PBVAnimClass@@PAVExtData@AnimExt@@@std@@@std@@@std@@@std@@ABQBVAnimClass@@@Z 10005f60 f i Body.obj
 0001:00004f60       ?lower_bound@?$VectorMap@PBVAnimTypeClass@@PAVExtData@AnimTypeExt@@U?$less@PBVAnimTypeClass@@@std@@V?$allocator@U?$pair@PBVAnimTypeClass@@PAVExtData@AnimTypeExt@@@std@@@5@@@QAE?AV?$_Vector_iterator@V?$_Vector_val@U?$_Simple_types@U?$pair@PBVAnimTypeClass@@PAVExtData@AnimTypeExt@@@std@@@std@@@std@@@std@@ABQBVAnimTypeClass@@@Z 10005f60 f i Body.obj
 0001:00004f60       ?lower_bound@?$VectorMap@PBVBombClass@@PAVExtData@BombExt@@U?$less@PBVBombClass@@@std@@V?$allocator@U?$pair@PBVBombClass@@PAVExtData@BombExt@@@std@@@5@@@QAE?AV?$_Vector_iterator@V?$_Vector_val@U?$_Simple_types@U?$pair@PBVBombClass@@PAVExtData@BombExt@@@std@@@std@@@std@@@std@@ABQBVBombClass@@@Z 10005f60 f i Body.obj
 0001:00004f60       ?lower_bound@?$VectorMap@PBVBuildingClass@@PAVExtData@BuildingExt@@U?$less@PBVBuildingClass@@@std@@V?$allocator@U?$pair@PBVBuildingClass@@PAVExtData@BuildingExt@@@std@@@5@@@QAE?AV?$_Vector_iterator@V?$_Vector_val@U?$_Simple_types@U?$pair@PBVBuildingClass@@PAVExtData@BuildingExt@@@std@@@std@@@std@@@std@@ABQBVBuildingClass@@@Z 10005f60 f i Body.obj
 0001:00004f60       ?lower_bound@?$VectorMap@PBVBuildingTypeClass@@PAVExtData@BuildingTypeExt@@U?$less@PBVBuildingTypeClass@@@std@@V?$allocator@U?$pair@PBVBuildingTypeClass@@PAVExtData@BuildingTypeExt@@@std@@@5@@@QAE?AV?$_Vector_iterator@V?$_Vector_val@U?$_Simple_types@U?$pair@PBVBuildingTypeClass@@PAVExtData@BuildingTypeExt@@@std@@@std@@@std@@@std@@ABQBVBuildingTypeClass@@@Z 10005f60 f i Body.obj
 0001:00004f60       ?lower_bound@?$VectorMap@PBVBulletClass@@PAVExtData@BulletExt@@U?$less@PBVBulletClass@@@std@@V?$allocator@U?$pair@PBVBulletClass@@PAVExtData@BulletExt@@@std@@@5@@@QAE?AV?$_Vector_iterator@V?$_Vector_val@U?$_Simple_types@U?$pair@PBVBulletClass@@PAVExtData@BulletExt@@@std@@@std@@@std@@@std@@ABQBVBulletClass@@@Z 10005f60 f i Body.obj
 0001:00004f60       ?lower_bound@?$VectorMap@PBVBulletTypeClass@@PAVExtData@BulletTypeExt@@U?$less@PBVBulletTypeClass@@@std@@V?$allocator@U?$pair@PBVBulletTypeClass@@PAVExtData@BulletTypeExt@@@std@@@5@@@QAE?AV?$_Vector_iterator@V?$_Vector_val@U?$_Simple_types@U?$pair@PBVBulletTypeClass@@PAVExtData@BulletTypeExt@@@std@@@std@@@std@@@std@@ABQBVBulletTypeClass@@@Z 10005f60 f i Body.obj
 0001:00004f60       ?lower_bound@?$VectorMap@PBVCaptureManagerClass@@PAVExtData@CaptureExt@@U?$less@PBVCaptureManagerClass@@@std@@V?$allocator@U?$pair@PBVCaptureManagerClass@@PAVExtData@CaptureExt@@@std@@@5@@@QAE?AV?$_Vector_iterator@V?$_Vector_val@U?$_Simple_types@U?$pair@PBVCaptureManagerClass@@PAVExtData@CaptureExt@@@std@@@std@@@std@@@std@@ABQBVCaptureManagerClass@@@Z 10005f60 f i Body.obj
 0001:00004f60       ?lower_bound@?$VectorMap@PBVCellClass@@PAVExtData@CellExt@@U?$less@PBVCellClass@@@std@@V?$allocator@U?$pair@PBVCellClass@@PAVExtData@CellExt@@@std@@@5@@@QAE?AV?$_Vector_iterator@V?$_Vector_val@U?$_Simple_types@U?$pair@PBVCellClass@@PAVExtData@CellExt@@@std@@@std@@@std@@@std@@ABQBVCellClass@@@Z 10005f60 f i Body.obj
 0001:00004f60       ?lower_bound@?$VectorMap@PBVHouseClass@@PAVExtData@HouseExt@@U?$less@PBVHouseClass@@@std@@V?$allocator@U?$pair@PBVHouseClass@@PAVExtData@HouseExt@@@std@@@5@@@QAE?AV?$_Vector_iterator@V?$_Vector_val@U?$_Simple_types@U?$pair@PBVHouseClass@@PAVExtData@HouseExt@@@std@@@std@@@std@@@std@@ABQBVHouseClass@@@Z 10005f60 f i Body.obj
 0001:00004f60       ?lower_bound@?$VectorMap@PBVParasiteClass@@PAVExtData@ParasiteExt@@U?$less@PBVParasiteClass@@@std@@V?$allocator@U?$pair@PBVParasiteClass@@PAVExtData@ParasiteExt@@@std@@@5@@@QAE?AV?$_Vector_iterator@V?$_Vector_val@U?$_Simple_types@U?$pair@PBVParasiteClass@@PAVExtData@ParasiteExt@@@std@@@std@@@std@@@std@@ABQBVParasiteClass@@@Z 10005f60 f i Body.obj
 0001:00004f60       ?lower_bound@?$VectorMap@PBVParticleClass@@PAVExtData@ParticleExt@@U?$less@PBVParticleClass@@@std@@V?$allocator@U?$pair@PBVParticleClass@@PAVExtData@ParticleExt@@@std@@@5@@@QAE?AV?$_Vector_iterator@V?$_Vector_val@U?$_Simple_types@U?$pair@PBVParticleClass@@PAVExtData@ParticleExt@@@std@@@std@@@std@@@std@@ABQBVParticleClass@@@Z 10005f60 f i Body.obj
 0001:00004f60       ?lower_bound@?$VectorMap@PBVParticleTypeClass@@PAVExtData@ParticleTypeExt@@U?$less@PBVParticleTypeClass@@@std@@V?$allocator@U?$pair@PBVParticleTypeClass@@PAVExtData@ParticleTypeExt@@@std@@@5@@@QAE?AV?$_Vector_iterator@V?$_Vector_val@U?$_Simple_types@U?$pair@PBVParticleTypeClass@@PAVExtData@ParticleTypeExt@@@std@@@std@@@std@@@std@@ABQBVParticleTypeClass@@@Z 10005f60 f i Body.obj
 0001:00004f60       ?lower_bound@?$VectorMap@PBVRadSiteClass@@PAVExtData@RadSiteExt@@U?$less@PBVRadSiteClass@@@std@@V?$allocator@U?$pair@PBVRadSiteClass@@PAVExtData@RadSiteExt@@@std@@@5@@@QAE?AV?$_Vector_iterator@V?$_Vector_val@U?$_Simple_types@U?$pair@PBVRadSiteClass@@PAVExtData@RadSiteExt@@@std@@@std@@@std@@@std@@ABQBVRadSiteClass@@@Z 10005f60 f i Body.obj
 0001:00004f60       ?lower_bound@?$VectorMap@PBVScriptTypeClass@@PAVExtData@ScriptTypeExt@@U?$less@PBVScriptTypeClass@@@std@@V?$allocator@U?$pair@PBVScriptTypeClass@@PAVExtData@ScriptTypeExt@@@std@@@5@@@QAE?AV?$_Vector_iterator@V?$_Vector_val@U?$_Simple_types@U?$pair@PBVScriptTypeClass@@PAVExtData@ScriptTypeExt@@@std@@@std@@@std@@@std@@ABQBVScriptTypeClass@@@Z 10005f60 f i Body.obj
 0001:00004f60       ?lower_bound@?$VectorMap@PBVSideClass@@PAVExtData@SideExt@@U?$less@PBVSideClass@@@std@@V?$allocator@U?$pair@PBVSideClass@@PAVExtData@SideExt@@@std@@@5@@@QAE?AV?$_Vector_iterator@V?$_Vector_val@U?$_Simple_types@U?$pair@PBVSideClass@@PAVExtData@SideExt@@@std@@@std@@@std@@@std@@ABQBVSideClass@@@Z 10005f60 f i Body.obj
 0001:00004f60       ?lower_bound@?$VectorMap@PBVSmudgeTypeClass@@PAVExtData@SmudgeTypeExt@@U?$less@PBVSmudgeTypeClass@@@std@@V?$allocator@U?$pair@PBVSmudgeTypeClass@@PAVExtData@SmudgeTypeExt@@@std@@@5@@@QAE?AV?$_Vector_iterator@V?$_Vector_val@U?$_Simple_types@U?$pair@PBVSmudgeTypeClass@@PAVExtData@SmudgeTypeExt@@@std@@@std@@@std@@@std@@ABQBVSmudgeTypeClass@@@Z 10005f60 f i Body.obj
 0001:00004f60       ?lower_bound@?$VectorMap@PBVSuperClass@@PAVExtData@SuperExt@@U?$less@PBVSuperClass@@@std@@V?$allocator@U?$pair@PBVSuperClass@@PAVExtData@SuperExt@@@std@@@5@@@QAE?AV?$_Vector_iterator@V?$_Vector_val@U?$_Simple_types@U?$pair@PBVSuperClass@@PAVExtData@SuperExt@@@std@@@std@@@std@@@std@@ABQBVSuperClass@@@Z 10005f60 f i Body.obj
 0001:00004f60       ?lower_bound@?$VectorMap@PBVSuperWeaponTypeClass@@PAVExtData@SWTypeExt@@U?$less@PBVSuperWeaponTypeClass@@@std@@V?$allocator@U?$pair@PBVSuperWeaponTypeClass@@PAVExtData@SWTypeExt@@@std@@@5@@@QAE?AV?$_Vector_iterator@V?$_Vector_val@U?$_Simple_types@U?$pair@PBVSuperWeaponTypeClass@@PAVExtData@SWTypeExt@@@std@@@std@@@std@@@std@@ABQBVSuperWeaponTypeClass@@@Z 10005f60 f i Body.obj
 0001:00004f60       ?lower_bound@?$VectorMap@PBVTActionClass@@PAVExtData@TActionExt@@U?$less@PBVTActionClass@@@std@@V?$allocator@U?$pair@PBVTActionClass@@PAVExtData@TActionExt@@@std@@@5@@@QAE?AV?$_Vector_iterator@V?$_Vector_val@U?$_Simple_types@U?$pair@PBVTActionClass@@PAVExtData@TActionExt@@@std@@@std@@@std@@@std@@ABQBVTActionClass@@@Z 10005f60 f i Body.obj
 0001:00004f60       ?lower_bound@?$VectorMap@PBVTeamClass@@PAVExtData@TeamExt@@U?$less@PBVTeamClass@@@std@@V?$allocator@U?$pair@PBVTeamClass@@PAVExtData@TeamExt@@@std@@@5@@@QAE?AV?$_Vector_iterator@V?$_Vector_val@U?$_Simple_types@U?$pair@PBVTeamClass@@PAVExtData@TeamExt@@@std@@@std@@@std@@@std@@ABQBVTeamClass@@@Z 10005f60 f i Body.obj
 0001:00004f60       ?lower_bound@?$VectorMap@PBVTeamTypeClass@@PAVExtData@TeamTypeExt@@U?$less@PBVTeamTypeClass@@@std@@V?$allocator@U?$pair@PBVTeamTypeClass@@PAVExtData@TeamTypeExt@@@std@@@5@@@QAE?AV?$_Vector_iterator@V?$_Vector_val@U?$_Simple_types@U?$pair@PBVTeamTypeClass@@PAVExtData@TeamTypeExt@@@std@@@std@@@std@@@std@@ABQBVTeamTypeClass@@@Z 10005f60 f i Body.obj
 0001:00004f60       ?lower_bound@?$VectorMap@PBVTechnoClass@@PAVExtData@TechnoExt@@U?$less@PBVTechnoClass@@@std@@V?$allocator@U?$pair@PBVTechnoClass@@PAVExtData@TechnoExt@@@std@@@5@@@QAE?AV?$_Vector_iterator@V?$_Vector_val@U?$_Simple_types@U?$pair@PBVTechnoClass@@PAVExtData@TechnoExt@@@std@@@std@@@std@@@std@@ABQBVTechnoClass@@@Z 10005f60 f i Body.obj
 0001:00004f60       ?lower_bound@?$VectorMap@PBVTechnoTypeClass@@PAVExtData@TechnoTypeExt@@U?$less@PBVTechnoTypeClass@@@std@@V?$allocator@U?$pair@PBVTechnoTypeClass@@PAVExtData@TechnoTypeExt@@@std@@@5@@@QAE?AV?$_Vector_iterator@V?$_Vector_val@U?$_Simple_types@U?$pair@PBVTechnoTypeClass@@PAVExtData@TechnoTypeExt@@@std@@@std@@@std@@@std@@ABQBVTechnoTypeClass@@@Z 10005f60 f i Body.obj
 0001:00004f60       ?lower_bound@?$VectorMap@PBVTemporalClass@@PAVExtData@TemporalExt@@U?$less@PBVTemporalClass@@@std@@V?$allocator@U?$pair@PBVTemporalClass@@PAVExtData@TemporalExt@@@std@@@5@@@QAE?AV?$_Vector_iterator@V?$_Vector_val@U?$_Simple_types@U?$pair@PBVTemporalClass@@PAVExtData@TemporalExt@@@std@@@std@@@std@@@std@@ABQBVTemporalClass@@@Z 10005f60 f i Body.obj
 0001:00004f60       ?lower_bound@?$VectorMap@PBVTerrainClass@@PAVExtData@TerrainExt@@U?$less@PBVTerrainClass@@@std@@V?$allocator@U?$pair@PBVTerrainClass@@PAVExtData@TerrainExt@@@std@@@5@@@QAE?AV?$_Vector_iterator@V?$_Vector_val@U?$_Simple_types@U?$pair@PBVTerrainClass@@PAVExtData@TerrainExt@@@std@@@std@@@std@@@std@@ABQBVTerrainClass@@@Z 10005f60 f i Body.obj
 0001:00004f60       ?lower_bound@?$VectorMap@PBVTerrainTypeClass@@PAVExtData@TerrainTypeExt@@U?$less@PBVTerrainTypeClass@@@std@@V?$allocator@U?$pair@PBVTerrainTypeClass@@PAVExtData@TerrainTypeExt@@@std@@@5@@@QAE?AV?$_Vector_iterator@V?$_Vector_val@U?$_Simple_types@U?$pair@PBVTerrainTypeClass@@PAVExtData@TerrainTypeExt@@@std@@@std@@@std@@@std@@ABQBVTerrainTypeClass@@@Z 10005f60 f i Body.obj
 0001:00004f60       ?lower_bound@?$VectorMap@PBVTiberiumClass@@PAVExtData@TiberiumExt@@U?$less@PBVTiberiumClass@@@std@@V?$allocator@U?$pair@PBVTiberiumClass@@PAVExtData@TiberiumExt@@@std@@@5@@@QAE?AV?$_Vector_iterator@V?$_Vector_val@U?$_Simple_types@U?$pair@PBVTiberiumClass@@PAVExtData@TiberiumExt@@@std@@@std@@@std@@@std@@ABQBVTiberiumClass@@@Z 10005f60 f i Body.obj
 0001:00004f60       ?lower_bound@?$VectorMap@PBVVoxelAnimClass@@PAVExtData@VoxelAnimExt@@U?$less@PBVVoxelAnimClass@@@std@@V?$allocator@U?$pair@PBVVoxelAnimClass@@PAVExtData@VoxelAnimExt@@@std@@@5@@@QAE?AV?$_Vector_iterator@V?$_Vector_val@U?$_Simple_types@U?$pair@PBVVoxelAnimClass@@PAVExtData@VoxelAnimExt@@@std@@@std@@@std@@@std@@ABQBVVoxelAnimClass@@@Z 10005f60 f i Body.obj
 0001:00004f60       ?lower_bound@?$VectorMap@PBVVoxelAnimTypeClass@@PAVExtData@VoxelAnimTypeExt@@U?$less@PBVVoxelAnimTypeClass@@@std@@V?$allocator@U?$pair@PBVVoxelAnimTypeClass@@PAVExtData@VoxelAnimTypeExt@@@std@@@5@@@QAE?AV?$_Vector_iterator@V?$_Vector_val@U?$_Simple_types@U?$pair@PBVVoxelAnimTypeClass@@PAVExtData@VoxelAnimTypeExt@@@std@@@std@@@std@@@std@@ABQBVVoxelAnimTypeClass@@@Z 10005f60 f i Body.obj
 0001:00004f60       ?lower_bound@?$VectorMap@PBVWarheadTypeClass@@PAVExtData@WarheadTypeExt@@U?$less@PBVWarheadTypeClass@@@std@@V?$allocator@U?$pair@PBVWarheadTypeClass@@PAVExtData@WarheadTypeExt@@@std@@@5@@@QAE?AV?$_Vector_iterator@V?$_Vector_val@U?$_Simple_types@U?$pair@PBVWarheadTypeClass@@PAVExtData@WarheadTypeExt@@@std@@@std@@@std@@@std@@ABQBVWarheadTypeClass@@@Z 10005f60 f i Body.obj
 0001:00004f60       ?lower_bound@?$VectorMap@PBVWeaponTypeClass@@PAVExtData@WeaponTypeExt@@U?$less@PBVWeaponTypeClass@@@std@@V?$allocator@U?$pair@PBVWeaponTypeClass@@PAVExtData@WeaponTypeExt@@@std@@@5@@@QAE?AV?$_Vector_iterator@V?$_Vector_val@U?$_Simple_types@U?$pair@PBVWeaponTypeClass@@PAVExtData@WeaponTypeExt@@@std@@@std@@@std@@@std@@ABQBVWeaponTypeClass@@@Z 10005f60 f i Body.obj
 0001:00004fb0       ?strcmpi@CRT@@SAHPBD0@Z    10005fb0 f i Body.obj
 0001:00004fc0       ?what@exception@std@@UBEPBDXZ 10005fc0 f i Body.obj
 0001:00004fd0       _AITriggerTypeClass_CTOR   10005fd0 f   Body.obj
 0001:000050c0       _AITriggerTypeClass_DTOR   100060c0 f   Body.obj
 0001:00005150       _AITriggerTypeClass_Load_Suffix 10006150 f   Body.obj
 0001:000051e0       _AITriggerTypeClass_SaveLoad_Prefix 100061e0 f   Body.obj
 0001:00005220       _AITriggerTypeClass_Save_Suffix 10006220 f   Body.obj
 0001:000052a0       ??$_Construct@$00PBD@?$basic_string@DU?$char_traits@D@std@@V?$allocator@D@2@@std@@AAEXQBDI@Z 100062a0 f i Hooks.obj
 0001:00005330       ?_Xran@?$_String_val@U?$_Simple_types@D@std@@@std@@SGXXZ 10006330 f i Hooks.obj
 0001:00005330       ?_Xran@?$_String_val@U?$_Simple_types@_W@std@@@std@@SGXXZ 10006330 f i PhobosToolTip.obj
 0001:00005340       _Phobos_AITrigger_Handler  10006340 f   Hooks.obj
 0001:00005580       _sprintf_s                 10006580 f i Hooks.obj
 0001:000055b0       ?CreateBullet@BulletTypeClass@@QAIPAVBulletClass@@PAVAbstractClass@@PAVTechnoClass@@HPAVWarheadTypeClass@@H_N@Z 100065b0 f i Hooks.obj
 0001:000055d0       ?DamageArea@MapClass@@SI?AW4DamageAreaResult@@ABUCoordStruct@@HPAVTechnoClass@@PAVWarheadTypeClass@@_NPAVHouseClass@@@Z 100065d0 f i Hooks.obj
 0001:000055f0       ?GetContainedTiberiumValue@CellClass@@QBEHXZ 100065f0 f i Hooks.obj
 0001:00005610       ?InWhichLayer@ObjectClass@@UBE?AW4Layer@@XZ 10006610 f i Hooks.obj
 0001:00005630       ?strcmp@CRT@@SAHPBD0@Z     10006630 f i Hooks.obj
 0001:00005640       _AnimClass_AI_Damage       10006640 f   Hooks.obj
 0001:000059a0       _AnimClass_AI_HideIfNoOre_Threshold 100069a0 f   Hooks.obj
 0001:00005a10       _AnimClass_AI_Next         10006a10 f   Hooks.obj
 0001:00005a80       _AnimClass_AttachTo_BuildingCoords 10006a80 f   Hooks.obj
 0001:00005ac0       _AnimClass_DrawIt_XDrawOffset 10006ac0 f   Hooks.obj
 0001:00005af0       _AnimClass_InWhichLayer_Override 10006af0 f   Hooks.obj
 0001:00005bc0       ??$Process@V?$Nullable@E@@@PhobosStreamReader@@QAEAAV0@AAV?$Nullable@E@@_N@Z 10006bc0 f i Body.obj
 0001:00005bc0       ??$Process@V?$Nullable@_N@@@PhobosStreamReader@@QAEAAV0@AAV?$Nullable@_N@@_N@Z 10006bc0 f i Body.obj
 0001:00005c20       ??$Serialize@VPhobosStreamReader@@@ExtData@AnimTypeExt@@AAEXAAVPhobosStreamReader@@@Z 10006c20 f i Body.obj
 0001:000061e0       ??$Serialize@VPhobosStreamWriter@@@ExtData@AnimTypeExt@@AAEXAAVPhobosStreamWriter@@@Z 100071e0 f i Body.obj
 0001:00006650       ??$_Emplace_reallocate@AAH@?$vector@HV?$allocator@H@std@@@std@@AAEPAHQAHAAH@Z 10007650 f i Body.obj
 0001:00006650       ??$_Emplace_reallocate@ABH@?$vector@HV?$allocator@H@std@@@std@@AAEPAHQAHABH@Z 10007650 f i Body.obj
 0001:00006650       ??$_Emplace_reallocate@ABQAVAnimTypeClass@@@?$vector@PAVAnimTypeClass@@V?$allocator@PAVAnimTypeClass@@@std@@@std@@AAEPAPAVAnimTypeClass@@QAPAV2@ABQAV2@@Z 10007650 f i Body.obj
 0001:00006650       ??$_Emplace_reallocate@ABQAVBuildingTypeClass@@@?$vector@PAVBuildingTypeClass@@V?$allocator@PAVBuildingTypeClass@@@std@@@std@@AAEPAPAVBuildingTypeClass@@QAPAV2@ABQAV2@@Z 10007650 f i Body.obj
 0001:00006650       ??$_Emplace_reallocate@ABQAVShieldTypeClass@@@?$vector@PAVShieldTypeClass@@V?$allocator@PAVShieldTypeClass@@@std@@@std@@AAEPAPAVShieldTypeClass@@QAPAV2@ABQAV2@@Z 10007650 f i Body.obj
 0001:00006650       ??$_Emplace_reallocate@ABQAVTechnoClass@@@?$vector@PAVTechnoClass@@V?$allocator@PAVTechnoClass@@@std@@@std@@AAEPAPAVTechnoClass@@QAPAV2@ABQAV2@@Z 10007650 f i Detonate.obj
 0001:00006650       ??$_Emplace_reallocate@ABQAVTechnoTypeClass@@@?$vector@PAVTechnoTypeClass@@V?$allocator@PAVTechnoTypeClass@@@std@@@std@@AAEPAPAVTechnoTypeClass@@QAPAV2@ABQAV2@@Z 10007650 f i Body.obj
 0001:00006650       ??$_Emplace_reallocate@ABQAVWeaponTypeClass@@@?$vector@PAVWeaponTypeClass@@V?$allocator@PAVWeaponTypeClass@@@std@@@std@@AAEPAPAVWeaponTypeClass@@QAPAV2@ABQAV2@@Z 10007650 f i Body.obj
 0001:00006650       ??$_Emplace_reallocate@ABW4LandType@@@?$vector@W4LandType@@V?$allocator@W4LandType@@@std@@@std@@AAEPAW4LandType@@QAW42@ABW42@@Z 10007650 f i Body.obj
 0001:00006650       ??$_Emplace_reallocate@ABW4TileType@@@?$vector@W4TileType@@V?$allocator@W4TileType@@@std@@@std@@AAEPAW4TileType@@QAW42@ABW42@@Z 10007650 f i Body.obj
 0001:00006650       ??$_Emplace_reallocate@H@?$vector@HV?$allocator@H@std@@@std@@AAEPAHQAH$$QAH@Z 10007650 f i Body.obj
 0001:00006650       ??$_Emplace_reallocate@PAVAnimTypeClass@@@?$vector@PAVAnimTypeClass@@V?$allocator@PAVAnimTypeClass@@@std@@@std@@AAEPAPAVAnimTypeClass@@QAPAV2@$$QAPAV2@@Z 10007650 f i Body.obj
 0001:00006650       ??$_Emplace_reallocate@PAVBuildingTypeClass@@@?$vector@PAVBuildingTypeClass@@V?$allocator@PAVBuildingTypeClass@@@std@@@std@@AAEPAPAVBuildingTypeClass@@QAPAV2@$$QAPAV2@@Z 10007650 f i Body.obj
 0001:00006650       ??$_Emplace_reallocate@PAVShieldTypeClass@@@?$vector@PAVShieldTypeClass@@V?$allocator@PAVShieldTypeClass@@@std@@@std@@AAEPAPAVShieldTypeClass@@QAPAV2@$$QAPAV2@@Z 10007650 f i Body.obj
 0001:00006650       ??$_Emplace_reallocate@PAVTechnoTypeClass@@@?$vector@PAVTechnoTypeClass@@V?$allocator@PAVTechnoTypeClass@@@std@@@std@@AAEPAPAVTechnoTypeClass@@QAPAV2@$$QAPAV2@@Z 10007650 f i Body.obj
 0001:00006650       ??$_Emplace_reallocate@PAVWeaponTypeClass@@@?$vector@PAVWeaponTypeClass@@V?$allocator@PAVWeaponTypeClass@@@std@@@std@@AAEPAPAVWeaponTypeClass@@QAPAV2@$$QAPAV2@@Z 10007650 f i Body.obj
 0001:00006780       ??$_Emplace_reallocate@ABULauchSWData@@@?$vector@ULauchSWData@@V?$allocator@ULauchSWData@@@std@@@std@@AAEPAULauchSWData@@QAU2@ABU2@@Z 10007780 f i Body.obj
 0001:00006780       ??$_Emplace_reallocate@ULauchSWData@@@?$vector@ULauchSWData@@V?$allocator@ULauchSWData@@@std@@@std@@AAEPAULauchSWData@@QAU2@$$QAU2@@Z 10007780 f i Body.obj
 0001:000068d0       ??$_Resize_reallocate@U_Value_init_tag@std@@@?$vector@ULauchSWData@@V?$allocator@ULauchSWData@@@std@@@std@@AAEXIABU_Value_init_tag@1@@Z 100078d0 f i Body.obj
 0001:000069e0       ??$_Uninitialized_move@PAULauchSWData@@V?$allocator@ULauchSWData@@@std@@@std@@YGPAULauchSWData@@QAU1@0PAU1@AAV?$allocator@ULauchSWData@@@0@@Z 100079e0 f i Body.obj
 0001:00006a60       ??$_Uninitialized_value_construct_n@V?$allocator@ULauchSWData@@@std@@@std@@YGPAULauchSWData@@PAU1@IAAV?$allocator@ULauchSWData@@@0@@Z 10007a60 f i Body.obj
 0001:00006aa0       ??$construct@ULauchSWData@@ABU1@@?$_Default_allocator_traits@V?$allocator@ULauchSWData@@@std@@@std@@SGXAAV?$allocator@ULauchSWData@@@1@QAULauchSWData@@ABU3@@Z 10007aa0 f i Body.obj
 0001:00006aa0       ??$construct@ULauchSWData@@U1@@?$_Default_allocator_traits@V?$allocator@ULauchSWData@@@std@@@std@@SGXAAV?$allocator@ULauchSWData@@@1@QAULauchSWData@@$$QAU3@@Z 10007aa0 f i Body.obj
 0001:00006b00       ??$parse_values@PAVAnimTypeClass@@@detail@@YGXAAV?$vector@PAVAnimTypeClass@@V?$allocator@PAVAnimTypeClass@@@std@@@std@@AAVINI_EX@@PBD2_N@Z 10007b00 f i Body.obj
 0001:00006bd0       ??$read@N@detail@@YG_NAANAAVINI_EX@@PBD2_N@Z 10007bd0 f i Body.obj
 0001:00006c80       ??$read@PAVWeaponTypeClass@@@detail@@YG_NAAPAVWeaponTypeClass@@AAVINI_EX@@PBD2_N@Z 10007c80 f i Body.obj
 0001:00006d20       ??$read@_N@detail@@YG_NAA_NAAVINI_EX@@PBD2_N@Z 10007d20 f i Body.obj
 0001:00006df0       ??0?$IndexClass@HH@@QAE@XZ 10007df0 f i Body.obj
 0001:00006e20       ??0?$TypeList@H@@QAE@XZ    10007e20 f i Body.obj
 0001:00006e20       ??0?$TypeList@PAVAnimTypeClass@@@@QAE@XZ 10007e20 f i Body.obj
 0001:00006e20       ??0?$TypeList@PAVBuildingTypeClass@@@@QAE@XZ 10007e20 f i Body.obj
 0001:00006e20       ??0?$TypeList@PAVParticleSystemTypeClass@@@@QAE@XZ 10007e20 f i Body.obj
 0001:00006e20       ??0?$TypeList@PAVVoxelAnimTypeClass@@@@QAE@XZ 10007e20 f i Body.obj
 0001:00006e60       ??0AnimTypeClass@@QAE@PBD@Z 10007e60 f i Body.obj
 0001:00006eb0       ??0ExtData@AnimTypeExt@@QAE@PAVAnimTypeClass@@@Z 10007eb0 f i Body.obj
 0001:00007000       ??0ParticleSystemTypeClass@@QAE@PBD@Z 10008000 f i Body.obj
 0001:00007050       ??0UnitTypeClass@@QAE@PBD@Z 10008050 f i Body.obj
 0001:000071b0       ??0WeaponTypeClass@@QAE@PBD@Z 100081b0 f i Body.obj
 0001:00007210       ??1?$vector@ULauchSWData@@V?$allocator@ULauchSWData@@@std@@@std@@QAE@XZ 10008210 f i Body.obj
 0001:00007280       ??1ExtContainer@AnimTypeExt@@UAE@XZ 10008280 f   Body.obj
 0001:000072e0       ??8?$VectorClass@H@@UBE_NABV0@@Z 100082e0 f i Body.obj
 0001:000072e0       ??8?$VectorClass@PAVAircraftClassExtension@@@@UBE_NABV0@@Z 100082e0 f i AbstractExt.obj
 0001:000072e0       ??8?$VectorClass@PAVAnimTypeClass@@@@UBE_NABV0@@Z 100082e0 f i Body.obj
 0001:000072e0       ??8?$VectorClass@PAVBuildingTypeClass@@@@UBE_NABV0@@Z 100082e0 f i Body.obj
 0001:000072e0       ??8?$VectorClass@PAVParticleClass@@@@UBE_NABV0@@Z 100082e0 f i Body.obj
 0001:000072e0       ??8?$VectorClass@PAVParticleSystemTypeClass@@@@UBE_NABV0@@Z 100082e0 f i Body.obj
 0001:000072e0       ??8?$VectorClass@PAVScriptTypeClass@@@@UBE_NABV0@@Z 100082e0 f i Body.obj
 0001:000072e0       ??8?$VectorClass@PAVSuperWeaponTypeClass@@@@UBE_NABV0@@Z 100082e0 f i Body.obj
 0001:000072e0       ??8?$VectorClass@PAVTechnoTypeClass@@@@UBE_NABV0@@Z 100082e0 f i Body.obj
 0001:000072e0       ??8?$VectorClass@PAVVoxelAnimTypeClass@@@@UBE_NABV0@@Z 100082e0 f i Body.obj
 0001:00007320       ??_E?$DynamicVectorClass@H@@UAEPAXI@Z 10008320 f i Body.obj
 0001:00007320       ??_E?$DynamicVectorClass@PAVAircraftClassExtension@@@@UAEPAXI@Z 10008320 f i AbstractExt.obj
 0001:00007320       ??_E?$DynamicVectorClass@PAVParticleClass@@@@UAEPAXI@Z 10008320 f i Body.obj
 0001:00007320       ??_E?$DynamicVectorClass@PAVScriptTypeClass@@@@UAEPAXI@Z 10008320 f i Body.obj
 0001:00007320       ??_E?$DynamicVectorClass@PAVSuperWeaponTypeClass@@@@UAEPAXI@Z 10008320 f i Body.obj
 0001:00007320       ??_E?$DynamicVectorClass@PAVTechnoTypeClass@@@@UAEPAXI@Z 10008320 f i Body.obj
 0001:00007320       ??_G?$DynamicVectorClass@H@@UAEPAXI@Z 10008320 f i Body.obj
 0001:00007320       ??_G?$DynamicVectorClass@PAVAircraftClassExtension@@@@UAEPAXI@Z 10008320 f i AbstractExt.obj
 0001:00007320       ??_G?$DynamicVectorClass@PAVParticleClass@@@@UAEPAXI@Z 10008320 f i Body.obj
 0001:00007320       ??_G?$DynamicVectorClass@PAVScriptTypeClass@@@@UAEPAXI@Z 10008320 f i Body.obj
 0001:00007320       ??_G?$DynamicVectorClass@PAVSuperWeaponTypeClass@@@@UAEPAXI@Z 10008320 f i Body.obj
 0001:00007320       ??_G?$DynamicVectorClass@PAVTechnoTypeClass@@@@UAEPAXI@Z 10008320 f i Body.obj
 0001:00007360       ??_E?$TypeList@H@@UAEPAXI@Z 10008360 f i Body.obj
 0001:00007360       ??_E?$TypeList@PAVAnimTypeClass@@@@UAEPAXI@Z 10008360 f i Body.obj
 0001:00007360       ??_E?$TypeList@PAVBuildingTypeClass@@@@UAEPAXI@Z 10008360 f i Body.obj
 0001:00007360       ??_E?$TypeList@PAVParticleSystemTypeClass@@@@UAEPAXI@Z 10008360 f i Body.obj
 0001:00007360       ??_E?$TypeList@PAVVoxelAnimTypeClass@@@@UAEPAXI@Z 10008360 f i Body.obj
 0001:00007360       ??_G?$TypeList@H@@UAEPAXI@Z 10008360 f i Body.obj
 0001:00007360       ??_G?$TypeList@PAVAnimTypeClass@@@@UAEPAXI@Z 10008360 f i Body.obj
 0001:00007360       ??_G?$TypeList@PAVBuildingTypeClass@@@@UAEPAXI@Z 10008360 f i Body.obj
 0001:00007360       ??_G?$TypeList@PAVParticleSystemTypeClass@@@@UAEPAXI@Z 10008360 f i Body.obj
 0001:00007360       ??_G?$TypeList@PAVVoxelAnimTypeClass@@@@UAEPAXI@Z 10008360 f i Body.obj
 0001:000073a0       ??_E?$VectorClass@H@@UAEPAXI@Z 100083a0 f i Body.obj
 0001:000073a0       ??_E?$VectorClass@PAVAircraftClassExtension@@@@UAEPAXI@Z 100083a0 f i AbstractExt.obj
 0001:000073a0       ??_E?$VectorClass@PAVAnimTypeClass@@@@UAEPAXI@Z 100083a0 f i Body.obj
 0001:000073a0       ??_E?$VectorClass@PAVBuildingTypeClass@@@@UAEPAXI@Z 100083a0 f i Body.obj
 0001:000073a0       ??_E?$VectorClass@PAVParticleClass@@@@UAEPAXI@Z 100083a0 f i Body.obj
 0001:000073a0       ??_E?$VectorClass@PAVParticleSystemTypeClass@@@@UAEPAXI@Z 100083a0 f i Body.obj
 0001:000073a0       ??_E?$VectorClass@PAVScriptTypeClass@@@@UAEPAXI@Z 100083a0 f i Body.obj
 0001:000073a0       ??_E?$VectorClass@PAVSuperWeaponTypeClass@@@@UAEPAXI@Z 100083a0 f i Body.obj
 0001:000073a0       ??_E?$VectorClass@PAVTechnoTypeClass@@@@UAEPAXI@Z 100083a0 f i Body.obj
 0001:000073a0       ??_E?$VectorClass@PAVVoxelAnimTypeClass@@@@UAEPAXI@Z 100083a0 f i Body.obj
 0001:000073a0       ??_G?$VectorClass@H@@UAEPAXI@Z 100083a0 f i Body.obj
 0001:000073a0       ??_G?$VectorClass@PAVAircraftClassExtension@@@@UAEPAXI@Z 100083a0 f i AbstractExt.obj
 0001:000073a0       ??_G?$VectorClass@PAVAnimTypeClass@@@@UAEPAXI@Z 100083a0 f i Body.obj
 0001:000073a0       ??_G?$VectorClass@PAVBuildingTypeClass@@@@UAEPAXI@Z 100083a0 f i Body.obj
 0001:000073a0       ??_G?$VectorClass@PAVParticleClass@@@@UAEPAXI@Z 100083a0 f i Body.obj
 0001:000073a0       ??_G?$VectorClass@PAVParticleSystemTypeClass@@@@UAEPAXI@Z 100083a0 f i Body.obj
 0001:000073a0       ??_G?$VectorClass@PAVScriptTypeClass@@@@UAEPAXI@Z 100083a0 f i Body.obj
 0001:000073a0       ??_G?$VectorClass@PAVSuperWeaponTypeClass@@@@UAEPAXI@Z 100083a0 f i Body.obj
 0001:000073a0       ??_G?$VectorClass@PAVTechnoTypeClass@@@@UAEPAXI@Z 100083a0 f i Body.obj
 0001:000073a0       ??_G?$VectorClass@PAVVoxelAnimTypeClass@@@@UAEPAXI@Z 100083a0 f i Body.obj
 0001:000073e0       ??_EExtContainer@AnimTypeExt@@UAEPAXI@Z 100083e0 f i Body.obj
 0001:000073e0       ??_GExtContainer@AnimTypeExt@@UAEPAXI@Z 100083e0 f i Body.obj
 0001:00007410       ??_EExtData@AnimTypeExt@@UAEPAXI@Z 10008410 f i Body.obj
 0001:00007410       ??_GExtData@AnimTypeExt@@UAEPAXI@Z 10008410 f i Body.obj
 0001:00007520       ??_ELauchSWData@@UAEPAXI@Z 10008520 f i Body.obj
 0001:00007520       ??_GLauchSWData@@UAEPAXI@Z 10008520 f i Body.obj
 0001:00007540       ?Clear@?$DynamicVectorClass@H@@UAEXXZ 10008540 f i Body.obj
 0001:00007540       ?Clear@?$DynamicVectorClass@PAVAircraftClassExtension@@@@UAEXXZ 10008540 f i AbstractExt.obj
 0001:00007540       ?Clear@?$DynamicVectorClass@PAVAnimTypeClass@@@@UAEXXZ 10008540 f i Body.obj
 0001:00007540       ?Clear@?$DynamicVectorClass@PAVBuildingTypeClass@@@@UAEXXZ 10008540 f i Body.obj
 0001:00007540       ?Clear@?$DynamicVectorClass@PAVParticleClass@@@@UAEXXZ 10008540 f i Body.obj
 0001:00007540       ?Clear@?$DynamicVectorClass@PAVParticleSystemTypeClass@@@@UAEXXZ 10008540 f i Body.obj
 0001:00007540       ?Clear@?$DynamicVectorClass@PAVScriptTypeClass@@@@UAEXXZ 10008540 f i Body.obj
 0001:00007540       ?Clear@?$DynamicVectorClass@PAVSuperWeaponTypeClass@@@@UAEXXZ 10008540 f i Body.obj
 0001:00007540       ?Clear@?$DynamicVectorClass@PAVTechnoTypeClass@@@@UAEXXZ 10008540 f i Body.obj
 0001:00007540       ?Clear@?$DynamicVectorClass@PAVVoxelAnimTypeClass@@@@UAEXXZ 10008540 f i Body.obj
 0001:00007540       ?Clear@?$DynamicVectorClass@UCoordStruct@@@@UAEXXZ 10008540 f i Body.obj
 0001:00007540       ?Clear@?$DynamicVectorClass@VPoint2D@@@@UAEXXZ 10008540 f i Body.obj
 0001:00007580       ?Clear@?$VectorClass@H@@UAEXXZ 10008580 f i Body.obj
 0001:00007580       ?Clear@?$VectorClass@PAVAircraftClassExtension@@@@UAEXXZ 10008580 f i AbstractExt.obj
 0001:00007580       ?Clear@?$VectorClass@PAVAnimTypeClass@@@@UAEXXZ 10008580 f i Body.obj
 0001:00007580       ?Clear@?$VectorClass@PAVBuildingTypeClass@@@@UAEXXZ 10008580 f i Body.obj
 0001:00007580       ?Clear@?$VectorClass@PAVParticleClass@@@@UAEXXZ 10008580 f i Body.obj
 0001:00007580       ?Clear@?$VectorClass@PAVParticleSystemTypeClass@@@@UAEXXZ 10008580 f i Body.obj
 0001:00007580       ?Clear@?$VectorClass@PAVScriptTypeClass@@@@UAEXXZ 10008580 f i Body.obj
 0001:00007580       ?Clear@?$VectorClass@PAVSuperWeaponTypeClass@@@@UAEXXZ 10008580 f i Body.obj
 0001:00007580       ?Clear@?$VectorClass@PAVTechnoTypeClass@@@@UAEXXZ 10008580 f i Body.obj
 0001:00007580       ?Clear@?$VectorClass@PAVVoxelAnimTypeClass@@@@UAEXXZ 10008580 f i Body.obj
 0001:00007580       ?Clear@?$VectorClass@UCoordStruct@@@@UAEXXZ 10008580 f i Body.obj
 0001:00007580       ?Clear@?$VectorClass@VPoint2D@@@@UAEXXZ 10008580 f i Body.obj
 0001:000075b0       ?Find@AnimTypeClass@@SIPAV1@PBD@Z 100085b0 f i Body.obj
 0001:000075f0       ?Find@ParticleSystemTypeClass@@SIPAV1@PBD@Z 100085f0 f i Body.obj
 0001:00007630       ?Find@UnitTypeClass@@SIPAV1@PBD@Z 10008630 f i Body.obj
 0001:00007670       ?Find@WeaponTypeClass@@SIPAV1@PBD@Z 10008670 f i Body.obj
 0001:000076b0       ?FindIndex@MissionControlClass@@SI?AW4Mission@@PBD@Z 100086b0 f i Body.obj
 0001:000076d0       ?FindItemIndex@?$DynamicVectorClass@H@@UBEHABH@Z 100086d0 f i Body.obj
 0001:000076d0       ?FindItemIndex@?$DynamicVectorClass@PAVAircraftClassExtension@@@@UBEHABQAVAircraftClassExtension@@@Z 100086d0 f i AbstractExt.obj
 0001:000076d0       ?FindItemIndex@?$DynamicVectorClass@PAVAnimTypeClass@@@@UBEHABQAVAnimTypeClass@@@Z 100086d0 f i Body.obj
 0001:000076d0       ?FindItemIndex@?$DynamicVectorClass@PAVBuildingTypeClass@@@@UBEHABQAVBuildingTypeClass@@@Z 100086d0 f i Body.obj
 0001:000076d0       ?FindItemIndex@?$DynamicVectorClass@PAVParticleClass@@@@UBEHABQAVParticleClass@@@Z 100086d0 f i Body.obj
 0001:000076d0       ?FindItemIndex@?$DynamicVectorClass@PAVParticleSystemTypeClass@@@@UBEHABQAVParticleSystemTypeClass@@@Z 100086d0 f i Body.obj
 0001:000076d0       ?FindItemIndex@?$DynamicVectorClass@PAVScriptTypeClass@@@@UBEHABQAVScriptTypeClass@@@Z 100086d0 f i Body.obj
 0001:000076d0       ?FindItemIndex@?$DynamicVectorClass@PAVSuperWeaponTypeClass@@@@UBEHABQAVSuperWeaponTypeClass@@@Z 100086d0 f i Body.obj
 0001:000076d0       ?FindItemIndex@?$DynamicVectorClass@PAVTechnoTypeClass@@@@UBEHABQAVTechnoTypeClass@@@Z 100086d0 f i Body.obj
 0001:000076d0       ?FindItemIndex@?$DynamicVectorClass@PAVVoxelAnimTypeClass@@@@UBEHABQAVVoxelAnimTypeClass@@@Z 100086d0 f i Body.obj
 0001:00007710       ?FindItemIndex@?$VectorClass@H@@UBEHABH@Z 10008710 f i Body.obj
 0001:00007710       ?FindItemIndex@?$VectorClass@PAVAircraftClassExtension@@@@UBEHABQAVAircraftClassExtension@@@Z 10008710 f i AbstractExt.obj
 0001:00007710       ?FindItemIndex@?$VectorClass@PAVAnimTypeClass@@@@UBEHABQAVAnimTypeClass@@@Z 10008710 f i Body.obj
 0001:00007710       ?FindItemIndex@?$VectorClass@PAVBuildingTypeClass@@@@UBEHABQAVBuildingTypeClass@@@Z 10008710 f i Body.obj
 0001:00007710       ?FindItemIndex@?$VectorClass@PAVParticleClass@@@@UBEHABQAVParticleClass@@@Z 10008710 f i Body.obj
 0001:00007710       ?FindItemIndex@?$VectorClass@PAVParticleSystemTypeClass@@@@UBEHABQAVParticleSystemTypeClass@@@Z 10008710 f i Body.obj
 0001:00007710       ?FindItemIndex@?$VectorClass@PAVScriptTypeClass@@@@UBEHABQAVScriptTypeClass@@@Z 10008710 f i Body.obj
 0001:00007710       ?FindItemIndex@?$VectorClass@PAVSuperWeaponTypeClass@@@@UBEHABQAVSuperWeaponTypeClass@@@Z 10008710 f i Body.obj
 0001:00007710       ?FindItemIndex@?$VectorClass@PAVTechnoTypeClass@@@@UBEHABQAVTechnoTypeClass@@@Z 10008710 f i Body.obj
 0001:00007710       ?FindItemIndex@?$VectorClass@PAVVoxelAnimTypeClass@@@@UBEHABQAVVoxelAnimTypeClass@@@Z 10008710 f i Body.obj
 0001:00007750       ?FindOrAllocate@AnimTypeClass@@SIPAV1@PBD@Z 10008750 f i Body.obj
 0001:000077b0       ?FindOrAllocate@UnitTypeClass@@SIPAV1@PBD@Z 100087b0 f i Body.obj
 0001:00007810       ?FindOrAllocate@WeaponTypeClass@@SIPAV1@PBD@Z 10008810 f i Body.obj
 0001:00007870       ?GetItem@?$VectorClass@H@@UBEHH@Z 10008870 f i Body.obj
 0001:00007870       ?GetItem@?$VectorClass@PAVAircraftClassExtension@@@@UBEPAVAircraftClassExtension@@H@Z 10008870 f i AbstractExt.obj
 0001:00007870       ?GetItem@?$VectorClass@PAVAnimTypeClass@@@@UBEPAVAnimTypeClass@@H@Z 10008870 f i Body.obj
 0001:00007870       ?GetItem@?$VectorClass@PAVBuildingTypeClass@@@@UBEPAVBuildingTypeClass@@H@Z 10008870 f i Body.obj
 0001:00007870       ?GetItem@?$VectorClass@PAVParticleClass@@@@UBEPAVParticleClass@@H@Z 10008870 f i Body.obj
 0001:00007870       ?GetItem@?$VectorClass@PAVParticleSystemTypeClass@@@@UBEPAVParticleSystemTypeClass@@H@Z 10008870 f i Body.obj
 0001:00007870       ?GetItem@?$VectorClass@PAVScriptTypeClass@@@@UBEPAVScriptTypeClass@@H@Z 10008870 f i Body.obj
 0001:00007870       ?GetItem@?$VectorClass@PAVSuperWeaponTypeClass@@@@UBEPAVSuperWeaponTypeClass@@H@Z 10008870 f i Body.obj
 0001:00007870       ?GetItem@?$VectorClass@PAVTechnoTypeClass@@@@UBEPAVTechnoTypeClass@@H@Z 10008870 f i Body.obj
 0001:00007870       ?GetItem@?$VectorClass@PAVVoxelAnimTypeClass@@@@UBEPAVVoxelAnimTypeClass@@H@Z 10008870 f i Body.obj
 0001:00007880       ?GetItemIndex@?$VectorClass@H@@UBEHPBH@Z 10008880 f i Body.obj
 0001:00007880       ?GetItemIndex@?$VectorClass@PAVAircraftClassExtension@@@@UBEHPBQAVAircraftClassExtension@@@Z 10008880 f i AbstractExt.obj
 0001:00007880       ?GetItemIndex@?$VectorClass@PAVAnimTypeClass@@@@UBEHPBQAVAnimTypeClass@@@Z 10008880 f i Body.obj
 0001:00007880       ?GetItemIndex@?$VectorClass@PAVBuildingTypeClass@@@@UBEHPBQAVBuildingTypeClass@@@Z 10008880 f i Body.obj
 0001:00007880       ?GetItemIndex@?$VectorClass@PAVParticleClass@@@@UBEHPBQAVParticleClass@@@Z 10008880 f i Body.obj
 0001:00007880       ?GetItemIndex@?$VectorClass@PAVParticleSystemTypeClass@@@@UBEHPBQAVParticleSystemTypeClass@@@Z 10008880 f i Body.obj
 0001:00007880       ?GetItemIndex@?$VectorClass@PAVScriptTypeClass@@@@UBEHPBQAVScriptTypeClass@@@Z 10008880 f i Body.obj
 0001:00007880       ?GetItemIndex@?$VectorClass@PAVSuperWeaponTypeClass@@@@UBEHPBQAVSuperWeaponTypeClass@@@Z 10008880 f i Body.obj
 0001:00007880       ?GetItemIndex@?$VectorClass@PAVTechnoTypeClass@@@@UBEHPBQAVTechnoTypeClass@@@Z 10008880 f i Body.obj
 0001:00007880       ?GetItemIndex@?$VectorClass@PAVVoxelAnimTypeClass@@@@UBEHPBQAVVoxelAnimTypeClass@@@Z 10008880 f i Body.obj
 0001:000078a0       ?GetSection@INIClass@@QAEPAVINISection@1@PBD@Z 100088a0 f i Body.obj
 0001:000078c0       ?InitializeConstants@ExtData@AnimTypeExt@@UAEXXZ 100088c0 f i Body.obj
 0001:00007920       ?Load@?$Container@VAnimTypeExt@@@@MAE_NPAVAnimTypeClass@@PAUIStream@@@Z 10008920 f i Body.obj
 0001:00007940       ?Load@?$ValueableVector@PAVAnimTypeClass@@@@QAE_NAAVPhobosStreamReader@@_N@Z 10008940 f i Body.obj
 0001:00007940       ?Load@?$ValueableVector@PAVWeaponTypeClass@@@@QAE_NAAVPhobosStreamReader@@_N@Z 10008940 f i Body.obj
 0001:00007a10       ?LoadFromINIFile@ExtData@AnimTypeExt@@UAEXPAVCCINIClass@@@Z 10008a10 f   Body.obj
 0001:00007fb0       ?LoadFromStream@ExtData@AnimTypeExt@@UAEXAAVPhobosStreamReader@@@Z 10008fb0 f   Body.obj
 0001:00007fe0       ?LoadGlobals@AnimExt@@SG_NAAVPhobosStreamReader@@@Z 10008fe0 f   Body.obj
 0001:00007fe0       ?LoadGlobals@AnimTypeExt@@SG_NAAVPhobosStreamReader@@@Z 10008fe0 f   Body.obj
 0001:00007fe0       ?LoadGlobals@BuildingExt@@SG_NAAVPhobosStreamReader@@@Z 10008fe0 f   Body.obj
 0001:00007fe0       ?LoadGlobals@BuildingTypeExt@@SG_NAAVPhobosStreamReader@@@Z 10008fe0 f   Body.obj
 0001:00007fe0       ?LoadGlobals@BulletExt@@SG_NAAVPhobosStreamReader@@@Z 10008fe0 f   Body.obj
 0001:00007fe0       ?LoadGlobals@BulletTypeExt@@SG_NAAVPhobosStreamReader@@@Z 10008fe0 f   Body.obj
 0001:00007fe0       ?LoadGlobals@CaptureExt@@SG_NAAVPhobosStreamReader@@@Z 10008fe0 f   Body.obj
 0001:00007fe0       ?LoadGlobals@CellExt@@SG_NAAVPhobosStreamReader@@@Z 10008fe0 f   Body.obj
 0001:00007fe0       ?LoadGlobals@HouseExt@@SG_NAAVPhobosStreamReader@@@Z 10008fe0 f   Body.obj
 0001:00007fe0       ?LoadGlobals@ParasiteExt@@SG_NAAVPhobosStreamReader@@@Z 10008fe0 f   Body.obj
 0001:00007fe0       ?LoadGlobals@ParticleTypeExt@@SG_NAAVPhobosStreamReader@@@Z 10008fe0 f   Body.obj
 0001:00007fe0       ?LoadGlobals@RadSiteExt@@SG_NAAVPhobosStreamReader@@@Z 10008fe0 f   Body.obj
 0001:00007fe0       ?LoadGlobals@RulesExt@@SG_NAAVPhobosStreamReader@@@Z 10008fe0 f   Body.obj
 0001:00007fe0       ?LoadGlobals@ScenarioExt@@SG_NAAVPhobosStreamReader@@@Z 10008fe0 f   Body.obj
 0001:00007fe0       ?LoadGlobals@ScriptExt@@SG_NAAVPhobosStreamReader@@@Z 10008fe0 f   Body.obj
 0001:00007fe0       ?LoadGlobals@ScriptTypeExt@@SG_NAAVPhobosStreamReader@@@Z 10008fe0 f   Body.obj
 0001:00007fe0       ?LoadGlobals@SideExt@@SG_NAAVPhobosStreamReader@@@Z 10008fe0 f   Body.obj
 0001:00007fe0       ?LoadGlobals@SmudgeTypeExt@@SG_NAAVPhobosStreamReader@@@Z 10008fe0 f   Body.obj
 0001:00007fe0       ?LoadGlobals@SuperExt@@SG_NAAVPhobosStreamReader@@@Z 10008fe0 f   Body.obj
 0001:00007fe0       ?LoadGlobals@TActionExt@@SG_NAAVPhobosStreamReader@@@Z 10008fe0 f   Body.obj
 0001:00007fe0       ?LoadGlobals@TeamExt@@SG_NAAVPhobosStreamReader@@@Z 10008fe0 f   Body.obj
 0001:00007fe0       ?LoadGlobals@TeamTypeExt@@SG_NAAVPhobosStreamReader@@@Z 10008fe0 f   Body.obj
 0001:00007fe0       ?LoadGlobals@TechnoExt@@SG_NAAVPhobosStreamReader@@@Z 10008fe0 f   Body.obj
 0001:00007fe0       ?LoadGlobals@TechnoTypeExt@@SG_NAAVPhobosStreamReader@@@Z 10008fe0 f   Body.obj
 0001:00007fe0       ?LoadGlobals@TerrainExt@@SG_NAAVPhobosStreamReader@@@Z 10008fe0 f   Body.obj
 0001:00007fe0       ?LoadGlobals@TerrainTypeExt@@SG_NAAVPhobosStreamReader@@@Z 10008fe0 f   Body.obj
 0001:00007fe0       ?LoadGlobals@TiberiumExt@@SG_NAAVPhobosStreamReader@@@Z 10008fe0 f   Body.obj
 0001:00007fe0       ?LoadGlobals@VoxelAnimExt@@SG_NAAVPhobosStreamReader@@@Z 10008fe0 f   Body.obj
 0001:00007fe0       ?LoadGlobals@VoxelAnimTypeExt@@SG_NAAVPhobosStreamReader@@@Z 10008fe0 f   Body.obj
 0001:00007fe0       ?LoadGlobals@WarheadTypeExt@@SG_NAAVPhobosStreamReader@@@Z 10008fe0 f   Body.obj
 0001:00007fe0       ?SaveGlobals@AnimExt@@SG_NAAVPhobosStreamWriter@@@Z 10008fe0 f   Body.obj
 0001:00007fe0       ?SaveGlobals@AnimTypeExt@@SG_NAAVPhobosStreamWriter@@@Z 10008fe0 f   Body.obj
 0001:00007fe0       ?SaveGlobals@BuildingExt@@SG_NAAVPhobosStreamWriter@@@Z 10008fe0 f   Body.obj
 0001:00007fe0       ?SaveGlobals@BuildingTypeExt@@SG_NAAVPhobosStreamWriter@@@Z 10008fe0 f   Body.obj
 0001:00007fe0       ?SaveGlobals@BulletExt@@SG_NAAVPhobosStreamWriter@@@Z 10008fe0 f   Body.obj
 0001:00007fe0       ?SaveGlobals@BulletTypeExt@@SG_NAAVPhobosStreamWriter@@@Z 10008fe0 f   Body.obj
 0001:00007fe0       ?SaveGlobals@CaptureExt@@SG_NAAVPhobosStreamWriter@@@Z 10008fe0 f   Body.obj
 0001:00007fe0       ?SaveGlobals@CellExt@@SG_NAAVPhobosStreamWriter@@@Z 10008fe0 f   Body.obj
 0001:00007fe0       ?SaveGlobals@HouseExt@@SG_NAAVPhobosStreamWriter@@@Z 10008fe0 f   Body.obj
 0001:00007fe0       ?SaveGlobals@ParasiteExt@@SG_NAAVPhobosStreamWriter@@@Z 10008fe0 f   Body.obj
 0001:00007fe0       ?SaveGlobals@ParticleTypeExt@@SG_NAAVPhobosStreamWriter@@@Z 10008fe0 f   Body.obj
 0001:00007fe0       ?SaveGlobals@RadSiteExt@@SG_NAAVPhobosStreamWriter@@@Z 10008fe0 f   Body.obj
 0001:00007fe0       ?SaveGlobals@RulesExt@@SG_NAAVPhobosStreamWriter@@@Z 10008fe0 f   Body.obj
 0001:00007fe0       ?SaveGlobals@ScenarioExt@@SG_NAAVPhobosStreamWriter@@@Z 10008fe0 f   Body.obj
 0001:00007fe0       ?SaveGlobals@ScriptExt@@SG_NAAVPhobosStreamWriter@@@Z 10008fe0 f   Body.obj
 0001:00007fe0       ?SaveGlobals@ScriptTypeExt@@SG_NAAVPhobosStreamWriter@@@Z 10008fe0 f   Body.obj
 0001:00007fe0       ?SaveGlobals@SideExt@@SG_NAAVPhobosStreamWriter@@@Z 10008fe0 f   Body.obj
 0001:00007fe0       ?SaveGlobals@SmudgeTypeExt@@SG_NAAVPhobosStreamWriter@@@Z 10008fe0 f   Body.obj
 0001:00007fe0       ?SaveGlobals@SuperExt@@SG_NAAVPhobosStreamWriter@@@Z 10008fe0 f   Body.obj
 0001:00007fe0       ?SaveGlobals@TActionExt@@SG_NAAVPhobosStreamWriter@@@Z 10008fe0 f   Body.obj
 0001:00007fe0       ?SaveGlobals@TeamExt@@SG_NAAVPhobosStreamWriter@@@Z 10008fe0 f   Body.obj
 0001:00007fe0       ?SaveGlobals@TeamTypeExt@@SG_NAAVPhobosStreamWriter@@@Z 10008fe0 f   Body.obj
 0001:00007fe0       ?SaveGlobals@TechnoExt@@SG_NAAVPhobosStreamWriter@@@Z 10008fe0 f   Body.obj
 0001:00007fe0       ?SaveGlobals@TechnoTypeExt@@SG_NAAVPhobosStreamWriter@@@Z 10008fe0 f   Body.obj
 0001:00007fe0       ?SaveGlobals@TerrainExt@@SG_NAAVPhobosStreamWriter@@@Z 10008fe0 f   Body.obj
 0001:00007fe0       ?SaveGlobals@TerrainTypeExt@@SG_NAAVPhobosStreamWriter@@@Z 10008fe0 f   Body.obj
 0001:00007fe0       ?SaveGlobals@TiberiumExt@@SG_NAAVPhobosStreamWriter@@@Z 10008fe0 f   Body.obj
 0001:00007fe0       ?SaveGlobals@VoxelAnimExt@@SG_NAAVPhobosStreamWriter@@@Z 10008fe0 f   Body.obj
 0001:00007fe0       ?SaveGlobals@VoxelAnimTypeExt@@SG_NAAVPhobosStreamWriter@@@Z 10008fe0 f   Body.obj
 0001:00007fe0       ?SaveGlobals@WarheadTypeExt@@SG_NAAVPhobosStreamWriter@@@Z 10008fe0 f   Body.obj
 0001:00007ff0       ?LoadKey@?$Container@VAnimTypeExt@@@@IAEPAVExtData@AnimTypeExt@@PAVAnimTypeClass@@PAUIStream@@@Z 10008ff0 f i Body.obj
 0001:00008160       ?ProcessDestroyAnims@AnimTypeExt@@SGXPAVUnitClass@@PAVTechnoClass@@@Z 10009160 f   Body.obj
 0001:00008310       ?Read@?$Nullable@H@@QAEXAAVINI_EX@@PBD1_N@Z 10009310 f i Body.obj
 0001:00008370       ?Read@?$Nullable@N@@QAEXAAVINI_EX@@PBD1_N@Z 10009370 f i Body.obj
 0001:000083a0       ?Read@?$Nullable@PAVAnimTypeClass@@@@QAEXAAVINI_EX@@PBD1_N@Z 100093a0 f i Body.obj
 0001:00008440       ?Read@?$Nullable@PAVWeaponTypeClass@@@@QAEXAAVINI_EX@@PBD1_N@Z 10009440 f i Body.obj
 0001:00008470       ?Read@?$Nullable@_N@@QAEXAAVINI_EX@@PBD1_N@Z 10009470 f i Body.obj
 0001:000084a0       ?Read@?$NullableVector@PAVAnimTypeClass@@@@QAEXAAVINI_EX@@PBD1@Z 100094a0 f i Body.obj
 0001:00008510       ?Read@?$Valueable@G@@QAEXAAVINI_EX@@PBD1_N@Z 10009510 f i Body.obj
 0001:00008540       ?Read@?$Valueable@H@@QAEXAAVINI_EX@@PBD1_N@Z 10009540 f i Body.obj
 0001:00008590       ?Read@?$Valueable@N@@QAEXAAVINI_EX@@PBD1_N@Z 10009590 f i Body.obj
 0001:000085b0       ?Read@?$Valueable@PAVParticleSystemTypeClass@@@@QAEXAAVINI_EX@@PBD1_N@Z 100095b0 f i Body.obj
 0001:00008670       ?Read@?$Valueable@PAVUnitTypeClass@@@@QAEXAAVINI_EX@@PBD1_N@Z 10009670 f i Body.obj
 0001:00008710       ?Read@?$Valueable@W4Mission@@@@QAEXAAVINI_EX@@PBD1_N@Z 10009710 f i Body.obj
 0001:00008780       ?Read@?$Valueable@W4OwnerHouseKind@@@@QAEXAAVINI_EX@@PBD1_N@Z 10009780 f i Body.obj
 0001:000088d0       ?Read@?$Valueable@_N@@QAEXAAVINI_EX@@PBD1_N@Z 100098d0 f i Body.obj
 0001:000088f0       ?Read@?$ValueableVector@PAVAnimTypeClass@@@@QAEXAAVINI_EX@@PBD1_N@Z 100098f0 f i Body.obj
 0001:00008940       ?ReadFromStream@?$PhobosStreamObject@V?$vector@ULauchSWData@@V?$allocator@ULauchSWData@@@std@@@std@@@Savegame@@QBE_NAAVPhobosStreamReader@@AAV?$vector@ULauchSWData@@V?$allocator@ULauchSWData@@@std@@@std@@_N@Z 10009940 f i Body.obj
 0001:00008a70       ?ReadInteger@INI_EX@@QAE_NPBD0PAH@Z 10009a70 f i Body.obj
 0001:00008b20       ?ReadString@INIClass@@QAEHPBD00PADI@Z 10009b20 f i Body.obj
 0001:00008b40       ?Save@?$Container@VAnimTypeExt@@@@MAE_NPAVAnimTypeClass@@PAUIStream@@@Z 10009b40 f i Body.obj
 0001:00008c50       ?Save@?$ValueableVector@H@@QBE_NAAVPhobosStreamWriter@@@Z 10009c50 f i Body.obj
 0001:00008c50       ?Save@?$ValueableVector@PAVAnimTypeClass@@@@QBE_NAAVPhobosStreamWriter@@@Z 10009c50 f i Body.obj
 0001:00008c50       ?Save@?$ValueableVector@PAVWeaponTypeClass@@@@QBE_NAAVPhobosStreamWriter@@@Z 10009c50 f i Body.obj
 0001:00008ca0       ?SaveToStream@ExtData@AnimTypeExt@@UAEXAAVPhobosStreamWriter@@@Z 10009ca0 f   Body.obj
 0001:00008cd0       ?SetCapacity@?$DynamicVectorClass@H@@UAE_NHPAH@Z 10009cd0 f i Body.obj
 0001:00008cd0       ?SetCapacity@?$DynamicVectorClass@PAVAircraftClassExtension@@@@UAE_NHPAPAVAircraftClassExtension@@@Z 10009cd0 f i AbstractExt.obj
 0001:00008cd0       ?SetCapacity@?$DynamicVectorClass@PAVAnimTypeClass@@@@UAE_NHPAPAVAnimTypeClass@@@Z 10009cd0 f i Body.obj
 0001:00008cd0       ?SetCapacity@?$DynamicVectorClass@PAVBuildingTypeClass@@@@UAE_NHPAPAVBuildingTypeClass@@@Z 10009cd0 f i Body.obj
 0001:00008cd0       ?SetCapacity@?$DynamicVectorClass@PAVParticleClass@@@@UAE_NHPAPAVParticleClass@@@Z 10009cd0 f i Body.obj
 0001:00008cd0       ?SetCapacity@?$DynamicVectorClass@PAVParticleSystemTypeClass@@@@UAE_NHPAPAVParticleSystemTypeClass@@@Z 10009cd0 f i Body.obj
 0001:00008cd0       ?SetCapacity@?$DynamicVectorClass@PAVScriptTypeClass@@@@UAE_NHPAPAVScriptTypeClass@@@Z 10009cd0 f i Body.obj
 0001:00008cd0       ?SetCapacity@?$DynamicVectorClass@PAVSuperWeaponTypeClass@@@@UAE_NHPAPAVSuperWeaponTypeClass@@@Z 10009cd0 f i Body.obj
 0001:00008cd0       ?SetCapacity@?$DynamicVectorClass@PAVTechnoTypeClass@@@@UAE_NHPAPAVTechnoTypeClass@@@Z 10009cd0 f i Body.obj
 0001:00008cd0       ?SetCapacity@?$DynamicVectorClass@PAVVoxelAnimTypeClass@@@@UAE_NHPAPAVVoxelAnimTypeClass@@@Z 10009cd0 f i Body.obj
 0001:00008d80       ?SetCapacity@?$VectorClass@H@@UAE_NHPAH@Z 10009d80 f i Body.obj
 0001:00008d80       ?SetCapacity@?$VectorClass@PAVAircraftClassExtension@@@@UAE_NHPAPAVAircraftClassExtension@@@Z 10009d80 f i AbstractExt.obj
 0001:00008d80       ?SetCapacity@?$VectorClass@PAVAnimTypeClass@@@@UAE_NHPAPAVAnimTypeClass@@@Z 10009d80 f i Body.obj
 0001:00008d80       ?SetCapacity@?$VectorClass@PAVBuildingTypeClass@@@@UAE_NHPAPAVBuildingTypeClass@@@Z 10009d80 f i Body.obj
 0001:00008d80       ?SetCapacity@?$VectorClass@PAVParticleClass@@@@UAE_NHPAPAVParticleClass@@@Z 10009d80 f i Body.obj
 0001:00008d80       ?SetCapacity@?$VectorClass@PAVParticleSystemTypeClass@@@@UAE_NHPAPAVParticleSystemTypeClass@@@Z 10009d80 f i Body.obj
 0001:00008d80       ?SetCapacity@?$VectorClass@PAVScriptTypeClass@@@@UAE_NHPAPAVScriptTypeClass@@@Z 10009d80 f i Body.obj
 0001:00008d80       ?SetCapacity@?$VectorClass@PAVSuperWeaponTypeClass@@@@UAE_NHPAPAVSuperWeaponTypeClass@@@Z 10009d80 f i Body.obj
 0001:00008d80       ?SetCapacity@?$VectorClass@PAVTechnoTypeClass@@@@UAE_NHPAPAVTechnoTypeClass@@@Z 10009d80 f i Body.obj
 0001:00008d80       ?SetCapacity@?$VectorClass@PAVVoxelAnimTypeClass@@@@UAE_NHPAPAVVoxelAnimTypeClass@@@Z 10009d80 f i Body.obj
 0001:00008e30       ?WriteToStream@?$PhobosStreamObject@_N@Savegame@@QBE_NAAVPhobosStreamWriter@@AB_N@Z 10009e30 f i Body.obj
 0001:00008e50       ?_Change_array@?$vector@HV?$allocator@H@std@@@std@@AAEXQAHII@Z 10009e50 f i Body.obj
 0001:00008e50       ?_Change_array@?$vector@MV?$allocator@M@std@@@std@@AAEXQAMII@Z 10009e50 f i Body.obj
 0001:00008e50       ?_Change_array@?$vector@PAVAnimClass@@V?$allocator@PAVAnimClass@@@std@@@std@@AAEXQAPAVAnimClass@@II@Z 10009e50 f i Body.obj
 0001:00008e50       ?_Change_array@?$vector@PAVAnimTypeClass@@V?$allocator@PAVAnimTypeClass@@@std@@@std@@AAEXQAPAVAnimTypeClass@@II@Z 10009e50 f i Body.obj
 0001:00008e50       ?_Change_array@?$vector@PAVBuildingClass@@V?$allocator@PAVBuildingClass@@@std@@@std@@AAEXQAPAVBuildingClass@@II@Z 10009e50 f i Body.obj
 0001:00008e50       ?_Change_array@?$vector@PAVBuildingTypeClass@@V?$allocator@PAVBuildingTypeClass@@@std@@@std@@AAEXQAPAVBuildingTypeClass@@II@Z 10009e50 f i Body.obj
 0001:00008e50       ?_Change_array@?$vector@PAVShieldTypeClass@@V?$allocator@PAVShieldTypeClass@@@std@@@std@@AAEXQAPAVShieldTypeClass@@II@Z 10009e50 f i Body.obj
 0001:00008e50       ?_Change_array@?$vector@PAVTechnoClass@@V?$allocator@PAVTechnoClass@@@std@@@std@@AAEXQAPAVTechnoClass@@II@Z 10009e50 f i Detonate.obj
 0001:00008e50       ?_Change_array@?$vector@PAVTechnoTypeClass@@V?$allocator@PAVTechnoTypeClass@@@std@@@std@@AAEXQAPAVTechnoTypeClass@@II@Z 10009e50 f i Body.obj
 0001:00008e50       ?_Change_array@?$vector@PAVVerticalLaserClass@@V?$allocator@PAVVerticalLaserClass@@@std@@@std@@AAEXQAPAVVerticalLaserClass@@II@Z 10009e50 f i VerticalLaserClass.obj
 0001:00008e50       ?_Change_array@?$vector@PAVWeaponTypeClass@@V?$allocator@PAVWeaponTypeClass@@@std@@@std@@AAEXQAPAVWeaponTypeClass@@II@Z 10009e50 f i Body.obj
 0001:00008e50       ?_Change_array@?$vector@W4LandType@@V?$allocator@W4LandType@@@std@@@std@@AAEXQAW4LandType@@II@Z 10009e50 f i Body.obj
 0001:00008e50       ?_Change_array@?$vector@W4TileType@@V?$allocator@W4TileType@@@std@@@std@@AAEXQAW4TileType@@II@Z 10009e50 f i Body.obj
 0001:00008eb0       ?_Change_array@?$vector@ULauchSWData@@V?$allocator@ULauchSWData@@@std@@@std@@AAEXQAULauchSWData@@II@Z 10009eb0 f i Body.obj
 0001:00008f30       ?_Reallocate_exactly@?$vector@HV?$allocator@H@std@@@std@@AAEXI@Z 10009f30 f i Body.obj
 0001:00008f30       ?_Reallocate_exactly@?$vector@MV?$allocator@M@std@@@std@@AAEXI@Z 10009f30 f i Body.obj
 0001:00008f30       ?_Reallocate_exactly@?$vector@PAVAnimClass@@V?$allocator@PAVAnimClass@@@std@@@std@@AAEXI@Z 10009f30 f i Body.obj
 0001:00008f30       ?_Reallocate_exactly@?$vector@PAVAnimTypeClass@@V?$allocator@PAVAnimTypeClass@@@std@@@std@@AAEXI@Z 10009f30 f i Body.obj
 0001:00008f30       ?_Reallocate_exactly@?$vector@PAVBuildingClass@@V?$allocator@PAVBuildingClass@@@std@@@std@@AAEXI@Z 10009f30 f i Body.obj
 0001:00008f30       ?_Reallocate_exactly@?$vector@PAVBuildingTypeClass@@V?$allocator@PAVBuildingTypeClass@@@std@@@std@@AAEXI@Z 10009f30 f i Body.obj
 0001:00008f30       ?_Reallocate_exactly@?$vector@PAVShieldTypeClass@@V?$allocator@PAVShieldTypeClass@@@std@@@std@@AAEXI@Z 10009f30 f i Body.obj
 0001:00008f30       ?_Reallocate_exactly@?$vector@PAVTechnoClass@@V?$allocator@PAVTechnoClass@@@std@@@std@@AAEXI@Z 10009f30 f i Detonate.obj
 0001:00008f30       ?_Reallocate_exactly@?$vector@PAVTechnoTypeClass@@V?$allocator@PAVTechnoTypeClass@@@std@@@std@@AAEXI@Z 10009f30 f i Body.obj
 0001:00008f30       ?_Reallocate_exactly@?$vector@PAVVerticalLaserClass@@V?$allocator@PAVVerticalLaserClass@@@std@@@std@@AAEXI@Z 10009f30 f i VerticalLaserClass.obj
 0001:00008f30       ?_Reallocate_exactly@?$vector@PAVWeaponTypeClass@@V?$allocator@PAVWeaponTypeClass@@@std@@@std@@AAEXI@Z 10009f30 f i Body.obj
 0001:00008f30       ?_Reallocate_exactly@?$vector@W4LandType@@V?$allocator@W4LandType@@@std@@@std@@AAEXI@Z 10009f30 f i Body.obj
 0001:00008f30       ?_Reallocate_exactly@?$vector@W4TileType@@V?$allocator@W4TileType@@@std@@@std@@AAEXI@Z 10009f30 f i Body.obj
 0001:00009010       ?_Reallocate_exactly@?$vector@ULauchSWData@@V?$allocator@ULauchSWData@@@std@@@std@@AAEXI@Z 1000a010 f i Body.obj
 0001:000090b0       ?allocate@?$allocator@H@std@@QAEPAHI@Z 1000a0b0 f i Body.obj
 0001:000090b0       ?allocate@?$allocator@M@std@@QAEPAMI@Z 1000a0b0 f i Body.obj
 0001:000090b0       ?allocate@?$allocator@PAVAnimClass@@@std@@QAEPAPAVAnimClass@@I@Z 1000a0b0 f i Body.obj
 0001:000090b0       ?allocate@?$allocator@PAVAnimTypeClass@@@std@@QAEPAPAVAnimTypeClass@@I@Z 1000a0b0 f i Body.obj
 0001:000090b0       ?allocate@?$allocator@PAVBuildingClass@@@std@@QAEPAPAVBuildingClass@@I@Z 1000a0b0 f i Body.obj
 0001:000090b0       ?allocate@?$allocator@PAVBuildingTypeClass@@@std@@QAEPAPAVBuildingTypeClass@@I@Z 1000a0b0 f i Body.obj
 0001:000090b0       ?allocate@?$allocator@PAVShieldTypeClass@@@std@@QAEPAPAVShieldTypeClass@@I@Z 1000a0b0 f i Body.obj
 0001:000090b0       ?allocate@?$allocator@PAVTechnoClass@@@std@@QAEPAPAVTechnoClass@@I@Z 1000a0b0 f i Detonate.obj
 0001:000090b0       ?allocate@?$allocator@PAVTechnoTypeClass@@@std@@QAEPAPAVTechnoTypeClass@@I@Z 1000a0b0 f i Body.obj
 0001:000090b0       ?allocate@?$allocator@PAVVerticalLaserClass@@@std@@QAEPAPAVVerticalLaserClass@@I@Z 1000a0b0 f i VerticalLaserClass.obj
 0001:000090b0       ?allocate@?$allocator@PAVWeaponTypeClass@@@std@@QAEPAPAVWeaponTypeClass@@I@Z 1000a0b0 f i Body.obj
 0001:000090b0       ?allocate@?$allocator@V?$unique_ptr@VLaserTrailClass@@U?$default_delete@VLaserTrailClass@@@std@@@std@@@std@@QAEPAV?$unique_ptr@VLaserTrailClass@@U?$default_delete@VLaserTrailClass@@@std@@@2@I@Z 1000a0b0 f i Body.obj
 0001:000090b0       ?allocate@?$allocator@V?$unique_ptr@VUniversalTrail@@U?$default_delete@VUniversalTrail@@@std@@@std@@@std@@QAEPAV?$unique_ptr@VUniversalTrail@@U?$default_delete@VUniversalTrail@@@std@@@2@I@Z 1000a0b0 f i Body.obj
 0001:000090b0       ?allocate@?$allocator@W4LandType@@@std@@QAEPAW4LandType@@I@Z 1000a0b0 f i Body.obj
 0001:000090b0       ?allocate@?$allocator@W4TileType@@@std@@QAEPAW4TileType@@I@Z 1000a0b0 f i Body.obj
 0001:00009110       ?allocate@?$allocator@ULauchSWData@@@std@@QAEPAULauchSWData@@I@Z 1000a110 f i Body.obj
 0001:00009170       ?deallocate@?$allocator@H@std@@QAEXQAHI@Z 1000a170 f i Body.obj
 0001:00009170       ?deallocate@?$allocator@M@std@@QAEXQAMI@Z 1000a170 f i Body.obj
 0001:00009170       ?deallocate@?$allocator@PAVAbstractClass@@@std@@QAEXQAPAVAbstractClass@@I@Z 1000a170 f i Hooks.obj
 0001:00009170       ?deallocate@?$allocator@PAVAnimClass@@@std@@QAEXQAPAVAnimClass@@I@Z 1000a170 f i Body.obj
 0001:00009170       ?deallocate@?$allocator@PAVAnimTypeClass@@@std@@QAEXQAPAVAnimTypeClass@@I@Z 1000a170 f i Body.obj
 0001:00009170       ?deallocate@?$allocator@PAVBuildingClass@@@std@@QAEXQAPAVBuildingClass@@I@Z 1000a170 f i Body.obj
 0001:00009170       ?deallocate@?$allocator@PAVBuildingTypeClass@@@std@@QAEXQAPAVBuildingTypeClass@@I@Z 1000a170 f i Body.obj
 0001:00009170       ?deallocate@?$allocator@PAVElectricBoltClass@@@std@@QAEXQAPAVElectricBoltClass@@I@Z 1000a170 f i ElectricBoltClass.obj
 0001:00009170       ?deallocate@?$allocator@PAVFootClass@@@std@@QAEXQAPAVFootClass@@I@Z 1000a170 f i Body.obj
 0001:00009170       ?deallocate@?$allocator@PAVShieldTypeClass@@@std@@QAEXQAPAVShieldTypeClass@@I@Z 1000a170 f i Body.obj
 0001:00009170       ?deallocate@?$allocator@PAVTechnoClass@@@std@@QAEXQAPAVTechnoClass@@I@Z 1000a170 f i Detonate.obj
 0001:00009170       ?deallocate@?$allocator@PAVTechnoTypeClass@@@std@@QAEXQAPAVTechnoTypeClass@@I@Z 1000a170 f i Body.obj
 0001:00009170       ?deallocate@?$allocator@PAVVerticalLaserClass@@@std@@QAEXQAPAVVerticalLaserClass@@I@Z 1000a170 f i VerticalLaserClass.obj
 0001:00009170       ?deallocate@?$allocator@PAVWeaponTypeClass@@@std@@QAEXQAPAVWeaponTypeClass@@I@Z 1000a170 f i Body.obj
 0001:00009170       ?deallocate@?$allocator@V?$unique_ptr@VArmorTypeClass@@U?$default_delete@VArmorTypeClass@@@std@@@std@@@std@@QAEXQAV?$unique_ptr@VArmorTypeClass@@U?$default_delete@VArmorTypeClass@@@std@@@2@I@Z 1000a170 f i ArmorTypeClass.obj
 0001:00009170       ?deallocate@?$allocator@V?$unique_ptr@VHoverTypeClass@@U?$default_delete@VHoverTypeClass@@@std@@@std@@@std@@QAEXQAV?$unique_ptr@VHoverTypeClass@@U?$default_delete@VHoverTypeClass@@@std@@@2@I@Z 1000a170 f i Hooks.Hover.obj
 0001:00009170       ?deallocate@?$allocator@V?$unique_ptr@VLaserTrailClass@@U?$default_delete@VLaserTrailClass@@@std@@@std@@@std@@QAEXQAV?$unique_ptr@VLaserTrailClass@@U?$default_delete@VLaserTrailClass@@@std@@@2@I@Z 1000a170 f i Body.obj
 0001:00009170       ?deallocate@?$allocator@V?$unique_ptr@VLaserTrailTypeClass@@U?$default_delete@VLaserTrailTypeClass@@@std@@@std@@@std@@QAEXQAV?$unique_ptr@VLaserTrailTypeClass@@U?$default_delete@VLaserTrailTypeClass@@@std@@@2@I@Z 1000a170 f i Body.obj
 0001:00009170       ?deallocate@?$allocator@V?$unique_ptr@VRadTypeClass@@U?$default_delete@VRadTypeClass@@@std@@@std@@@std@@QAEXQAV?$unique_ptr@VRadTypeClass@@U?$default_delete@VRadTypeClass@@@std@@@2@I@Z 1000a170 f i RadTypeClass.obj
 0001:00009170       ?deallocate@?$allocator@V?$unique_ptr@VShieldTypeClass@@U?$default_delete@VShieldTypeClass@@@std@@@std@@@std@@QAEXQAV?$unique_ptr@VShieldTypeClass@@U?$default_delete@VShieldTypeClass@@@std@@@2@I@Z 1000a170 f i Body.obj
 0001:00009170       ?deallocate@?$allocator@V?$unique_ptr@VTrailType@@U?$default_delete@VTrailType@@@std@@@std@@@std@@QAEXQAV?$unique_ptr@VTrailType@@U?$default_delete@VTrailType@@@std@@@2@I@Z 1000a170 f i Body.obj
 0001:00009170       ?deallocate@?$allocator@V?$unique_ptr@VUniversalTrail@@U?$default_delete@VUniversalTrail@@@std@@@std@@@std@@QAEXQAV?$unique_ptr@VUniversalTrail@@U?$default_delete@VUniversalTrail@@@std@@@2@I@Z 1000a170 f i Body.obj
 0001:00009170       ?deallocate@?$allocator@VCellStruct@@@std@@QAEXQAVCellStruct@@I@Z 1000a170 f i GeneralUtils.obj
 0001:00009170       ?deallocate@?$allocator@W4LandType@@@std@@QAEXQAW4LandType@@I@Z 1000a170 f i Body.obj
 0001:00009170       ?deallocate@?$allocator@W4TileType@@@std@@QAEXQAW4TileType@@I@Z 1000a170 f i Body.obj
 0001:000091b0       ?deallocate@?$allocator@ULauchSWData@@@std@@QAEXQAULauchSWData@@I@Z 1000a1b0 f i Body.obj
 0001:000091f0       _AnimTypeClass_CTOR        1000a1f0 f   Body.obj
 0001:000092e0       _AnimTypeClass_LoadFromINI 1000a2e0 f   Body.obj
 0001:00009380       _AnimTypeClass_Load_Suffix 1000a380 f   Body.obj
 0001:00009410       _AnimTypeClass_SDDTOR      1000a410 f   Body.obj
 0001:000094a0       _AnimTypeClass_SaveLoad_Prefix 1000a4a0 f   Body.obj
 0001:000094e0       _AnimTypeClass_Save_Suffix 1000a4e0 f   Body.obj
 0001:00009560       ___local_stdio_scanf_options 1000a560 f i Body.obj
 0001:00009570       _sscanf_s                  1000a570 f i Body.obj
 0001:000095a0       ?AddTracking@HouseClass@@QAEXPAVTechnoClass@@@Z 1000a5a0 f i Hooks.AnimCreateUnit.obj
 0001:000095c0       ?GetBuilding@CellClass@@QBEPAVBuildingClass@@XZ 1000a5c0 f i Hooks.AnimCreateUnit.obj
 0001:000095e0       ?GetCellFloorHeight@MapClass@@QBEHABUCoordStruct@@@Z 1000a5e0 f i Hooks.AnimCreateUnit.obj
 0001:00009600       ?GetCoordsWithBridge@CellClass@@QBE?AUCoordStruct@@XZ 1000a600 f i Hooks.AnimCreateUnit.obj
 0001:00009650       ?RegisterGain@HouseClass@@QAEXPAVTechnoClass@@_N@Z 1000a650 f i Hooks.AnimCreateUnit.obj
 0001:00009670       _ActionClass_PlayAnimAt    1000a670 f   Hooks.AnimCreateUnit.obj
 0001:000096a0       _AnimClass_Update_CreateUnit_ActualAffects 1000a6a0 f   Hooks.AnimCreateUnit.obj
 0001:00009910       _AnimClass_Update_CreateUnit_MarkOccupationBits 1000a910 f   Hooks.AnimCreateUnit.obj
 0001:000099b0       _BulletClass_Logics_DamageAnimSelected 1000a9b0 f   Hooks.AnimCreateUnit.obj
 0001:00009a50       _UnitClass_Destroy_DestroyAnim 1000aa50 f   Hooks.AnimCreateUnit.obj
 0001:00009a80       _UnitClass_TakeDamage_Destroy 1000aa80 f   Hooks.AnimCreateUnit.obj
 0001:00009af0       _AnimClass_Draw_Tiled_CustomPalette 1000aaf0 f   Hooks.Drawings.obj
 0001:00009c00       ??R<lambda_1>@?4??SpawnMultiple@Otamaa@Helper@@YGXABV?$vector@PAVAnimTypeClass@@V?$allocator@PAVAnimTypeClass@@@std@@@std@@AAV?$DynamicVectorClass@H@@ABUCoordStruct@@PAVTechnoClass@@PAVHouseClass@@_N@Z@QBE@H@Z 1000ac00 f i Hooks.Otamaa.obj
 0001:00009c80       ?CreateRandomSmudge@SmudgeTypeClass@@SIXAAUCoordStruct@@HH_N@Z 1000ac80 f i Hooks.Otamaa.obj
 0001:00009ca0       ?CreateRandomSmudgeFromTypeList@SmudgeTypeClass@@SIXAAUCoordStruct@@HH_N@Z 1000aca0 f i Hooks.Otamaa.obj
 0001:00009cc0       ?Detonate@Otamaa@Helper@@YG?AU?$pair@_NH@std@@HPAVWarheadTypeClass@@_NABUCoordStruct@@PAVTechnoClass@@PAVHouseClass@@1@Z 1000acc0 f i Hooks.Otamaa.obj
 0001:00009d70       ?FlashbangWarheadAt@MapClass@@SIXHPAVWarheadTypeClass@@UCoordStruct@@_NW4SpotlightFlags@@@Z 1000ad70 f i Hooks.Otamaa.obj
 0001:00009d90       ?GetContainedTiberiumIndex@CellClass@@QBEHXZ 1000ad90 f i Hooks.Otamaa.obj
 0001:00009db0       ?GetCoords@BounceClass@@QBEPAUCoordStruct@@PAU2@@Z 1000adb0 f i Hooks.Otamaa.obj
 0001:00009dd0       ?GetRandomCoordsNear@MapClass@@SIPAUCoordStruct@@AAU2@ABU2@H_N@Z 1000add0 f i Hooks.Otamaa.obj
 0001:00009df0       ?PickSplashAnim@Otamaa@Helper@@YGPAVAnimTypeClass@@ABV?$NullableVector@PAVAnimTypeClass@@@@PAV3@_N2@Z 1000adf0 f i Hooks.Otamaa.obj
 0001:00009fc0       ?RandomDouble@Random2Class@@QAENXZ 1000afc0 f i Hooks.Otamaa.obj
 0001:00009ff0       ?ReduceTiberium@CellClass@@QBEXH@Z 1000aff0 f i Hooks.Otamaa.obj
 0001:0000a010       ?SelectDamageAnimation@MapClass@@SIPAVAnimTypeClass@@HPAVWarheadTypeClass@@W4LandType@@ABUCoordStruct@@@Z 1000b010 f i Hooks.Otamaa.obj
 0001:0000a030       ?SpawnParticle@ParticleSystemClass@@QAEPAVParticleClass@@PAVParticleTypeClass@@PAUCoordStruct@@@Z 1000b030 f i Hooks.Otamaa.obj
 0001:0000a050       _AnimClass_AI_HasExtras_Expired 1000b050 f   Hooks.Otamaa.obj
 0001:0000a320       _AnimClass_Middle_SpawnCreater 1000b320 f   Hooks.Otamaa.obj
 0001:0000a470       _AnimClass_Middle_SpawnParticle 1000b470 f   Hooks.Otamaa.obj
 0001:0000a860       _Generate_OreTwinkle_Anims 1000b860 f   Hooks.Otamaa.obj
 0001:0000a940       ?GetOwningHouse_Wrapper@AnimExt@@SIPAVHouseClass@@PAVAnimClass@@PAX@Z 1000b940 f i Hooks.Ownerships.obj
 0001:0000a950       _AnimClass_BounceAI_BounceAnim 1000b950 f   Hooks.Ownerships.obj
 0001:0000a9f0       _AnimClass_Spawns_Override 1000b9f0 f   Hooks.Ownerships.obj
 0001:0000aaa0       _AnimClass_Trail_Override  1000baa0 f   Hooks.Ownerships.obj
 0001:0000ab40       ??$Serialize@VPhobosStreamReader@@@ExtData@AnimExt@@AAEXAAVPhobosStreamReader@@@Z 1000bb40 f i Body.obj
 0001:0000ac30       ??0?$DynamicVectorClass@PAVParticleClass@@@@QAE@XZ 1000bc30 f i Body.obj
 0001:0000ac60       ??0ParticleSystemClass@@QAE@PAVParticleSystemTypeClass@@ABUCoordStruct@@PAVAbstractClass@@PAVObjectClass@@1PAVHouseClass@@@Z 1000bc60 f i Body.obj
 0001:0000acb0       ??1ExtContainer@AnimExt@@UAE@XZ 1000bcb0 f   Body.obj
 0001:0000ad10       ??_EExtContainer@AnimExt@@UAEPAXI@Z 1000bd10 f i Body.obj
 0001:0000ad10       ??_GExtContainer@AnimExt@@UAEPAXI@Z 1000bd10 f i Body.obj
 0001:0000ad40       ??_EExtData@AnimExt@@UAEPAXI@Z 1000bd40 f i Body.obj
 0001:0000ad40       ??_GExtData@AnimExt@@UAEPAXI@Z 1000bd40 f i Body.obj
 0001:0000ada0       ?CreateAttachedSystem@ExtData@AnimExt@@QAEXXZ 1000bda0 f   Body.obj
 0001:0000ada0       ?InitializeConstants@ExtData@AnimExt@@UAEXXZ 1000bda0 f   Body.obj
 0001:0000ae10       ?DeleteAttachedSystem@ExtData@AnimExt@@QAEXXZ 1000be10 f   Body.obj
 0001:0000ae50       ?DestroyPointer@AnimClass@@QBEXXZ 1000be50 f i Body.obj
 0001:0000ae70       ?GetExtData@AnimExt@@SGPAVExtData@1@PAVAnimClass@@@Z 1000be70 f   Body.obj
 0001:0000ae90       ?GetTechnoInvoker@AnimExt@@SGPAVTechnoClass@@PAVAnimClass@@_N@Z 1000be90 f   Body.obj
 0001:0000af20       ?InvalidateExtDataIgnorable@ExtContainer@AnimExt@@UBE_NQAX@Z 1000bf20 f i Body.obj
 0001:0000af70       ?InvalidatePointer@ExtData@AnimExt@@UAEXQAX_N@Z 1000bf70 f   Body.obj
 0001:0000af90       ?Load@?$Container@VAnimExt@@@@MAE_NPAVAnimClass@@PAUIStream@@@Z 1000bf90 f i Body.obj
 0001:0000afb0       ?LoadFromStream@ExtData@AnimExt@@UAEXAAVPhobosStreamReader@@@Z 1000bfb0 f   Body.obj
 0001:0000afe0       ?LoadKey@?$Container@VAnimExt@@@@IAEPAVExtData@AnimExt@@PAVAnimClass@@PAUIStream@@@Z 1000bfe0 f i Body.obj
 0001:0000b190       ?Save@?$Container@VAnimExt@@@@MAE_NPAVAnimClass@@PAUIStream@@@Z 1000c190 f i Body.obj
 0001:0000b2f0       ?SaveToStream@ExtData@AnimExt@@UAEXAAVPhobosStreamWriter@@@Z 1000c2f0 f   Body.obj
 0001:0000b380       ?SetAnimOwnerHouseKind@AnimExt@@SG?B_NPAVAnimClass@@PAVExtData@AnimTypeExt@@PAVHouseClass@@2_N@Z 1000c380 f   Body.obj
 0001:0000b420       ?SetAnimOwnerHouseKind@AnimExt@@SG?B_NPAVAnimClass@@PAVHouseClass@@1PAVTechnoClass@@_N@Z 1000c420 f   Body.obj
 0001:0000b4f0       ?SetAnimOwnerHouseKind@AnimExt@@SG?B_NPAVAnimClass@@PAVHouseClass@@1_N@Z 1000c4f0 f   Body.obj
 0001:0000b5a0       _AnimClass_AltExt_CTOR     1000c5a0 f   Body.obj
 0001:0000b6f0       _AnimClass_AltExt_Load_Suffix 1000c6f0 f   Body.obj
 0001:0000b780       _AnimClass_AltExt_SaveLoad_Prefix 1000c780 f   Body.obj
 0001:0000b7c0       _AnimClass_AltExt_Save_Suffix 1000c7c0 f   Body.obj
 0001:0000b840       _AnimClass_SDDTOR          1000c840 f   Body.obj
 0001:0000b940       ??1ExtContainer@BombExt@@UAE@XZ 1000c940 f   Body.obj
 0001:0000b9a0       ??_EExtContainer@BombExt@@UAEPAXI@Z 1000c9a0 f i Body.obj
 0001:0000b9a0       ??_GExtContainer@BombExt@@UAEPAXI@Z 1000c9a0 f i Body.obj
 0001:0000b9d0       ?DamageArea@BombExt@@SI?AW4DamageAreaResult@@PAUCoordStruct@@HPAVTechnoClass@@PAVWarheadTypeClass@@_NPAVHouseClass@@@Z 1000c9d0 f   Body.obj
 0001:0000bb00       ?GetOwningHouse@BombExt@@SIPAVHouseClass@@PAVBombClass@@PAX@Z 1000cb00 f   Body.obj
 0001:0000bb10       ?InvalidatePointer@ExtContainer@BombExt@@UAEXPAX_N@Z 1000cb10 f   Body.obj
 0001:0000bb30       ?Load@?$Container@VBombExt@@@@MAE_NPAVBombClass@@PAUIStream@@@Z 1000cb30 f i Body.obj
 0001:0000bcb0       ?LoadGlobals@BombExt@@SG_NAAVPhobosStreamReader@@@Z 1000ccb0 f   Body.obj
 0001:0000bcf0       ?Save@?$Container@VBombExt@@@@MAE_NPAVBombClass@@PAUIStream@@@Z 1000ccf0 f i Body.obj
 0001:0000bde0       ?SaveGlobals@BombExt@@SG_NAAVPhobosStreamWriter@@@Z 1000cde0 f   Body.obj
 0001:0000be00       _BombClass_CTOR            1000ce00 f   Body.obj
 0001:0000bef0       _BombClass_Load_Suffix     1000cef0 f   Body.obj
 0001:0000bf80       _BombClass_SDDTOR          1000cf80 f   Body.obj
 0001:0000c010       _BombClass_SaveLoad_Prefix 1000d010 f   Body.obj
 0001:0000c050       _BombClass_Save_Suffix     1000d050 f   Body.obj
 0001:0000c0d0       _BombClass_Detonate_ExplosionAnimHandled 1000d0d0 f   Hooks.obj
 0001:0000c0e0       _BombClass_Detonate_fetch  1000d0e0 f   Hooks.obj
 0001:0000c0f0       ?CoordsToClient@TacticalClass@@QBE_NABUCoordStruct@@PAVPoint2D@@@Z 1000d0f0 f i Hooks.obj
 0001:0000c0f0       ?CoordsToClient@TacticalClass@@QBE_NPBUCoordStruct@@PAVPoint2D@@@Z 1000d0f0 f i Hooks.obj
 0001:0000c110       ?GetDrawer@TechnoClass@@QBEPAVLightConvertClass@@XZ 1000d110 f i Hooks.obj
 0001:0000c130       ?GetFloorHeight@CellClass@@QBEHABVPoint2D@@@Z 1000d130 f i Hooks.obj
 0001:0000c150       ?TryGetCellAt@MapClass@@QBEPAVCellClass@@ABVCellStruct@@@Z 1000d150 f i Hooks.obj
 0001:0000c180       _BuildingClass_AI_Temporaled_Chronosparkle_MuzzleFix 1000d180 f   Hooks.obj
 0001:0000c1c0       _BuildingClass_FireOffset_Replace_MuzzleFix 1000d1c0 f   Hooks.obj
 0001:0000c200       _BuildingClass_KillOccupiers_Replace_MuzzleFix 1000d200 f   Hooks.obj
 0001:0000c240       _BuildingTypeClass_LoadFromINI_Muzzle 1000d240 f   Hooks.obj
 0001:0000c280       _TacticalClass_DrawPlacement_PlacementPreview 1000d280 f   Hooks.obj
 0001:0000c4d0       ??$sprintf_s@$0IAA@@@YAHAAY0IAA@DPBDZZ 1000d4d0 f i Hooks.Otamaa.obj
 0001:0000c500       ?PlayAt@VocClass@@SIXHABUCoordStruct@@PAUAudioController@@@Z 1000d500 f i Hooks.Otamaa.obj
 0001:0000c520       ?ReadInteger@INIClass@@QAEHPBD0H@Z 1000d520 f i Hooks.Otamaa.obj
 0001:0000c540       ?TimeToBuild@TechnoClass@@QBEHXZ 1000d540 f i Hooks.Otamaa.obj
 0001:0000c560       ?_Xrange@?$vector@HV?$allocator@H@std@@@std@@CGXXZ 1000d560 f i Hooks.Otamaa.obj
 0001:0000c560       ?_Xrange@?$vector@PAVAnimTypeClass@@V?$allocator@PAVAnimTypeClass@@@std@@@std@@CGXXZ 1000d560 f i Body.obj
 0001:0000c570       _BuildingClass_459470_BunkerDownSound 1000d570 f   Hooks.Otamaa.obj
 0001:0000c5d0       _BuildingClass_4595C0_BunkerDownSound 1000d5d0 f   Hooks.Otamaa.obj
 0001:0000c630       _BuildingClass_BunkerWallUpSound 1000d630 f   Hooks.Otamaa.obj
 0001:0000c690       _BuildingClass_Repair_AI_Step 1000d690 f   Hooks.Otamaa.obj
 0001:0000c700       _BuildingTypeClass_LoadFromINI_PowerUPZAdjust 1000d700 f   Hooks.Otamaa.obj
 0001:0000c760       _FactoryClass_Start_ExternalBonus 1000d760 f   Hooks.Otamaa.obj
 0001:0000c7b0       _FactoryClass_TimeToBuild_ExternalBonus 1000d7b0 f   Hooks.Otamaa.obj
 0001:0000c800       _HouseClass_GenerateAIBuildList_AIBuildInstead 1000d800 f   Hooks.Otamaa.obj
 0001:0000c900       _HouseClass_RecalcAllFactory_ExternalBonus 1000d900 f   Hooks.Otamaa.obj
 0001:0000c950       _TechnoClass_Draw_Object_NormalLight 1000d950 f   Hooks.Otamaa.obj
 0001:0000c9b0       _TechnoClass_FireAt_BunkerDamageBonus 1000d9b0 f   Hooks.Otamaa.obj
 0001:0000ca50       _TechnoClass_FireAt_OccupyDamageBonus 1000da50 f   Hooks.Otamaa.obj
 0001:0000caf0       _TechnoClass_RearmDelay_BuildingBunkerROFMult 1000daf0 f   Hooks.Otamaa.obj
 0001:0000cbb0       _TechnoClass_RearmDelay_BuildingOccupyROFMult 1000dbb0 f   Hooks.Otamaa.obj
 0001:0000cc70       _TechnoClass_canHealRepair_Building 1000dc70 f   Hooks.Otamaa.obj
 0001:0000ccf0       _TechnoTypeClass_GetRepairCost_Building 1000dcf0 f   Hooks.Otamaa.obj
 0001:0000cda0       _TechnoTypeClass_GetRepairStep_Building 1000dda0 f   Hooks.Otamaa.obj
 0001:0000ce00       ??$Process@V?$DynamicVectorClass@PAVSuperWeaponTypeClass@@@@@PhobosStreamReader@@QAEAAV0@AAV?$DynamicVectorClass@PAVSuperWeaponTypeClass@@@@_N@Z 1000de00 f i Body.obj
 0001:0000cf20       ??$Process@V?$DynamicVectorClass@VPoint2D@@@@@PhobosStreamReader@@QAEAAV0@AAV?$DynamicVectorClass@VPoint2D@@@@_N@Z 1000df20 f i Body.obj
 0001:0000cff0       ??$Process@V?$DynamicVectorClass@VPoint2D@@@@@PhobosStreamWriter@@QAEAAV0@AAV?$DynamicVectorClass@VPoint2D@@@@_N@Z 1000dff0 f i Body.obj
 0001:0000d050       ??$Process@V?$Nullable@H@@@PhobosStreamReader@@QAEAAV0@AAV?$Nullable@H@@_N@Z 1000e050 f i Body.obj
 0001:0000d050       ??$Process@V?$Nullable@W4SelfHealGainType@@@@@PhobosStreamReader@@QAEAAV0@AAV?$Nullable@W4SelfHealGainType@@@@_N@Z 1000e050 f i Body.obj
 0001:0000d050       ??$Process@V?$NullableIdx@VAnimTypeClass@@@@@PhobosStreamReader@@QAEAAV0@AAV?$NullableIdx@VAnimTypeClass@@@@_N@Z 1000e050 f i Body.obj
 0001:0000d050       ??$Process@V?$NullableIdx@VVocClass@@@@@PhobosStreamReader@@QAEAAV0@AAV?$NullableIdx@VVocClass@@@@_N@Z 1000e050 f i Body.obj
 0001:0000d050       ??$Process@V?$NullableIdx@VVoxClass@@@@@PhobosStreamReader@@QAEAAV0@AAV?$NullableIdx@VVoxClass@@@@_N@Z 1000e050 f i Body.obj
 0001:0000d0b0       ??$Process@V?$Nullable@M@@@PhobosStreamReader@@QAEAAV0@AAV?$Nullable@M@@_N@Z 1000e0b0 f i Body.obj
 0001:0000d110       ??$Process@V?$Nullable@PAVAnimTypeClass@@@@@PhobosStreamReader@@QAEAAV0@AAV?$Nullable@PAVAnimTypeClass@@@@_N@Z 1000e110 f i Body.obj
 0001:0000d110       ??$Process@V?$Nullable@PAVHoverTypeClass@@@@@PhobosStreamReader@@QAEAAV0@AAV?$Nullable@PAVHoverTypeClass@@@@_N@Z 1000e110 f i Body.obj
 0001:0000d110       ??$Process@V?$Nullable@PAVParticleSystemTypeClass@@@@@PhobosStreamReader@@QAEAAV0@AAV?$Nullable@PAVParticleSystemTypeClass@@@@_N@Z 1000e110 f i Body.obj
 0001:0000d110       ??$Process@V?$Nullable@PAVWarheadTypeClass@@@@@PhobosStreamReader@@QAEAAV0@AAV?$Nullable@PAVWarheadTypeClass@@@@_N@Z 1000e110 f i Body.obj
 0001:0000d110       ??$Process@V?$Nullable@PAVWeaponTypeClass@@@@@PhobosStreamReader@@QAEAAV0@AAV?$Nullable@PAVWeaponTypeClass@@@@_N@Z 1000e110 f i Body.obj
 0001:0000d180       ??$Process@V?$NullableVector@PAVAnimTypeClass@@@@@PhobosStreamReader@@QAEAAV0@AAV?$NullableVector@PAVAnimTypeClass@@@@_N@Z 1000e180 f i Body.obj
 0001:0000d290       ??$Process@V?$NullableVector@PAVAnimTypeClass@@@@@PhobosStreamWriter@@QAEAAV0@AAV?$NullableVector@PAVAnimTypeClass@@@@_N@Z 1000e290 f i Body.obj
 0001:0000d2f0       ??$Process@V?$PhobosMap@HPAVAnimTypeClass@@@@@PhobosStreamReader@@QAEAAV0@AAV?$PhobosMap@HPAVAnimTypeClass@@@@_N@Z 1000e2f0 f i Body.obj
 0001:0000d420       ??$Process@V?$PhobosMap@HPAVAnimTypeClass@@@@@PhobosStreamWriter@@QAEAAV0@AAV?$PhobosMap@HPAVAnimTypeClass@@@@_N@Z 1000e420 f i Body.obj
 0001:0000d480       ??$Process@V?$ValueableVector@PAVAnimTypeClass@@@@@PhobosStreamReader@@QAEAAV0@AAV?$ValueableVector@PAVAnimTypeClass@@@@_N@Z 1000e480 f i Body.obj
 0001:0000d480       ??$Process@V?$ValueableVector@PAVBuildingTypeClass@@@@@PhobosStreamReader@@QAEAAV0@AAV?$ValueableVector@PAVBuildingTypeClass@@@@_N@Z 1000e480 f i Body.obj
 0001:0000d480       ??$Process@V?$ValueableVector@PAVShieldTypeClass@@@@@PhobosStreamReader@@QAEAAV0@AAV?$ValueableVector@PAVShieldTypeClass@@@@_N@Z 1000e480 f i Body.obj
 0001:0000d480       ??$Process@V?$ValueableVector@PAVTechnoTypeClass@@@@@PhobosStreamReader@@QAEAAV0@AAV?$ValueableVector@PAVTechnoTypeClass@@@@_N@Z 1000e480 f i Body.obj
 0001:0000d560       ??$Process@V?$ValueableVector@H@@@PhobosStreamWriter@@QAEAAV0@AAV?$ValueableVector@H@@_N@Z 1000e560 f i Body.obj
 0001:0000d560       ??$Process@V?$ValueableVector@PAVAnimTypeClass@@@@@PhobosStreamWriter@@QAEAAV0@AAV?$ValueableVector@PAVAnimTypeClass@@@@_N@Z 1000e560 f i Body.obj
 0001:0000d560       ??$Process@V?$ValueableVector@PAVShieldTypeClass@@@@@PhobosStreamWriter@@QAEAAV0@AAV?$ValueableVector@PAVShieldTypeClass@@@@_N@Z 1000e560 f i Body.obj
 0001:0000d560       ??$Process@V?$ValueableVector@PAVTechnoTypeClass@@@@@PhobosStreamWriter@@QAEAAV0@AAV?$ValueableVector@PAVTechnoTypeClass@@@@_N@Z 1000e560 f i Body.obj
 0001:0000d560       ??$Process@V?$ValueableVector@PAVWeaponTypeClass@@@@@PhobosStreamWriter@@QAEAAV0@AAV?$ValueableVector@PAVWeaponTypeClass@@@@_N@Z 1000e560 f i Body.obj
 0001:0000d5b0       ??$ReadPhobosStream@PAUSHPStruct@@@Savegame@@YG_NAAVPhobosStreamReader@@AAPAUSHPStruct@@_N@Z 1000e5b0 f i Body.obj
 0001:0000d6e0       ??$Serialize@VPhobosStreamReader@@@ExtData@BuildingTypeExt@@AAEXAAVPhobosStreamReader@@@Z 1000e6e0 f i Body.obj
 0001:0000de30       ??$Serialize@VPhobosStreamWriter@@@ExtData@BuildingTypeExt@@AAEXAAVPhobosStreamWriter@@@Z 1000ee30 f i Body.obj
 0001:0000e6a0       ??$WritePhobosStream@PAUSHPStruct@@@Savegame@@YG_NAAVPhobosStreamWriter@@ABQAUSHPStruct@@@Z 1000f6a0 f i Body.obj
 0001:0000e7c0       ??$WritePhobosStream@V?$basic_string@DU?$char_traits@D@std@@V?$allocator@D@2@@std@@@Savegame@@YG_NAAVPhobosStreamWriter@@ABV?$basic_string@DU?$char_traits@D@std@@V?$allocator@D@2@@std@@@Z 1000f7c0 f i Body.obj
 0001:0000e800       ??$_Emplace_reallocate@ABHPAVAnimTypeClass@@@?$vector@U?$pair@HPAVAnimTypeClass@@@std@@V?$allocator@U?$pair@HPAVAnimTypeClass@@@std@@@2@@std@@AAEPAU?$pair@HPAVAnimTypeClass@@@1@QAU21@ABH$$QAPAVAnimTypeClass@@@Z 1000f800 f i Body.obj
 0001:0000e930       ??$_Reallocate_grow_by@V<lambda_1>@?1??replace@?$basic_string@DU?$char_traits@D@std@@V?$allocator@D@2@@std@@QAEAAV34@IIQBDI@Z@IIPBDI@?$basic_string@DU?$char_traits@D@std@@V?$allocator@D@2@@std@@AAEAAV01@IV<lambda_1>@?1??replace@01@QAEAAV01@IIQBDI@Z@IIPBDI@Z 1000f930 f i Body.obj
 0001:0000ea80       ??$_Resize_reallocate@U_Value_init_tag@std@@@?$vector@U?$pair@HPAVAnimTypeClass@@@std@@V?$allocator@U?$pair@HPAVAnimTypeClass@@@std@@@2@@std@@AAEXIABU_Value_init_tag@1@@Z 1000fa80 f i Body.obj
 0001:0000eb70       ??$_Uninitialized_value_construct_n@V?$allocator@U?$pair@HPAVAnimTypeClass@@@std@@@std@@@std@@YGPAU?$pair@HPAVAnimTypeClass@@@0@PAU10@IAAV?$allocator@U?$pair@HPAVAnimTypeClass@@@std@@@0@@Z 1000fb70 f i Body.obj
 0001:0000eba0       ??$_snprintf_s@$0CA@@@YAHAAY0CA@DIPBDZZ 1000fba0 f i Body.obj
 0001:0000ebd0       ??$_snprintf_s@$0IAA@@@YAHAAY0IAA@DIPBDZZ 1000fbd0 f i Body.obj
 0001:0000ec10       ??$read@PAUSHPStruct@@@detail@@YG_NAAPAUSHPStruct@@AAVINI_EX@@PBD2_N@Z 1000fc10 f i Body.obj
 0001:0000edd0       ??$read@PAUTheater_SHPStruct@@@detail@@YG_NAAPAUTheater_SHPStruct@@AAVINI_EX@@PBD2_N@Z 1000fdd0 f i Body.obj
 0001:0000ef60       ??$read@VPoint2D@@@detail@@YG_NAAVPoint2D@@AAVINI_EX@@PBD2_N@Z 1000ff60 f i Body.obj
 0001:0000f0d0       ??0?$VectorClass@UCoordStruct@@@@QAE@XZ 100100d0 f i Body.obj
 0001:0000f0f0       ??0?$basic_string@DU?$char_traits@D@std@@V?$allocator@D@2@@std@@QAE@QBD@Z 100100f0 f i Body.obj
 0001:0000f130       ??0BuildingTypeClass@@QAE@PBD@Z 10010130 f i Body.obj
 0001:0000f2a0       ??0ExtData@BuildingTypeExt@@QAE@PAVBuildingTypeClass@@@Z 100102a0 f i Body.obj
 0001:0000f690       ??0SuperWeaponTypeClass@@QAE@PBD@Z 10010690 f i Body.obj
 0001:0000f6b0       ??1ExtContainer@BuildingTypeExt@@UAE@XZ 100106b0 f   Body.obj
 0001:0000f710       ??1ExtData@BuildingTypeExt@@UAE@XZ 10010710 f i Body.obj
 0001:0000fcd0       ??8?$VectorClass@UCoordStruct@@@@UBE_NABV0@@Z 10010cd0 f i Body.obj
 0001:0000fd30       ??8?$VectorClass@VPoint2D@@@@UBE_NABV0@@Z 10010d30 f i Body.obj
 0001:0000fd80       ??E?$_Tree_unchecked_iterator@V?$_Tree_val@U?$_Tree_simple_types@U?$pair@QAVExtData@BuildingTypeExt@@H@std@@@std@@@std@@@std@@QAEAAV01@XZ 10010d80 f i Body.obj
 0001:0000ffe0       ??_E?$DynamicVectorClass@VPoint2D@@@@UAEPAXI@Z 10010fe0 f i Body.obj
 0001:0000ffe0       ??_G?$DynamicVectorClass@VPoint2D@@@@UAEPAXI@Z 10010fe0 f i Body.obj
 0001:00010020       ??_E?$VectorClass@UCoordStruct@@@@UAEPAXI@Z 10011020 f i Body.obj
 0001:00010020       ??_G?$VectorClass@UCoordStruct@@@@UAEPAXI@Z 10011020 f i Body.obj
 0001:00010060       ??_E?$VectorClass@VPoint2D@@@@UAEPAXI@Z 10011060 f i Body.obj
 0001:00010060       ??_G?$VectorClass@VPoint2D@@@@UAEPAXI@Z 10011060 f i Body.obj
 0001:000100a0       ??_EExtContainer@BuildingTypeExt@@UAEPAXI@Z 100110a0 f i Body.obj
 0001:000100a0       ??_GExtContainer@BuildingTypeExt@@UAEPAXI@Z 100110a0 f i Body.obj
 0001:000100d0       ??_EExtData@BuildingTypeExt@@UAEPAXI@Z 100110d0 f i Body.obj
 0001:000100d0       ??_GExtData@BuildingTypeExt@@UAEPAXI@Z 100110d0 f i Body.obj
 0001:00010100       ?DrawPlacementGrid@BuildingTypeExt@@SIXPAVSurface@@PAVConvertClass@@PAUSHPStruct@@HQBVPoint2D@@QBURectangleStruct@@W4BlitterFlags@@HHW4ZGradient@@HH2HHH@Z 10011100 f   Body.obj
 0001:00010160       ?Find@BuildingTypeClass@@SIPAV1@PBD@Z 10011160 f i Body.obj
 0001:000101a0       ?Find@SuperWeaponTypeClass@@SIPAV1@PBD@Z 100111a0 f i Body.obj
 0001:000101e0       ?FindIndex@AnimTypeClass@@SIHPBD@Z 100111e0 f i Body.obj
 0001:00010230       ?FindIndex@BuildingTypeClass@@SIHPBD@Z 10011230 f i Body.obj
 0001:00010280       ?FindIndex@VocClass@@SIHPBD@Z 10011280 f i Body.obj
 0001:000102a0       ?FindItemIndex@?$DynamicVectorClass@VPoint2D@@@@UBEHABVPoint2D@@@Z 100112a0 f i Body.obj
 0001:000102f0       ?FindItemIndex@?$VectorClass@UCoordStruct@@@@UBEHABUCoordStruct@@@Z 100112f0 f i Body.obj
 0001:00010340       ?FindItemIndex@?$VectorClass@VPoint2D@@@@UBEHABVPoint2D@@@Z 10011340 f i Body.obj
 0001:00010390       ?FindOrAllocate@?$Container@VBuildingTypeExt@@@@QAEPAVExtData@BuildingTypeExt@@PAVBuildingTypeClass@@@Z 10011390 f i Body.obj
 0001:000104d0       ?FindOrAllocate@BuildingTypeClass@@SIPAV1@PBD@Z 100114d0 f i Body.obj
 0001:00010530       ?FindOrAllocate@SuperWeaponTypeClass@@SIPAV1@PBD@Z 10011530 f i Body.obj
 0001:00010590       ?GetBuildingAnimTypeIndex@BuildingTypeExt@@SGHPAVBuildingClass@@ABW4BuildingAnimSlot@@PBD@Z 10011590 f   Body.obj
 0001:000106b0       ?GetEnhancedPower@BuildingTypeExt@@SGHPAVBuildingClass@@PAVHouseClass@@@Z 100116b0 f   Body.obj
 0001:00010820       ?GetExternalFactorySpeedBonus@BuildingTypeExt@@SGNPAVTechnoClass@@@Z 10011820 f   Body.obj
 0001:000109b0       ?GetItem@?$VectorClass@UCoordStruct@@@@UBE?AUCoordStruct@@H@Z 100119b0 f i Body.obj
 0001:000109e0       ?GetItem@?$VectorClass@VPoint2D@@@@UBE?AVPoint2D@@H@Z 100119e0 f i Body.obj
 0001:00010a00       ?GetItemIndex@?$VectorClass@UCoordStruct@@@@UBEHPBUCoordStruct@@@Z 10011a00 f i Body.obj
 0001:00010a30       ?GetItemIndex@?$VectorClass@VPoint2D@@@@UBEHPBVPoint2D@@@Z 10011a30 f i Body.obj
 0001:00010a50       ?GetPowerOutput@BuildingClass@@QBEHXZ 10011a50 f i Body.obj
 0001:00010a70       ?GetUpgradesAmount@BuildingTypeExt@@SGHPAVBuildingTypeClass@@PAVHouseClass@@@Z 10011a70 f   Body.obj
 0001:00010b70       ?InitializeConstants@ExtData@BuildingTypeExt@@UAEXXZ 10011b70 f   Body.obj
 0001:00010b90       ?IsFactory@BuildingClass@@QBE_NXZ 10011b90 f i Body.obj
 0001:00010bb0       ?IsFactory@BuildingTypeExt@@SI_NPAVBuildingClass@@PAX@Z 10011bb0 f   Body.obj
 0001:00010be0       ?Load@?$Container@VBuildingTypeExt@@@@MAE_NPAVBuildingTypeClass@@PAUIStream@@@Z 10011be0 f i Body.obj
 0001:00010be0       ?Load@ExtContainer@BuildingTypeExt@@UAE_NPAVBuildingTypeClass@@PAUIStream@@@Z 10011be0 f i Body.obj
 0001:00010c00       ?Load@?$Nullable@PAUSHPStruct@@@@QAE_NAAVPhobosStreamReader@@_N@Z 10011c00 f i Body.obj
 0001:00010c00       ?Load@?$Nullable@PAUTheater_SHPStruct@@@@QAE_NAAVPhobosStreamReader@@_N@Z 10011c00 f i Body.obj
 0001:00010d70       ?Load@?$ValueableVector@H@@QAE_NAAVPhobosStreamReader@@_N@Z 10011d70 f i Body.obj
 0001:00010e30       ?LoadFile@FileSystem@@SIPAXPBD_N@Z 10011e30 f i Body.obj
 0001:00010e60       ?LoadFromINIFile@ExtData@BuildingTypeExt@@UAEXPAVCCINIClass@@@Z 10011e60 f   Body.obj
 0001:000116f0       ?LoadFromStream@ExtData@BuildingTypeExt@@UAEXAAVPhobosStreamReader@@@Z 100126f0 f   Body.obj
 0001:00011720       ?LoadKey@?$Container@VBuildingTypeExt@@@@IAEPAVExtData@BuildingTypeExt@@PAVBuildingTypeClass@@PAUIStream@@@Z 10012720 f i Body.obj
 0001:00011850       ?Parse@?$Parser@_N$00@@SGHPBDPA_N@Z 10012850 f i Body.obj
 0001:000118e0       ?Read3Integers@INI_EX@@QAE_NPBD0PAH@Z 100128e0 f i Body.obj
 0001:00011a50       ?Read@?$Nullable@M@@QAEXAAVINI_EX@@PBD1_N@Z 10012a50 f i Body.obj
 0001:00011b10       ?Read@?$Nullable@PAUSHPStruct@@@@QAEXAAVINI_EX@@PBD1_N@Z 10012b10 f i Body.obj
 0001:00011b40       ?Read@?$Nullable@PAUTheater_SHPStruct@@@@QAEXAAVINI_EX@@PBD1_N@Z 10012b40 f i Body.obj
 0001:00011b70       ?Read@?$Nullable@VPoint2D@@@@QAEXAAVINI_EX@@PBD1_N@Z 10012b70 f i Body.obj
 0001:00011ba0       ?Read@?$NullableIdx@VVocClass@@@@QAEXAAVINI_EX@@PBD1@Z 10012ba0 f i Body.obj
 0001:00011c30       ?Read@?$Valueable@UCoordStruct@@@@QAEXAAVINI_EX@@PBD1_N@Z 10012c30 f i Body.obj
 0001:00011c30       ?Read@?$Valueable@VPoint3D@@@@QAEXAAVINI_EX@@PBD1_N@Z 10012c30 f i Body.obj
 0001:00011c50       ?Read@?$Valueable@VPoint2D@@@@QAEXAAVINI_EX@@PBD1_N@Z 10012c50 f i Body.obj
 0001:00011c70       ?Read@?$Valueable@W4AffectedHouse@@@@QAEXAAVINI_EX@@PBD1_N@Z 10012c70 f i Body.obj
 0001:00011e00       ?Read@?$ValueableIdxVector@VBuildingTypeClass@@@@QAEXAAVINI_EX@@PBD1@Z 10012e00 f i Body.obj
 0001:00011ee0       ?Read@?$ValueableVector@PAVBuildingTypeClass@@@@QAEXAAVINI_EX@@PBD1_N@Z 10012ee0 f i Body.obj
 0001:00011fe0       ?Read@?$ValueableVector@PAVTechnoTypeClass@@@@QAEXAAVINI_EX@@PBD1_N@Z 10012fe0 f i Body.obj
 0001:000120e0       ?Read@HealthOnFireData@@QAE_NAAVINI_EX@@PBD1@Z 100130e0 f i Body.obj
 0001:00012190       ?ReadFromStream@?$PhobosStreamObject@V?$basic_string@DU?$char_traits@D@std@@V?$allocator@D@2@@std@@@Savegame@@QBE_NAAVPhobosStreamReader@@AAV?$basic_string@DU?$char_traits@D@std@@V?$allocator@D@2@@std@@_N@Z 10013190 f i Body.obj
 0001:000122c0       ?Save@?$Container@VBuildingTypeExt@@@@MAE_NPAVBuildingTypeClass@@PAUIStream@@@Z 100132c0 f i Body.obj
 0001:000123d0       ?SaveToStream@ExtData@BuildingTypeExt@@UAEXAAVPhobosStreamWriter@@@Z 100133d0 f   Body.obj
 0001:00012400       ?SetCapacity@?$DynamicVectorClass@VPoint2D@@@@UAE_NHPAVPoint2D@@@Z 10013400 f i Body.obj
 0001:000124e0       ?SetCapacity@?$VectorClass@UCoordStruct@@@@UAE_NHPAUCoordStruct@@@Z 100134e0 f i Body.obj
 0001:000125b0       ?SetCapacity@?$VectorClass@VPoint2D@@@@UAE_NHPAVPoint2D@@@Z 100135b0 f i Body.obj
 0001:00012690       ?Size@ExtData@BuildingTypeExt@@UBEIXZ 10013690 f i Body.obj
 0001:000126a0       ?_Change_array@?$vector@U?$pair@HPAVAnimTypeClass@@@std@@V?$allocator@U?$pair@HPAVAnimTypeClass@@@std@@@2@@std@@AAEXQAU?$pair@HPAVAnimTypeClass@@@2@II@Z 100136a0 f i Body.obj
 0001:000126a0       ?_Change_array@?$vector@UScriptActionNode@@V?$allocator@UScriptActionNode@@@std@@@std@@AAEXQAUScriptActionNode@@II@Z 100136a0 f i Body.obj
 0001:00012700       ?allocate@?$allocator@U?$pair@HPAVAnimTypeClass@@@std@@@std@@QAEPAU?$pair@HPAVAnimTypeClass@@@2@I@Z 10013700 f i Body.obj
 0001:00012700       ?allocate@?$allocator@UScriptActionNode@@@std@@QAEPAUScriptActionNode@@I@Z 10013700 f i Body.obj
 0001:00012760       ?append@?$basic_string@DU?$char_traits@D@std@@V?$allocator@D@2@@std@@QAEAAV12@QBDI@Z 10013760 f i Body.obj
 0001:000128b0       ?find@?$basic_string@DU?$char_traits@D@std@@V?$allocator@D@2@@std@@QBEIQBDI@Z 100138b0 f i Body.obj
 0001:000129c0       ?get_or_default@?$PhobosMap@HPAVAnimTypeClass@@@@QBEPAVAnimTypeClass@@ABH@Z 100139c0 f i Body.obj
 0001:00012a00       ?replace@?$basic_string@DU?$char_traits@D@std@@V?$allocator@D@2@@std@@QAEAAV12@IIQBDI@Z 10013a00 f i Body.obj
 0001:00012b70       ?strlen@CRT@@SAIPBD@Z      10013b70 f i Body.obj
 0001:00012b80       _BuildingTypeClass_CTOR    10013b80 f   Body.obj
 0001:00012ba0       _BuildingTypeClass_DTOR    10013ba0 f   Body.obj
 0001:00012c30       _BuildingTypeClass_LoadFromINI 10013c30 f   Body.obj
 0001:00012cd0       _BuildingTypeClass_Load_Suffix 10013cd0 f   Body.obj
 0001:00012d60       _BuildingTypeClass_SaveLoad_Prefix 10013d60 f   Body.obj
 0001:00012da0       _BuildingTypeClass_Save_Suffix 10013da0 f   Body.obj
 0001:00012e20       ?CanUpgrade@BuildingTypeExt@@SG_NPAVBuildingClass@@PAVBuildingTypeClass@@PAVHouseClass@@@Z 10013e20 f   Hooks.Upgrade.obj
 0001:00012ec0       ?CheckBuildLimit@@YGHQBVHouseClass@@QBVBuildingTypeClass@@_N@Z 10013ec0 f   Hooks.Upgrade.obj
 0001:00012f80       ?CountTotal@FactoryClass@@QBEHPBVTechnoTypeClass@@@Z 10013f80 f i Hooks.Upgrade.obj
 0001:00012fa0       _BuildingClass_CanUpgrade_UpgradeBuildings 10013fa0 f   Hooks.Upgrade.obj
 0001:00012fe0       _BuildingClass_Unlimbo_UpgradeBuildings 10013fe0 f   Hooks.Upgrade.obj
 0001:00013030       _HouseClass_CanBuild_UpgradesInteraction 10014030 f   Hooks.Upgrade.obj
 0001:00013080       ??$_Construct@$00PB_W@?$basic_string@_WU?$char_traits@_W@std@@V?$allocator@_W@2@@std@@AAEXQB_WI@Z 10014080 f i Hooks.obj
 0001:00013120       ??$swprintf_s@$0CA@@@YAHAAY0CA@_WPB_WZZ 10014120 f i Hooks.obj
 0001:00013150       ?GetTextDimension@BitFont@@QAE_NPB_WPAH1H@Z 10014150 f i Hooks.obj
 0001:00013170       ?IsFogged@CellClass@@QBE_NXZ 10014170 f i Hooks.obj
 0001:00013190       ?IsShrouded@CellClass@@QBE_NXZ 10014190 f i Hooks.obj
 0001:000131b0       ?RaiseError@Game@@SGXJ@Z   100141b0 f i Hooks.obj
 0001:000131d0       ?TryGetCellAt@MapClass@@QBEPAVCellClass@@ABUCoordStruct@@@Z 100141d0 f i Hooks.obj
 0001:00013220       ?allocate@?$allocator@_W@std@@QAEPA_WI@Z 10014220 f i Hooks.obj
 0001:00013280       _BuildingClass_AI_FlyingStrings 10014280 f   Hooks.obj
 0001:000134a0       _BuildingClass_KickOutUnit_AircraftType 100144a0 f   Hooks.obj
 0001:000134e0       _BuildingClass_KickOutUnit_BuildingType 100144e0 f   Hooks.obj
 0001:00013520       _BuildingClass_KickOutUnit_InfantryType 10014520 f   Hooks.obj
 0001:00013560       _BuildingClass_KickOutUnit_UnitType 10014560 f   Hooks.obj
 0001:000135c0       _BuildingClass_MissionConstruction_DeployToFireFix 100145c0 f   Hooks.obj
 0001:00013620       _BuildingClass_ReceiveDamage_DamageSelf 10014620 f   Hooks.obj
 0001:00013660       _BuildingClass_UpdateRepair_Campaign 10014660 f   Hooks.obj
 0001:000136c0       _BuildingClass_Update_Factory 100146c0 f   Hooks.obj
 0001:000137f0       _FactoryClass_AbandonProduction 100147f0 f   Hooks.obj
 0001:000138f0       _Factory_AI_PickWithFreeDocks 100148f0 f   Hooks.obj
 0001:00013950       _UnitClass_TryToDeploy_Transfer 10014950 f   Hooks.obj
 0001:00013a40       ?GetFoundationHeight@BuildingTypeClass@@QBEF_N@Z 10014a40 f i Hooks.Fires.obj
 0001:00013a60       ?GetFoundationWidth@BuildingTypeClass@@QBEFXZ 10014a60 f i Hooks.Fires.obj
 0001:00013a80       ?GetHealthStatus@ObjectClass@@QBE?AW4HealthState@@XZ 10014a80 f i Hooks.Fires.obj
 0001:00013aa0       ?SetOwnerObject@AnimClass@@QAEXPAVObjectClass@@@Z 10014aa0 f i Hooks.Fires.obj
 0001:00013ac0       _BuildingClass_ReceiveDamge_OnFire 10014ac0 f   Hooks.Fires.obj
 0001:00013d00       ?DestroyExtrasFunctions@BuildingClass@@QBEXPAVAbstractClass@@@Z 10014d00 f i Hooks.Otamaa.obj
 0001:00013d20       ?GetHealthPercentage@ObjectClass@@QBENXZ 10014d20 f i Hooks.Otamaa.obj
 0001:00013d40       _BuildingClass_AnimLogic_check 10014d40 f   Hooks.Otamaa.obj
 0001:00013d70       _BuildingClass_Destroy_PreventRubble 10014d70 f   Hooks.Otamaa.obj
 0001:00013dc0       _BuildingClass_Missile_EMPFire_WeaponType 10014dc0 f   Hooks.Otamaa.obj
 0001:00013df0       _BuildingClass_PlaceCementGrid_Shape 10014df0 f   Hooks.Otamaa.obj
 0001:00013e40       _BuildingClass_Power_UntieStregth 10014e40 f   Hooks.Otamaa.obj
 0001:00013eb0       _BuildingClass_ReceiveDamage_RotateVsAircraft 10014eb0 f   Hooks.Otamaa.obj
 0001:00013f10       ??$_Emplace_reallocate@ABQAVBuildingClass@@@?$vector@PAVBuildingClass@@V?$allocator@PAVBuildingClass@@@std@@@std@@AAEPAPAVBuildingClass@@QAPAV2@ABQAV2@@Z 10014f10 f i Body.obj
 0001:00013f10       ??$_Emplace_reallocate@ABQAVFootClass@@@?$vector@PAVFootClass@@V?$allocator@PAVFootClass@@@std@@@std@@AAEPAPAVFootClass@@QAPAV2@ABQAV2@@Z 10014f10 f i Body.obj
 0001:00013f10       ??$_Emplace_reallocate@ABVCellStruct@@@?$vector@VCellStruct@@V?$allocator@VCellStruct@@@std@@@std@@AAEPAVCellStruct@@QAV2@ABV2@@Z 10014f10 f i GeneralUtils.obj
 0001:00013f10       ??$_Emplace_reallocate@PAVAbstractClass@@@?$vector@PAVAbstractClass@@V?$allocator@PAVAbstractClass@@@std@@@std@@AAEPAPAVAbstractClass@@QAPAV2@$$QAPAV2@@Z 10014f10 f i Hooks.obj
 0001:00013f10       ??$_Emplace_reallocate@PAVElectricBoltClass@@@?$vector@PAVElectricBoltClass@@V?$allocator@PAVElectricBoltClass@@@std@@@std@@AAEPAPAVElectricBoltClass@@QAPAV2@$$QAPAV2@@Z 10014f10 f i ElectricBoltClass.obj
 0001:000140d0       ??$_Resize_reallocate@U_Value_init_tag@std@@@?$vector@HV?$allocator@H@std@@@std@@AAEXIABU_Value_init_tag@1@@Z 100150d0 f i Body.obj
 0001:000140d0       ??$_Resize_reallocate@U_Value_init_tag@std@@@?$vector@PAVAnimClass@@V?$allocator@PAVAnimClass@@@std@@@std@@AAEXIABU_Value_init_tag@1@@Z 100150d0 f i Body.obj
 0001:000140d0       ??$_Resize_reallocate@U_Value_init_tag@std@@@?$vector@PAVBuildingClass@@V?$allocator@PAVBuildingClass@@@std@@@std@@AAEXIABU_Value_init_tag@1@@Z 100150d0 f i Body.obj
 0001:000140d0       ??$_Resize_reallocate@U_Value_init_tag@std@@@?$vector@PAVVerticalLaserClass@@V?$allocator@PAVVerticalLaserClass@@@std@@@std@@AAEXIABU_Value_init_tag@1@@Z 100150d0 f i VerticalLaserClass.obj
 0001:000140d0       ??$_Resize_reallocate@U_Value_init_tag@std@@@?$vector@PAVWeaponTypeClass@@V?$allocator@PAVWeaponTypeClass@@@std@@@std@@AAEXIABU_Value_init_tag@1@@Z 100150d0 f i Body.obj
 0001:000140d0       ??$_Resize_reallocate@U_Value_init_tag@std@@@?$vector@W4LandType@@V?$allocator@W4LandType@@@std@@@std@@AAEXIABU_Value_init_tag@1@@Z 100150d0 f i Body.obj
 0001:000140d0       ??$_Resize_reallocate@U_Value_init_tag@std@@@?$vector@W4TileType@@V?$allocator@W4TileType@@@std@@@std@@AAEXIABU_Value_init_tag@1@@Z 100150d0 f i Body.obj
 0001:000141d0       ??1ExtContainer@BuildingExt@@UAE@XZ 100151d0 f   Body.obj
 0001:00014230       ??_EExtContainer@BuildingExt@@UAEPAXI@Z 10015230 f i Body.obj
 0001:00014230       ??_GExtContainer@BuildingExt@@UAEPAXI@Z 10015230 f i Body.obj
 0001:00014260       ??_EExtData@BuildingExt@@UAEPAXI@Z 10015260 f i Body.obj
 0001:00014260       ??_GExtData@BuildingExt@@UAEPAXI@Z 10015260 f i Body.obj
 0001:000142d0       ?AbandonProduction@FactoryClass@@QAE_NXZ 100152d0 f i Body.obj
 0001:000142f0       ?CanGrindTechno@BuildingExt@@SG_NPAVBuildingClass@@PAVTechnoClass@@@Z 100152f0 f   Body.obj
 0001:00014430       ?CountOccupiedDocks@BuildingExt@@SGHPAVBuildingClass@@@Z 10015430 f   Body.obj
 0001:000144a0       ?DoGrindingExtras@BuildingExt@@SG_NPAVBuildingClass@@PAVTechnoClass@@@Z 100154a0 f   Body.obj
 0001:00014590       ?FindOrAllocate@?$Container@VBuildingExt@@@@QAEPAVExtData@BuildingExt@@PAVBuildingClass@@@Z 10015590 f i Body.obj
 0001:00014730       ?GetFactoryProducing@HouseClass@@QBEPAVFactoryClass@@PBVTechnoTypeClass@@@Z 10015730 f i Body.obj
 0001:00014750       ?GiveTiberium@HouseClass@@QAEXMH@Z 10015750 f i Body.obj
 0001:00014770       ?HasFreeDocks@BuildingExt@@SG_NPAVBuildingClass@@@Z 10015770 f   Body.obj
 0001:00014790       ?InvalidateExtDataIgnorable@ExtContainer@BuildingExt@@UBE_NQAX@Z 10015790 f i Body.obj
 0001:00014790       ?InvalidateExtDataIgnorable@ExtContainer@HouseExt@@UBE_NQAX@Z 10015790 f i Body.obj
 0001:000147b0       ?InvalidatePointer@ExtData@BuildingExt@@UAEXPAX_N@Z 100157b0 f   Body.obj
 0001:000147d0       ?IsAlliedWith@HouseClass@@QBE_NPBVObjectClass@@@Z 100157d0 f i Body.obj
 0001:000147f0       ?Load@?$Container@VBuildingExt@@@@MAE_NPAVBuildingClass@@PAUIStream@@@Z 100157f0 f i Body.obj
 0001:00014900       ?LoadFromStream@ExtData@BuildingExt@@UAEXAAVPhobosStreamReader@@@Z 10015900 f   Body.obj
 0001:00014a00       ?ReadFromStream@?$PhobosStreamObject@V?$vector@PAVAnimClass@@V?$allocator@PAVAnimClass@@@std@@@std@@@Savegame@@QBE_NAAVPhobosStreamReader@@AAV?$vector@PAVAnimClass@@V?$allocator@PAVAnimClass@@@std@@@std@@_N@Z 10015a00 f i Body.obj
 0001:00014a00       ?ReadFromStream@?$PhobosStreamObject@V?$vector@PAVBuildingClass@@V?$allocator@PAVBuildingClass@@@std@@@std@@@Savegame@@QBE_NAAVPhobosStreamReader@@AAV?$vector@PAVBuildingClass@@V?$allocator@PAVBuildingClass@@@std@@@std@@_N@Z 10015a00 f i Body.obj
 0001:00014a00       ?ReadFromStream@?$PhobosStreamObject@V?$vector@PAVVerticalLaserClass@@V?$allocator@PAVVerticalLaserClass@@@std@@@std@@@Savegame@@QBE_NAAVPhobosStreamReader@@AAV?$vector@PAVVerticalLaserClass@@V?$allocator@PAVVerticalLaserClass@@@std@@@std@@_N@Z 10015a00 f i VerticalLaserClass.obj
 0001:00014a00       ?ReadFromStream@?$PhobosStreamObject@V?$vector@PAVWeaponTypeClass@@V?$allocator@PAVWeaponTypeClass@@@std@@@std@@@Savegame@@QBE_NAAVPhobosStreamReader@@AAV?$vector@PAVWeaponTypeClass@@V?$allocator@PAVWeaponTypeClass@@@std@@@std@@_N@Z 10015a00 f i Body.obj
 0001:00014b40       ?Save@?$Container@VBuildingExt@@@@MAE_NPAVBuildingClass@@PAUIStream@@@Z 10015b40 f i Body.obj
 0001:00014b60       ?SaveKey@?$Container@VBuildingExt@@@@IAEPAVExtData@BuildingExt@@PAVBuildingClass@@PAUIStream@@@Z 10015b60 f i Body.obj
 0001:00014d10       ?SaveToStream@ExtData@BuildingExt@@UAEXAAVPhobosStreamWriter@@@Z 10015d10 f   Body.obj
 0001:00014e00       ?Size@ExtData@BuildingExt@@UBEIXZ 10015e00 f i Body.obj
 0001:00014e10       ?StoreTiberium@BuildingExt@@SGXPAVBuildingClass@@MHH@Z 10015e10 f   Body.obj
 0001:00014ea0       ?UpdatePrimaryFactoryAI@BuildingExt@@SGXPAVBuildingClass@@@Z 10015ea0 f   Body.obj
 0001:00015160       _BuildingClass_CTOR        10016160 f   Body.obj
 0001:00015180       _BuildingClass_DTOR        10016180 f   Body.obj
 0001:00015260       _BuildingClass_Load_Suffix 10016260 f   Body.obj
 0001:000152f0       _BuildingClass_SaveLoad_Prefix 100162f0 f   Body.obj
 0001:00015330       _BuildingClass_Save_Suffix 10016330 f   Body.obj
 0001:000153b0       _BulletClass_DrawVXL_Palette 100163b0 f   Hooks.Otamaa.obj
 0001:00015420       _BulletClass_Unlimbo_FlakScatter_SetTargetCoords 10016420 f   Hooks.Otamaa.obj
 0001:00015450       _ObjectClass_SpawnParachuted_Animation_Bulet 10016450 f   Hooks.Otamaa.obj
 0001:000154a0       ??$Process@V?$vector@HV?$allocator@H@std@@@std@@@PhobosStreamReader@@QAEAAV0@AAV?$vector@HV?$allocator@H@std@@@std@@_N@Z 100164a0 f i Body.obj
 0001:000154a0       ??$Process@V?$vector@W4LandType@@V?$allocator@W4LandType@@@std@@@std@@@PhobosStreamReader@@QAEAAV0@AAV?$vector@W4LandType@@V?$allocator@W4LandType@@@std@@@std@@_N@Z 100164a0 f i Body.obj
 0001:000154a0       ??$Process@V?$vector@W4TileType@@V?$allocator@W4TileType@@@std@@@std@@@PhobosStreamReader@@QAEAAV0@AAV?$vector@W4TileType@@V?$allocator@W4TileType@@@std@@@std@@_N@Z 100164a0 f i Body.obj
 0001:000155c0       ??$RestoreObject@VUniversalTrail@@@Savegame@@YGPAVUniversalTrail@@AAVPhobosStreamReader@@_N@Z 100165c0 f i Body.obj
 0001:00015770       ??$Serialize@VPhobosStreamReader@@@ExtData@BulletExt@@AAEXAAVPhobosStreamReader@@@Z 10016770 f i Body.obj
 0001:00015910       ??$Serialize@VPhobosStreamReader@@@UniversalTrail@@AAE_NAAVPhobosStreamReader@@@Z 10016910 f i Body.obj
 0001:00015a90       ??$Serialize@VPhobosStreamWriter@@@ExtData@BulletExt@@AAEXAAVPhobosStreamWriter@@@Z 10016a90 f i Body.obj
 0001:00015c20       ??$WritePhobosStream@V?$vector@W4LandType@@V?$allocator@W4LandType@@@std@@@std@@@Savegame@@YG_NAAVPhobosStreamWriter@@ABV?$vector@W4LandType@@V?$allocator@W4LandType@@@std@@@std@@@Z 10016c20 f i Body.obj
 0001:00015c20       ??$WritePhobosStream@V?$vector@W4TileType@@V?$allocator@W4TileType@@@std@@@std@@@Savegame@@YG_NAAVPhobosStreamWriter@@ABV?$vector@W4TileType@@V?$allocator@W4TileType@@@std@@@std@@@Z 10016c20 f i Body.obj
 0001:00015ca0       ??$_Destroy_range@V?$allocator@V?$unique_ptr@VLaserTrailClass@@U?$default_delete@VLaserTrailClass@@@std@@@std@@@std@@@std@@YGXPAV?$unique_ptr@VLaserTrailClass@@U?$default_delete@VLaserTrailClass@@@std@@@0@QAV10@AAV?$allocator@V?$unique_ptr@VLaserTrailClass@@U?$default_delete@VLaserTrailClass@@@std@@@std@@@0@@Z 10016ca0 f i Body.obj
 0001:00015cd0       ??$_Destroy_range@V?$allocator@V?$unique_ptr@VUniversalTrail@@U?$default_delete@VUniversalTrail@@@std@@@std@@@std@@@std@@YGXPAV?$unique_ptr@VUniversalTrail@@U?$default_delete@VUniversalTrail@@@std@@@0@QAV10@AAV?$allocator@V?$unique_ptr@VUniversalTrail@@U?$default_delete@VUniversalTrail@@@std@@@std@@@0@@Z 10016cd0 f i Body.obj
 0001:00015d00       ??$_Emplace_reallocate@V?$unique_ptr@VLaserTrailClass@@U?$default_delete@VLaserTrailClass@@@std@@@std@@@?$vector@V?$unique_ptr@VLaserTrailClass@@U?$default_delete@VLaserTrailClass@@@std@@@std@@V?$allocator@V?$unique_ptr@VLaserTrailClass@@U?$default_delete@VLaserTrailClass@@@std@@@std@@@2@@std@@AAEPAV?$unique_ptr@VLaserTrailClass@@U?$default_delete@VLaserTrailClass@@@std@@@1@QAV21@$$QAV21@@Z 10016d00 f i Body.obj
 0001:00015e40       ??$_Resize_reallocate@U_Value_init_tag@std@@@?$vector@V?$unique_ptr@VLaserTrailClass@@U?$default_delete@VLaserTrailClass@@@std@@@std@@V?$allocator@V?$unique_ptr@VLaserTrailClass@@U?$default_delete@VLaserTrailClass@@@std@@@std@@@2@@std@@AAEXIABU_Value_init_tag@1@@Z 10016e40 f i Body.obj
 0001:00015f40       ??$_Resize_reallocate@U_Value_init_tag@std@@@?$vector@V?$unique_ptr@VUniversalTrail@@U?$default_delete@VUniversalTrail@@@std@@@std@@V?$allocator@V?$unique_ptr@VUniversalTrail@@U?$default_delete@VUniversalTrail@@@std@@@std@@@2@@std@@AAEXIABU_Value_init_tag@1@@Z 10016f40 f i Body.obj
 0001:00016040       ??$_Uninitialized_move@PAV?$unique_ptr@VArmorTypeClass@@U?$default_delete@VArmorTypeClass@@@std@@@std@@V?$allocator@V?$unique_ptr@VArmorTypeClass@@U?$default_delete@VArmorTypeClass@@@std@@@std@@@2@@std@@YGPAV?$unique_ptr@VArmorTypeClass@@U?$default_delete@VArmorTypeClass@@@std@@@0@QAV10@0PAV10@AAV?$allocator@V?$unique_ptr@VArmorTypeClass@@U?$default_delete@VArmorTypeClass@@@std@@@std@@@0@@Z 10017040 f i ArmorTypeClass.obj
 0001:00016040       ??$_Uninitialized_move@PAV?$unique_ptr@VHoverTypeClass@@U?$default_delete@VHoverTypeClass@@@std@@@std@@V?$allocator@V?$unique_ptr@VHoverTypeClass@@U?$default_delete@VHoverTypeClass@@@std@@@std@@@2@@std@@YGPAV?$unique_ptr@VHoverTypeClass@@U?$default_delete@VHoverTypeClass@@@std@@@0@QAV10@0PAV10@AAV?$allocator@V?$unique_ptr@VHoverTypeClass@@U?$default_delete@VHoverTypeClass@@@std@@@std@@@0@@Z 10017040 f i Hooks.Hover.obj
 0001:00016040       ??$_Uninitialized_move@PAV?$unique_ptr@VLaserTrailClass@@U?$default_delete@VLaserTrailClass@@@std@@@std@@V?$allocator@V?$unique_ptr@VLaserTrailClass@@U?$default_delete@VLaserTrailClass@@@std@@@std@@@2@@std@@YGPAV?$unique_ptr@VLaserTrailClass@@U?$default_delete@VLaserTrailClass@@@std@@@0@QAV10@0PAV10@AAV?$allocator@V?$unique_ptr@VLaserTrailClass@@U?$default_delete@VLaserTrailClass@@@std@@@std@@@0@@Z 10017040 f i Body.obj
 0001:00016040       ??$_Uninitialized_move@PAV?$unique_ptr@VLaserTrailTypeClass@@U?$default_delete@VLaserTrailTypeClass@@@std@@@std@@V?$allocator@V?$unique_ptr@VLaserTrailTypeClass@@U?$default_delete@VLaserTrailTypeClass@@@std@@@std@@@2@@std@@YGPAV?$unique_ptr@VLaserTrailTypeClass@@U?$default_delete@VLaserTrailTypeClass@@@std@@@0@QAV10@0PAV10@AAV?$allocator@V?$unique_ptr@VLaserTrailTypeClass@@U?$default_delete@VLaserTrailTypeClass@@@std@@@std@@@0@@Z 10017040 f i Body.obj
 0001:00016040       ??$_Uninitialized_move@PAV?$unique_ptr@VRadTypeClass@@U?$default_delete@VRadTypeClass@@@std@@@std@@V?$allocator@V?$unique_ptr@VRadTypeClass@@U?$default_delete@VRadTypeClass@@@std@@@std@@@2@@std@@YGPAV?$unique_ptr@VRadTypeClass@@U?$default_delete@VRadTypeClass@@@std@@@0@QAV10@0PAV10@AAV?$allocator@V?$unique_ptr@VRadTypeClass@@U?$default_delete@VRadTypeClass@@@std@@@std@@@0@@Z 10017040 f i RadTypeClass.obj
 0001:00016040       ??$_Uninitialized_move@PAV?$unique_ptr@VShieldTypeClass@@U?$default_delete@VShieldTypeClass@@@std@@@std@@V?$allocator@V?$unique_ptr@VShieldTypeClass@@U?$default_delete@VShieldTypeClass@@@std@@@std@@@2@@std@@YGPAV?$unique_ptr@VShieldTypeClass@@U?$default_delete@VShieldTypeClass@@@std@@@0@QAV10@0PAV10@AAV?$allocator@V?$unique_ptr@VShieldTypeClass@@U?$default_delete@VShieldTypeClass@@@std@@@std@@@0@@Z 10017040 f i Body.obj
 0001:00016040       ??$_Uninitialized_move@PAV?$unique_ptr@VTrailType@@U?$default_delete@VTrailType@@@std@@@std@@V?$allocator@V?$unique_ptr@VTrailType@@U?$default_delete@VTrailType@@@std@@@std@@@2@@std@@YGPAV?$unique_ptr@VTrailType@@U?$default_delete@VTrailType@@@std@@@0@QAV10@0PAV10@AAV?$allocator@V?$unique_ptr@VTrailType@@U?$default_delete@VTrailType@@@std@@@std@@@0@@Z 10017040 f i Body.obj
 0001:00016040       ??$_Uninitialized_move@PAV?$unique_ptr@VUniversalTrail@@U?$default_delete@VUniversalTrail@@@std@@@std@@V?$allocator@V?$unique_ptr@VUniversalTrail@@U?$default_delete@VUniversalTrail@@@std@@@std@@@2@@std@@YGPAV?$unique_ptr@VUniversalTrail@@U?$default_delete@VUniversalTrail@@@std@@@0@QAV10@0PAV10@AAV?$allocator@V?$unique_ptr@VUniversalTrail@@U?$default_delete@VUniversalTrail@@@std@@@std@@@0@@Z 10017040 f i Body.obj
 0001:00016070       ??$_Uninitialized_value_construct_n@V?$allocator@V?$unique_ptr@VLaserTrailClass@@U?$default_delete@VLaserTrailClass@@@std@@@std@@@std@@@std@@YGPAV?$unique_ptr@VLaserTrailClass@@U?$default_delete@VLaserTrailClass@@@std@@@0@PAV10@IAAV?$allocator@V?$unique_ptr@VLaserTrailClass@@U?$default_delete@VLaserTrailClass@@@std@@@std@@@0@@Z 10017070 f i Body.obj
 0001:00016070       ??$_Uninitialized_value_construct_n@V?$allocator@V?$unique_ptr@VUniversalTrail@@U?$default_delete@VUniversalTrail@@@std@@@std@@@std@@@std@@YGPAV?$unique_ptr@VUniversalTrail@@U?$default_delete@VUniversalTrail@@@std@@@0@PAV10@IAAV?$allocator@V?$unique_ptr@VUniversalTrail@@U?$default_delete@VUniversalTrail@@@std@@@std@@@0@@Z 10017070 f i Body.obj
 0001:000160a0       ??0ExtData@BulletExt@@QAE@PAVBulletClass@@@Z 100170a0 f i Body.obj
 0001:00016130       ??1?$vector@V?$unique_ptr@VLaserTrailClass@@U?$default_delete@VLaserTrailClass@@@std@@@std@@V?$allocator@V?$unique_ptr@VLaserTrailClass@@U?$default_delete@VLaserTrailClass@@@std@@@std@@@2@@std@@QAE@XZ 10017130 f i Body.obj
 0001:000161b0       ??1?$vector@V?$unique_ptr@VUniversalTrail@@U?$default_delete@VUniversalTrail@@@std@@@std@@V?$allocator@V?$unique_ptr@VUniversalTrail@@U?$default_delete@VUniversalTrail@@@std@@@std@@@2@@std@@QAE@XZ 100171b0 f i Body.obj
 0001:00016230       ??1ExtContainer@BulletExt@@UAE@XZ 10017230 f   Body.obj
 0001:00016290       ??1ExtData@BulletExt@@UAE@XZ 10017290 f   Body.obj
 0001:000162d0       ??AMapClass@@QAEPAVCellClass@@ABVCellStruct@@@Z 100172d0 f i Body.obj
 0001:000162f0       ??R?$default_delete@VUniversalTrail@@@std@@QBEXPAVUniversalTrail@@@Z 100172f0 f i Body.obj
 0001:000163b0       ??_EExtContainer@BulletExt@@UAEPAXI@Z 100173b0 f i Body.obj
 0001:000163b0       ??_GExtContainer@BulletExt@@UAEPAXI@Z 100173b0 f i Body.obj
 0001:000163e0       ??_EExtData@BulletExt@@UAEPAXI@Z 100173e0 f i Body.obj
 0001:000163e0       ??_GExtData@BulletExt@@UAEPAXI@Z 100173e0 f i Body.obj
 0001:00016430       ??_ELaserTrailClass@@UAEPAXI@Z 10017430 f i Body.obj
 0001:00016430       ??_GLaserTrailClass@@UAEPAXI@Z 10017430 f i Body.obj
 0001:00016450       ?ApplyRadiationToCell@ExtData@BulletExt@@QAEXABVCellStruct@@HH@Z 10017450 f   Body.obj
 0001:00016610       ?GetExtData@BulletExt@@SGPAVExtData@1@PAVBulletClass@@@Z 10017610 f   Body.obj
 0001:00016630       ?GetRadLevel@RadSiteClass@@QBEHXZ 10017630 f i Body.obj
 0001:00016650       ?InitializeConstants@ExtData@BulletExt@@UAEXXZ 10017650 f   Body.obj
 0001:00016690       ?InitializeLaserTrails@ExtData@BulletExt@@QAEXPAV1BulletTypeExt@@@Z 10017690 f   Body.obj
 0001:00016860       ?InterceptBullet@BulletExt@@SGXPAVBulletClass@@PAVTechnoClass@@PAVWeaponTypeClass@@@Z 10017860 f   Body.obj
 0001:00016a70       ?InvalidateExtDataIgnorable@ExtContainer@BulletExt@@UBE_NQAX@Z 10017a70 f i Body.obj
 0001:00016a90       ?InvalidatePointer@ExtData@BulletExt@@UAEXPAX_N@Z 10017a90 f   Body.obj
 0001:00016ac0       ?Load@?$Container@VBulletExt@@@@MAE_NPAVBulletClass@@PAUIStream@@@Z 10017ac0 f i Body.obj
 0001:00016ae0       ?LoadFromStream@ExtData@BulletExt@@UAEXAAVPhobosStreamReader@@@Z 10017ae0 f   Body.obj
 0001:00016b10       ?LoadKey@?$Container@VBulletExt@@@@IAEPAVExtData@BulletExt@@PAVBulletClass@@PAUIStream@@@Z 10017b10 f i Body.obj
 0001:00016c80       ?ReadFromStream@?$PhobosStreamObject@V?$vector@V?$unique_ptr@VLaserTrailClass@@U?$default_delete@VLaserTrailClass@@@std@@@std@@V?$allocator@V?$unique_ptr@VLaserTrailClass@@U?$default_delete@VLaserTrailClass@@@std@@@std@@@2@@std@@@Savegame@@QBE_NAAVPhobosStreamReader@@AAV?$vector@V?$unique_ptr@VLaserTrailClass@@U?$default_delete@VLaserTrailClass@@@std@@@std@@V?$allocator@V?$unique_ptr@VLaserTrailClass@@U?$default_delete@VLaserTrailClass@@@std@@@std@@@2@@std@@_N@Z 10017c80 f i Body.obj
 0001:00016eb0       ?ReadFromStream@?$PhobosStreamObject@V?$vector@V?$unique_ptr@VUniversalTrail@@U?$default_delete@VUniversalTrail@@@std@@@std@@V?$allocator@V?$unique_ptr@VUniversalTrail@@U?$default_delete@VUniversalTrail@@@std@@@std@@@2@@std@@@Savegame@@QBE_NAAVPhobosStreamReader@@AAV?$vector@V?$unique_ptr@VUniversalTrail@@U?$default_delete@VUniversalTrail@@@std@@@std@@V?$allocator@V?$unique_ptr@VUniversalTrail@@U?$default_delete@VUniversalTrail@@@std@@@std@@@2@@std@@_N@Z 10017eb0 f i Body.obj
 0001:00017000       ?Save@?$Container@VBulletExt@@@@MAE_NPAVBulletClass@@PAUIStream@@@Z 10018000 f i Body.obj
 0001:00017110       ?SaveToStream@ExtData@BulletExt@@UAEXAAVPhobosStreamWriter@@@Z 10018110 f   Body.obj
 0001:00017140       ?WriteToStream@?$PhobosStreamObject@V?$vector@V?$unique_ptr@VUniversalTrail@@U?$default_delete@VUniversalTrail@@@std@@@std@@V?$allocator@V?$unique_ptr@VUniversalTrail@@U?$default_delete@VUniversalTrail@@@std@@@std@@@2@@std@@@Savegame@@QBE_NAAVPhobosStreamWriter@@ABV?$vector@V?$unique_ptr@VUniversalTrail@@U?$default_delete@VUniversalTrail@@@std@@@std@@V?$allocator@V?$unique_ptr@VUniversalTrail@@U?$default_delete@VUniversalTrail@@@std@@@std@@@2@@std@@@Z 10018140 f i Body.obj
 0001:000172c0       ?_Change_array@?$vector@V?$unique_ptr@VLaserTrailClass@@U?$default_delete@VLaserTrailClass@@@std@@@std@@V?$allocator@V?$unique_ptr@VLaserTrailClass@@U?$default_delete@VLaserTrailClass@@@std@@@std@@@2@@std@@AAEXQAV?$unique_ptr@VLaserTrailClass@@U?$default_delete@VLaserTrailClass@@@std@@@2@II@Z 100182c0 f i Body.obj
 0001:00017340       ?_Change_array@?$vector@V?$unique_ptr@VUniversalTrail@@U?$default_delete@VUniversalTrail@@@std@@@std@@V?$allocator@V?$unique_ptr@VUniversalTrail@@U?$default_delete@VUniversalTrail@@@std@@@std@@@2@@std@@AAEXQAV?$unique_ptr@VUniversalTrail@@U?$default_delete@VUniversalTrail@@@std@@@2@II@Z 10018340 f i Body.obj
 0001:000173c0       ?_Reallocate_exactly@?$vector@V?$unique_ptr@VLaserTrailClass@@U?$default_delete@VLaserTrailClass@@@std@@@std@@V?$allocator@V?$unique_ptr@VLaserTrailClass@@U?$default_delete@VLaserTrailClass@@@std@@@std@@@2@@std@@AAEXI@Z 100183c0 f i Body.obj
 0001:00017460       ?_Reallocate_exactly@?$vector@V?$unique_ptr@VUniversalTrail@@U?$default_delete@VUniversalTrail@@@std@@@std@@V?$allocator@V?$unique_ptr@VUniversalTrail@@U?$default_delete@VUniversalTrail@@@std@@@std@@@2@@std@@AAEXI@Z 10018460 f i Body.obj
 0001:00017500       ?clear@?$vector@V?$unique_ptr@VLaserTrailClass@@U?$default_delete@VLaserTrailClass@@@std@@@std@@V?$allocator@V?$unique_ptr@VLaserTrailClass@@U?$default_delete@VLaserTrailClass@@@std@@@std@@@2@@std@@QAEXXZ 10018500 f i Body.obj
 0001:00017540       _BulletClass_CTOR          10018540 f   Body.obj
 0001:00017630       _BulletClass_DTOR          10018630 f   Body.obj
 0001:000176f0       _BulletClass_Load_Suffix   100186f0 f   Body.obj
 0001:00017780       _BulletClass_SaveLoad_Prefix 10018780 f   Body.obj
 0001:000177c0       _BulletClass_Save_Suffix   100187c0 f   Body.obj
 0001:00017840       ??0LaserDrawClass@@QAE@UCoordStruct@@0HEUColorStruct@@11H_N2MM@Z 10018840 f i Hooks.obj
 0001:00017860       ??0VoxelAnimClass@@QAE@PAVVoxelAnimTypeClass@@PAUCoordStruct@@PAVHouseClass@@@Z 10018860 f i Hooks.obj
 0001:000178a0       ?Allocate@RadBeam@@SIPAV1@W4RadBeamType@@@Z 100188a0 f i Hooks.obj
 0001:000178c0       ?CreateEbolt@TechnoClass@@QAEPAVEBolt@@PAVAbstractClass@@PAVWeaponTypeClass@@ABUCoordStruct@@@Z 100188c0 f i Hooks.obj
 0001:000178e0       ?Detonate@BulletClass@@QBEXABUCoordStruct@@@Z 100188e0 f i Hooks.obj
 0001:00017900       ?DistanceFrom@CoordStruct@@QBENABU1@@Z 10018900 f i Hooks.obj
 0001:000183d0       ?DrawBeam@EffectHelpers@@SGXAAUCoordStruct@@0AAUBeamType@@ABUColorStruct@@@Z 100193d0 f i Hooks.obj
 0001:00018470       ?DrawBolt@EffectHelpers@@SGXAAUCoordStruct@@0AAUBoltType@@@Z 10019470 f i Hooks.obj
 0001:00018530       ?DrawBulletEffect@Helpers_DP@@SGXPAVWeaponTypeClass@@AAUCoordStruct@@1PAVTechnoClass@@PAVAbstractClass@@@Z 10019530 f i Hooks.obj
 0001:00018800       ?DrawLine@EffectHelpers@@SGXAAUCoordStruct@@0AAULaserType@@ABUColorStruct@@@Z 10019800 f i Hooks.obj
 0001:000189c0       ?GetTotalDamage@MapClass@@SIHHPBVWarheadTypeClass@@W4Armor@@H@Z 100199c0 f i Hooks.obj
 0001:000189e0       ?Random@Random2Class@@QAEHXZ 100199e0 f i Hooks.obj
 0001:00018a00       ?cos@Math@@YANN@Z          10019a00 f i Hooks.obj
 0001:00018a10       ?next@CellRangeEnumerator@@IAEXXZ 10019a10 f i Hooks.obj
 0001:00018ab0       ?push_back@?$vector@PAVAbstractClass@@V?$allocator@PAVAbstractClass@@@std@@@std@@QAEX$$QAPAVAbstractClass@@@Z 10019ab0 f i Hooks.obj
 0001:00018ae0       ?sin@Math@@YANN@Z          10019ae0 f i Hooks.obj
 0001:00018af0       _BulletClass_AI            10019af0 f   Hooks.obj
 0001:00018e00       _BulletClass_AI_ApplyGravity 10019e00 f   Hooks.obj
 0001:00018e20       _BulletClass_AI_Interceptor_InvisoSkip 10019e20 f   Hooks.obj
 0001:00018e60       _BulletClass_Explode_Cluster 10019e60 f   Hooks.obj
 0001:00018f60       _BulletClass_Init_Phobos   10019f60 f   Hooks.obj
 0001:00019000       _BulletClass_Logics_ApplyMindControl 1001a000 f   Hooks.obj
 0001:00019070       _BulletClass_Logics_CheckDoAirburst_MaxDebris 1001a070 f   Hooks.obj
 0001:00019090       _BulletClass_Logics_DamageHouse 1001a090 f   Hooks.obj
 0001:000190c0       _BulletClass_Logics_Debris 1001a0c0 f   Hooks.obj
 0001:00019370       _BulletClass_Logics_Debris_Checks 1001a370 f   Hooks.obj
 0001:00019410       _BulletClass_Logics_DetonateOnAllMapObjects 1001a410 f   Hooks.obj
 0001:000194f0       _BulletClass_Logics_MindControlAlternative1 1001a4f0 f   Hooks.obj
 0001:00019620       _BulletClass_Logics_MindControlAlternative2 1001a620 f   Hooks.obj
 0001:000197e0       _BulletClass_Logics_SnapOnTarget 1001a7e0 f   Hooks.obj
 0001:00019830       _BulletClass_Shrapnel_Forced 1001a830 f   Hooks.obj
 0001:00019890       _BulletClass_Unlimbo_FlakScatter 1001a890 f   Hooks.obj
 0001:00019940       ??1?$unique_ptr@VUniversalTrail@@U?$default_delete@VUniversalTrail@@@std@@@std@@QAE@XZ 1001a940 f i ArtilleryTrajectory.obj
 0001:000199f0       ?Load@ArtilleryTrajectory@@UAE_NAAVPhobosStreamReader@@_N@Z 1001a9f0 f   ArtilleryTrajectory.obj
 0001:00019a30       ?Load@ArtilleryTrajectoryType@@UAE_NAAVPhobosStreamReader@@_N@Z 1001aa30 f   ArtilleryTrajectory.obj
 0001:00019a30       ?Load@BombardTrajectoryType@@UAE_NAAVPhobosStreamReader@@_N@Z 1001aa30 f   BombardTrajectory.obj
 0001:00019a70       ?OnAI@ArtilleryTrajectory@@UAE_NPAVBulletClass@@@Z 1001aa70 f   ArtilleryTrajectory.obj
 0001:00019cd0       ?OnAITargetCoordCheck@ArtilleryTrajectory@@UAE?AW4TrajectoryCheckReturnType@@PAVBulletClass@@UCoordStruct@@@Z 1001acd0 f   ArtilleryTrajectory.obj
 0001:00019cd0       ?OnAITargetCoordCheck@BombardTrajectory@@UAE?AW4TrajectoryCheckReturnType@@PAVBulletClass@@UCoordStruct@@@Z 1001acd0 f   BombardTrajectory.obj
 0001:00019cd0       ?OnAITargetCoordCheck@BounceTrajectory@@UAE?AW4TrajectoryCheckReturnType@@PAVBulletClass@@UCoordStruct@@@Z 1001acd0 f   BounceTrajectory.obj
 0001:00019ce0       ?OnAITechnoCheck@ArtilleryTrajectory@@UAE?AW4TrajectoryCheckReturnType@@PAVBulletClass@@PAVTechnoClass@@@Z 1001ace0 f   ArtilleryTrajectory.obj
 0001:00019ce0       ?OnAITechnoCheck@StraightTrajectory@@UAE?AW4TrajectoryCheckReturnType@@PAVBulletClass@@PAVTechnoClass@@@Z 1001ace0 f   StraightTrajectory.obj
 0001:00019cf0       ?OnAIVelocity@ArtilleryTrajectory@@UAEXPAVBulletClass@@PAVVelocityClass@@1@Z 1001acf0 f   ArtilleryTrajectory.obj
 0001:00019d10       ?OnUnlimbo@ArtilleryTrajectory@@UAEXPAVBulletClass@@PAUCoordStruct@@PAVVelocityClass@@@Z 1001ad10 f   ArtilleryTrajectory.obj
 0001:00019f20       ?Read@ArtilleryTrajectoryType@@UAE_NQAVCCINIClass@@PBD@Z 1001af20 f   ArtilleryTrajectory.obj
 0001:00019f60       ?Save@ArtilleryTrajectory@@UBE_NAAVPhobosStreamWriter@@@Z 1001af60 f   ArtilleryTrajectory.obj
 0001:00019f90       ?Save@ArtilleryTrajectoryType@@UBE_NAAVPhobosStreamWriter@@@Z 1001af90 f   ArtilleryTrajectory.obj
 0001:00019f90       ?Save@BombardTrajectoryType@@UBE_NAAVPhobosStreamWriter@@@Z 1001af90 f   BombardTrajectory.obj
 0001:00019fc0       ?Load@BombardTrajectory@@UAE_NAAVPhobosStreamReader@@_N@Z 1001afc0 f   BombardTrajectory.obj
 0001:0001a020       ?OnAI@BombardTrajectory@@UAE_NPAVBulletClass@@@Z 1001b020 f   BombardTrajectory.obj
 0001:0001a0c0       ?OnAITechnoCheck@BombardTrajectory@@UAE?AW4TrajectoryCheckReturnType@@PAVBulletClass@@PAVTechnoClass@@@Z 1001b0c0 f   BombardTrajectory.obj
 0001:0001a0c0       ?OnAITechnoCheck@BounceTrajectory@@UAE?AW4TrajectoryCheckReturnType@@PAVBulletClass@@PAVTechnoClass@@@Z 1001b0c0 f   BounceTrajectory.obj
 0001:0001a0d0       ?OnAIVelocity@BombardTrajectory@@UAEXPAVBulletClass@@PAVVelocityClass@@1@Z 1001b0d0 f   BombardTrajectory.obj
 0001:0001a170       ?OnUnlimbo@BombardTrajectory@@UAEXPAVBulletClass@@PAUCoordStruct@@PAVVelocityClass@@@Z 1001b170 f   BombardTrajectory.obj
 0001:0001a280       ?Read@BombardTrajectoryType@@UAE_NQAVCCINIClass@@PBD@Z 1001b280 f   BombardTrajectory.obj
 0001:0001a2c0       ?Save@BombardTrajectory@@UBE_NAAVPhobosStreamWriter@@@Z 1001b2c0 f   BombardTrajectory.obj
 0001:0001a300       ?Load@BounceTrajectory@@UAE_NAAVPhobosStreamReader@@_N@Z 1001b300 f   BounceTrajectory.obj
 0001:0001a360       ?Load@BounceTrajectoryType@@UAE_NAAVPhobosStreamReader@@_N@Z 1001b360 f   BounceTrajectory.obj
 0001:0001a3c0       ?DrawParasitedPips@TechnoExt@@SGXPAVTechnoClass@@PAVPoint2D@@PAURectangleStruct@@@Z 1001b3c0 f   Body.obj
 0001:0001a3c0       ?Error@RawFileClass@@UAEXW4FileErrorType@@_NPBD@Z 1001b3c0 f   Hooks.OtamaaBugFix.obj
 0001:0001a3c0       ?OnAIVelocity@BounceTrajectory@@UAEXPAVBulletClass@@PAVVelocityClass@@1@Z 1001b3c0 f   BounceTrajectory.obj
 0001:0001a3d0       ?OnUnlimbo@BounceTrajectory@@UAEXPAVBulletClass@@PAUCoordStruct@@PAVVelocityClass@@@Z 1001b3d0 f   BounceTrajectory.obj
 0001:0001a490       ?Read@?$Valueable@PAVWeaponTypeClass@@@@QAEXAAVINI_EX@@PBD1_N@Z 1001b490 f i BounceTrajectory.obj
 0001:0001a530       ?Read@BounceTrajectoryType@@UAE_NQAVCCINIClass@@PBD@Z 1001b530 f   BounceTrajectory.obj
 0001:0001a5a0       ?Save@BounceTrajectory@@UBE_NAAVPhobosStreamWriter@@@Z 1001b5a0 f   BounceTrajectory.obj
 0001:0001a5e0       ?Save@BounceTrajectoryType@@UBE_NAAVPhobosStreamWriter@@@Z 1001b5e0 f   BounceTrajectory.obj
 0001:0001a620       _BulletClass_AI_Before_TechnoCheck 1001b620 f   BounceTrajectory.obj
 0001:0001a690       _BulletClass_AI_CheckBounce 1001b690 f   BounceTrajectory.obj
 0001:0001a7b0       ??_EArtilleryTrajectory@@UAEPAXI@Z 1001b7b0 f i PhobosTrajectory.obj
 0001:0001a7b0       ??_GArtilleryTrajectory@@UAEPAXI@Z 1001b7b0 f i PhobosTrajectory.obj
 0001:0001a7e0       ??_EArtilleryTrajectoryType@@UAEPAXI@Z 1001b7e0 f i PhobosTrajectory.obj
 0001:0001a7e0       ??_EBombardTrajectoryType@@UAEPAXI@Z 1001b7e0 f i PhobosTrajectory.obj
 0001:0001a7e0       ??_EBounceTrajectoryType@@UAEPAXI@Z 1001b7e0 f i PhobosTrajectory.obj
 0001:0001a7e0       ??_ELaserTrailDataEntry@ExtData@TechnoTypeExt@@UAEPAXI@Z 1001b7e0 f i Body.obj
 0001:0001a7e0       ??_GArtilleryTrajectoryType@@UAEPAXI@Z 1001b7e0 f i PhobosTrajectory.obj
 0001:0001a7e0       ??_GBombardTrajectoryType@@UAEPAXI@Z 1001b7e0 f i PhobosTrajectory.obj
 0001:0001a7e0       ??_GBounceTrajectoryType@@UAEPAXI@Z 1001b7e0 f i PhobosTrajectory.obj
 0001:0001a7e0       ??_GLaserTrailDataEntry@ExtData@TechnoTypeExt@@UAEPAXI@Z 1001b7e0 f i Body.obj
 0001:0001a800       ??_EBombardTrajectory@@UAEPAXI@Z 1001b800 f i PhobosTrajectory.obj
 0001:0001a800       ??_GBombardTrajectory@@UAEPAXI@Z 1001b800 f i PhobosTrajectory.obj
 0001:0001a830       ??_EBounceTrajectory@@UAEPAXI@Z 1001b830 f i PhobosTrajectory.obj
 0001:0001a830       ??_GBounceTrajectory@@UAEPAXI@Z 1001b830 f i PhobosTrajectory.obj
 0001:0001a860       ??_EPhobosTrajectory@@UAEPAXI@Z 1001b860 f i PhobosTrajectory.obj
 0001:0001a860       ??_EStraightTrajectory@@UAEPAXI@Z 1001b860 f i PhobosTrajectory.obj
 0001:0001a860       ??_GPhobosTrajectory@@UAEPAXI@Z 1001b860 f i PhobosTrajectory.obj
 0001:0001a860       ??_GStraightTrajectory@@UAEPAXI@Z 1001b860 f i PhobosTrajectory.obj
 0001:0001a890       ??_EExtData@RadSiteExt@@UAEPAXI@Z 1001b890 f i Body.obj
 0001:0001a890       ??_EStraightTrajectoryType@@UAEPAXI@Z 1001b890 f i PhobosTrajectory.obj
 0001:0001a890       ??_GExtData@RadSiteExt@@UAEPAXI@Z 1001b890 f i Body.obj
 0001:0001a890       ??_GStraightTrajectoryType@@UAEPAXI@Z 1001b890 f i PhobosTrajectory.obj
 0001:0001a8b0       ?CreateType@PhobosTrajectoryType@@SGXAAPAV1@QAVCCINIClass@@PBD2@Z 1001b8b0 f   PhobosTrajectory.obj
 0001:0001aa10       ?GetTrajectorySpeed@PhobosTrajectory@@QBENPAVBulletClass@@@Z 1001ba10 f   PhobosTrajectory.obj
 0001:0001aa90       ?Load@PhobosTrajectory@@UAE_NAAVPhobosStreamReader@@_N@Z 1001ba90 f   PhobosTrajectory.obj
 0001:0001ab00       ?Load@PhobosTrajectoryType@@UAE_NAAVPhobosStreamReader@@_N@Z 1001bb00 f   PhobosTrajectory.obj
 0001:0001ab60       ?LoadFromStream@PhobosTrajectory@@SGPAV1@AAVPhobosStreamReader@@@Z 1001bb60 f   PhobosTrajectory.obj
 0001:0001ad20       ?ProcessFromStream@PhobosTrajectory@@SGPAV1@AAVPhobosStreamReader@@PAV1@@Z 1001bd20 f   PhobosTrajectory.obj
 0001:0001ad30       ?ProcessFromStream@PhobosTrajectory@@SGPAV1@AAVPhobosStreamWriter@@PAV1@@Z 1001bd30 f   PhobosTrajectory.obj
 0001:0001ad80       ?ProcessFromStream@PhobosTrajectoryType@@SGPAV1@AAVPhobosStreamReader@@PAV1@@Z 1001bd80 f   PhobosTrajectory.obj
 0001:0001ae30       ?ProcessFromStream@PhobosTrajectoryType@@SGPAV1@AAVPhobosStreamWriter@@PAV1@@Z 1001be30 f   PhobosTrajectory.obj
 0001:0001ae80       ?Read@?$Nullable@ULeptons@@@@QAEXAAVINI_EX@@PBD1_N@Z 1001be80 f i PhobosTrajectory.obj
 0001:0001af40       ?Read@PhobosTrajectoryType@@UAE_NQAVCCINIClass@@PBD@Z 1001bf40 f   PhobosTrajectory.obj
 0001:0001af90       ?Save@PhobosTrajectory@@UBE_NAAVPhobosStreamWriter@@@Z 1001bf90 f   PhobosTrajectory.obj
 0001:0001afd0       ?Save@PhobosTrajectoryType@@UBE_NAAVPhobosStreamWriter@@@Z 1001bfd0 f   PhobosTrajectory.obj
 0001:0001b010       _BulletClass_AI_Position_Trajectories 1001c010 f   PhobosTrajectory.obj
 0001:0001b050       _BulletClass_AI_PreDetonation_Trajectories 1001c050 f   PhobosTrajectory.obj
 0001:0001b080       _BulletClass_AI_TargetCoordCheck_Trajectories 1001c080 f   PhobosTrajectory.obj
 0001:0001b100       _BulletClass_AI_TechnoCheck_Trajectories 1001c100 f   PhobosTrajectory.obj
 0001:0001b150       _BulletClass_AI_Trajectories 1001c150 f   PhobosTrajectory.obj
 0001:0001b190       _BulletClass_Unlimbo_Trajectories 1001c190 f   PhobosTrajectory.obj
 0001:0001b330       ?Load@StraightTrajectory@@UAE_NAAVPhobosStreamReader@@_N@Z 1001c330 f   StraightTrajectory.obj
 0001:0001b340       ?Load@StraightTrajectoryType@@UAE_NAAVPhobosStreamReader@@_N@Z 1001c340 f   StraightTrajectory.obj
 0001:0001b3b0       ?OnAI@StraightTrajectory@@UAE_NPAVBulletClass@@@Z 1001c3b0 f   StraightTrajectory.obj
 0001:0001b510       ?OnAIPreDetonate@StraightTrajectory@@UAEXPAVBulletClass@@@Z 1001c510 f   StraightTrajectory.obj
 0001:0001b5e0       ?OnAITargetCoordCheck@StraightTrajectory@@UAE?AW4TrajectoryCheckReturnType@@PAVBulletClass@@UCoordStruct@@@Z 1001c5e0 f   StraightTrajectory.obj
 0001:0001b670       ?OnAIVelocity@StraightTrajectory@@UAEXPAVBulletClass@@PAVVelocityClass@@1@Z 1001c670 f   StraightTrajectory.obj
 0001:0001b6c0       ?OnUnlimbo@StraightTrajectory@@UAEXPAVBulletClass@@PAUCoordStruct@@PAVVelocityClass@@@Z 1001c6c0 f   StraightTrajectory.obj
 0001:0001b7e0       ?Read@?$Valueable@ULeptons@@@@QAEXAAVINI_EX@@PBD1_N@Z 1001c7e0 f i StraightTrajectory.obj
 0001:0001b8a0       ?Read@StraightTrajectoryType@@UAE_NQAVCCINIClass@@PBD@Z 1001c8a0 f   StraightTrajectory.obj
 0001:0001b910       ?Save@StraightTrajectory@@UBE_NAAVPhobosStreamWriter@@@Z 1001c910 f   StraightTrajectory.obj
 0001:0001b920       ?Save@StraightTrajectoryType@@UBE_NAAVPhobosStreamWriter@@@Z 1001c920 f   StraightTrajectory.obj
 0001:0001b970       ??1ExtContainer@CaptureExt@@UAE@XZ 1001c970 f   Body.obj
 0001:0001b9d0       ??_EExtContainer@CaptureExt@@UAEPAXI@Z 1001c9d0 f i Body.obj
 0001:0001b9d0       ??_GExtContainer@CaptureExt@@UAEPAXI@Z 1001c9d0 f i Body.obj
 0001:0001ba00       ?AllowDrawLink@CaptureExt@@SG_NPAVTechnoTypeClass@@@Z 1001ca00 f   Body.obj
 0001:0001ba20       ?CanCapture@CaptureExt@@SG_NPAVCaptureManagerClass@@PAVTechnoClass@@@Z 1001ca20 f   Body.obj
 0001:0001ba80       ?CanCapture@CaptureManagerClass@@QBE_NPAVTechnoClass@@@Z 1001ca80 f i Body.obj
 0001:0001baa0       ?CaptureUnit@CaptureExt@@SG_NPAVCaptureManagerClass@@PAVTechnoClass@@PAVAnimTypeClass@@@Z 1001caa0 f   Body.obj
 0001:0001bb00       ?CaptureUnit@CaptureExt@@SG_NPAVCaptureManagerClass@@PAVTechnoClass@@_NPAVAnimTypeClass@@@Z 1001cb00 f   Body.obj
 0001:0001bd50       ?DecideUnitFate@CaptureManagerClass@@QBEXPAVTechnoClass@@@Z 1001cd50 f i Body.obj
 0001:0001bd70       ?FreeUnit@CaptureExt@@SG_NPAVCaptureManagerClass@@PAVTechnoClass@@_N@Z 1001cd70 f   Body.obj
 0001:0001be80       ?HandleOverload@CaptureManagerClass@@QBEXXZ 1001ce80 f i Body.obj
 0001:0001bea0       ?Load@?$Container@VCaptureExt@@@@MAE_NPAVCaptureManagerClass@@PAUIStream@@@Z 1001cea0 f i Body.obj
 0001:0001c020       ?PlayAtPos@VoxClass@@SIXHPAUCoordStruct@@K@Z 1001d020 f i Hooks.obj
 0001:0001c020       ?PlayIndexAtPos@VocClass@@SIXHABUCoordStruct@@H@Z 1001d020 f i Body.obj
 0001:0001c040       ?Save@?$Container@VCaptureExt@@@@MAE_NPAVCaptureManagerClass@@PAUIStream@@@Z 1001d040 f i Body.obj
 0001:0001c130       _CaptureManagerClass_CTOR  1001d130 f   Body.obj
 0001:0001c220       _CaptureManagerClass_DTOR  1001d220 f   Body.obj
 0001:0001c2b0       _CaptureManagerClass_Load_Suffix 1001d2b0 f   Body.obj
 0001:0001c340       _CaptureManagerClass_SaveLoad_Prefix 1001d340 f   Body.obj
 0001:0001c380       _CaptureManagerClass_Save_Suffix 1001d380 f   Body.obj
 0001:0001c400       ?DrawLinkTo@CaptureExt@@SGXUCoordStruct@@0UColorStruct@@@Z 1001d400 f i Hooks.obj
 0001:0001c420       ?GetElements@?$NullableVector@H@@QBE?AV?$Iterator@H@@V2@@Z 1001d420 f i Hooks.obj
 0001:0001c450       _CaptureManagerClass_CaptureUnit 1001d450 f   Hooks.obj
 0001:0001c480       _CaptureManagerClass_DrawLinkToVictim 1001d480 f   Hooks.obj
 0001:0001c5d0       _CaptureManagerClass_FreeUnit 1001d5d0 f   Hooks.obj
 0001:0001c5f0       _TechnoClass_AI_Overload_AI_Replace 1001d5f0 f   Hooks.obj
 0001:0001c950       _TechnoClass_CanFire_CanCapture 1001d950 f   Hooks.obj
 0001:0001c970       ??1ExtContainer@CellExt@@UAE@XZ 1001d970 f   Body.obj
 0001:0001c9d0       ??_EExtContainer@CellExt@@UAEPAXI@Z 1001d9d0 f i Body.obj
 0001:0001c9d0       ??_GExtContainer@CellExt@@UAEPAXI@Z 1001d9d0 f i Body.obj
 0001:0001ca00       ?GetOverlayIndex@CellExt@@SGHPAVCellClass@@@Z 1001da00 f   Body.obj
 0001:0001caa0       ?Load@?$Container@VCellExt@@@@MAE_NPAVCellClass@@PAUIStream@@@Z 1001daa0 f i Body.obj
 0001:0001cc30       ?Save@?$Container@VCellExt@@@@MAE_NPAVCellClass@@PAUIStream@@@Z 1001dc30 f i Body.obj
 0001:0001cd30       _CellClass_CTOR            1001dd30 f   Body.obj
 0001:0001ce20       _CellClass_DTOR            1001de20 f   Body.obj
 0001:0001ceb0       _CellClass_Load_Suffix     1001deb0 f   Body.obj
 0001:0001cf40       _CellClass_SaveLoad_Prefix 1001df40 f   Body.obj
 0001:0001cf80       _CellClass_Save_Suffix     1001df80 f   Body.obj
 0001:0001d000       _CellClass_DrawOverlay_Tiberium 1001e000 f   Hooks.obj
 0001:0001d140       _CellClass_DrawShadow_Tiberium 1001e140 f   Hooks.obj
 0001:0001d170       _CellClass_GetOverlayShadowRect 1001e170 f   Hooks.obj
 0001:0001d1b0       ??1ExtContainer@ParasiteExt@@UAE@XZ 1001e1b0 f   Body.obj
 0001:0001d210       ??_EExtContainer@ParasiteExt@@UAEPAXI@Z 1001e210 f i Body.obj
 0001:0001d210       ??_GExtContainer@ParasiteExt@@UAEPAXI@Z 1001e210 f i Body.obj
 0001:0001d240       ?Load@?$Container@VParasiteExt@@@@MAE_NPAVParasiteClass@@PAUIStream@@@Z 1001e240 f i Body.obj
 0001:0001d3e0       ?LoadFromStream@ExtData@ParasiteExt@@UAEXAAVPhobosStreamReader@@@Z 1001e3e0 f   Body.obj
 0001:0001d410       ?Save@?$Container@VParasiteExt@@@@MAE_NPAVParasiteClass@@PAUIStream@@@Z 1001e410 f i Body.obj
 0001:0001d510       ?SaveToStream@ExtData@ParasiteExt@@UAEXAAVPhobosStreamWriter@@@Z 1001e510 f   Body.obj
 0001:0001d530       _ParasiteClass_CTOR        1001e530 f   Body.obj
 0001:0001d620       _ParasiteClass_DTOR        1001e620 f   Body.obj
 0001:0001d6b0       _ParasiteClass_Load_Suffix 1001e6b0 f   Body.obj
 0001:0001d740       _ParasiteClass_SaveLoad_Prefix 1001e740 f   Body.obj
 0001:0001d780       _ParasiteClass_Save_Suffix 1001e780 f   Body.obj
 0001:0001d840       _ParasiteClass_AI_DisableRocking 1001e840 f   Hooks.obj
 0001:0001d880       _ParasiteClass_AI_InfantryAction 1001e880 f   Hooks.obj
 0001:0001d8b0       _ParasiteClass_AI_Particle 1001e8b0 f   Hooks.obj
 0001:0001d940       _ParasiteClass_AI_WeaponAnim 1001e940 f   Hooks.obj
 0001:0001d9d0       _ParasiteClass_ExitUnit_ExitSound 1001e9d0 f   Hooks.obj
 0001:0001da30       _ParasiteClass_SquiddyGrab_DeharcodeSplash 1001ea30 f   Hooks.obj
 0001:0001db20       ??$_Assign_range@PAH@?$vector@HV?$allocator@H@std@@@std@@AAEXPAH0Uforward_iterator_tag@1@@Z 1001eb20 f i Body.obj
 0001:0001db20       ??$_Assign_range@PAPAVWeaponTypeClass@@@?$vector@PAVWeaponTypeClass@@V?$allocator@PAVWeaponTypeClass@@@std@@@std@@AAEXPAPAVWeaponTypeClass@@0Uforward_iterator_tag@1@@Z 1001eb20 f i Body.obj
 0001:0001db20       ??$_Assign_range@PAW4LandType@@@?$vector@W4LandType@@V?$allocator@W4LandType@@@std@@@std@@AAEXPAW4LandType@@0Uforward_iterator_tag@1@@Z 1001eb20 f i Body.obj
 0001:0001db20       ??$_Assign_range@PAW4TileType@@@?$vector@W4TileType@@V?$allocator@W4TileType@@@std@@@std@@AAEXPAW4TileType@@0Uforward_iterator_tag@1@@Z 1001eb20 f i Body.obj
 0001:0001dc50       ??$_Destroy_range@V?$allocator@UTrailData@@@std@@@std@@YGXPAUTrailData@@QAU1@AAV?$allocator@UTrailData@@@0@@Z 1001ec50 f i Body.obj
 0001:0001dc80       ??$_Emplace_reallocate@ABHABUCoordStruct@@_N@?$vector@UTrailData@@V?$allocator@UTrailData@@@std@@@std@@AAEPAUTrailData@@QAU2@ABHABUCoordStruct@@$$QA_N@Z 1001ec80 f i Body.obj
 0001:0001ddf0       ??$_Emplace_reallocate@UTrailData@@@?$vector@UTrailData@@V?$allocator@UTrailData@@@std@@@std@@AAEPAUTrailData@@QAU2@$$QAU2@@Z 1001edf0 f i Body.obj
 0001:0001df50       ??$_Resize_reallocate@U_Value_init_tag@std@@@?$vector@UTrailData@@V?$allocator@UTrailData@@@std@@@std@@AAEXIABU_Value_init_tag@1@@Z 1001ef50 f i Body.obj
 0001:0001e070       ??$_Uninitialized_copy@PAUTrailData@@V?$allocator@UTrailData@@@std@@@std@@YGPAUTrailData@@QAU1@0PAU1@AAV?$allocator@UTrailData@@@0@@Z 1001f070 f i Body.obj
 0001:0001e070       ??$_Uninitialized_move@PAUTrailData@@V?$allocator@UTrailData@@@std@@@std@@YGPAUTrailData@@QAU1@0PAU1@AAV?$allocator@UTrailData@@@0@@Z 1001f070 f i Body.obj
 0001:0001e0a0       ??$_Uninitialized_value_construct_n@V?$allocator@UTrailData@@@std@@@std@@YGPAUTrailData@@PAU1@IAAV?$allocator@UTrailData@@@0@@Z 1001f0a0 f i Body.obj
 0001:0001e110       ??$construct@UTrailData@@ABHABUCoordStruct@@_N@?$_Default_allocator_traits@V?$allocator@UTrailData@@@std@@@std@@SGXAAV?$allocator@UTrailData@@@1@QAUTrailData@@ABHABUCoordStruct@@$$QA_N@Z 1001f110 f i Body.obj
 0001:0001e180       ??$parse_values@W4LandType@@@detail@@YGXAAV?$vector@W4LandType@@V?$allocator@W4LandType@@@std@@@std@@AAVINI_EX@@PBD2_N@Z 1001f180 f i Body.obj
 0001:0001e390       ??$parse_values@W4TileType@@@detail@@YGXAAV?$vector@W4TileType@@V?$allocator@W4TileType@@@std@@@std@@AAVINI_EX@@PBD2_N@Z 1001f390 f i Body.obj
 0001:0001e6a0       ??0TrailData@@QAE@ABU0@@Z  1001f6a0 f i Body.obj
 0001:0001e7a0       ??1?$vector@UTrailData@@V?$allocator@UTrailData@@@std@@@std@@QAE@XZ 1001f7a0 f i Body.obj
 0001:0001e820       ??1ExtContainer@ParticleTypeExt@@UAE@XZ 1001f820 f   Body.obj
 0001:0001e880       ??1TrailData@@QAE@XZ       1001f880 f i Body.obj
 0001:0001e920       ??_EExtContainer@ParticleTypeExt@@UAEPAXI@Z 1001f920 f i Body.obj
 0001:0001e920       ??_GExtContainer@ParticleTypeExt@@UAEPAXI@Z 1001f920 f i Body.obj
 0001:0001e950       ??_EExtData@ParticleTypeExt@@UAEPAXI@Z 1001f950 f i Body.obj
 0001:0001e950       ??_GExtData@ParticleTypeExt@@UAEPAXI@Z 1001f950 f i Body.obj
 0001:0001e9d0       ?FindOrAllocate@?$Container@VParticleTypeExt@@@@QAEPAVExtData@ParticleTypeExt@@PAVParticleTypeClass@@@Z 1001f9d0 f i Body.obj
 0001:0001eb60       ?Initialize@ExtData@ParticleTypeExt@@UAEXXZ 1001fb60 f i Body.obj
 0001:0001eb60       ?Initialize@ExtData@VoxelAnimTypeExt@@UAEXXZ 1001fb60 f i Body.obj
 0001:0001eb80       ?Load@?$Container@VParticleTypeExt@@@@MAE_NPAVParticleTypeClass@@PAUIStream@@@Z 1001fb80 f i Body.obj
 0001:0001eba0       ?Load@?$ValueableVector@UTrailData@@@@QAE_NAAVPhobosStreamReader@@_N@Z 1001fba0 f i Body.obj
 0001:0001ede0       ?LoadFromINIFile@ExtData@ParticleTypeExt@@UAEXPAVCCINIClass@@@Z 1001fde0 f   Body.obj
 0001:0001ee30       ?LoadFromStream@ExtData@ParticleTypeExt@@UAEXAAVPhobosStreamReader@@@Z 1001fe30 f   Body.obj
 0001:0001ef20       ?LoadKey@?$Container@VParticleTypeExt@@@@IAEPAVExtData@ParticleTypeExt@@PAVParticleTypeClass@@PAUIStream@@@Z 1001ff20 f i Body.obj
 0001:0001f100       ?Read@?$NullableIdx@VTrailType@@@@QAEXAAVINI_EX@@PBD1@Z 10020100 f i Body.obj
 0001:0001f1d0       ?Read@?$ValueableIdxVector@VLaserTrailTypeClass@@@@QAEXAAVINI_EX@@PBD1@Z 100201d0 f i Body.obj
 0001:0001f310       ?Read@?$ValueableVector@W4LandType@@@@QAEXAAVINI_EX@@PBD1_N@Z 10020310 f i Body.obj
 0001:0001f360       ?Read@?$ValueableVector@W4TileType@@@@QAEXAAVINI_EX@@PBD1_N@Z 10020360 f i Body.obj
 0001:0001f3b0       ?Read@TrailsReader@@QAEXAAVINI_EX@@PBD_N@Z 100203b0 f i Body.obj
 0001:0001f820       ?Save@?$Container@VParticleTypeExt@@@@MAE_NPAVParticleTypeClass@@PAUIStream@@@Z 10020820 f i Body.obj
 0001:0001f840       ?SaveKey@?$Container@VParticleTypeExt@@@@IAEPAVExtData@ParticleTypeExt@@PAVParticleTypeClass@@PAUIStream@@@Z 10020840 f i Body.obj
 0001:0001fa30       ?SaveToStream@ExtData@ParticleTypeExt@@UAEXAAVPhobosStreamWriter@@@Z 10020a30 f   Body.obj
 0001:0001fb40       ?Size@ExtData@ParticleTypeExt@@UBEIXZ 10020b40 f i Body.obj
 0001:0001fb50       ?_Change_array@?$vector@UTrailData@@V?$allocator@UTrailData@@@std@@@std@@AAEXQAUTrailData@@II@Z 10020b50 f i Body.obj
 0001:0001fbe0       ?_Reallocate_exactly@?$vector@UTrailData@@V?$allocator@UTrailData@@@std@@@std@@AAEXI@Z 10020be0 f i Body.obj
 0001:0001fc80       ?allocate@?$allocator@UTrailData@@@std@@QAEPAUTrailData@@I@Z 10020c80 f i Body.obj
 0001:0001fce0       ?deallocate@?$allocator@UTrailData@@@std@@QAEXQAUTrailData@@I@Z 10020ce0 f i Body.obj
 0001:0001fd20       _ParticleTypeClass_CTOR    10020d20 f   Body.obj
 0001:0001fd40       _ParticleTypeClass_DTOR    10020d40 f   Body.obj
 0001:0001fe20       _ParticleTypeClass_LoadFromINI 10020e20 f   Body.obj
 0001:0001fec0       _ParticleTypeClass_Load_Suffix 10020ec0 f   Body.obj
 0001:0001ff50       _ParticleTypeClass_SaveLoad_Prefix 10020f50 f   Body.obj
 0001:0001ff90       _ParticleTypeClass_Save_Suffix 10020f90 f   Body.obj
 0001:00020010       ??1ExtContainer@ParticleExt@@UAE@XZ 10021010 f   Body.obj
 0001:00020070       ??_EExtContainer@ParticleExt@@UAEPAXI@Z 10021070 f i Body.obj
 0001:00020070       ??_GExtContainer@ParticleExt@@UAEPAXI@Z 10021070 f i Body.obj
 0001:000200a0       ??_EExtData@ParticleExt@@UAEPAXI@Z 100210a0 f i Body.obj
 0001:000200a0       ??_GExtData@ParticleExt@@UAEPAXI@Z 100210a0 f i Body.obj
 0001:000200d0       ?FindOrAllocate@?$Container@VParticleExt@@@@QAEPAVExtData@ParticleExt@@PAVParticleClass@@@Z 100210d0 f i Body.obj
 0001:00020240       ?InitializeConstants@ExtData@ParticleExt@@UAEXXZ 10021240 f   Body.obj
 0001:000204a0       ?Load@?$Container@VParticleExt@@@@MAE_NPAVParticleClass@@PAUIStream@@@Z 100214a0 f i Body.obj
 0001:00020600       ?LoadFromStream@ExtData@ParticleExt@@UAEXAAVPhobosStreamReader@@@Z 10021600 f   Body.obj
 0001:00020660       ?ObjectClass_limbo_Particle@@YI_NPAVObjectClass@@PAX@Z 10021660 f   Body.obj
 0001:00020710       ?Save@?$Container@VParticleExt@@@@MAE_NPAVParticleClass@@PAUIStream@@@Z 10021710 f i Body.obj
 0001:00020730       ?SaveKey@?$Container@VParticleExt@@@@IAEPAVExtData@ParticleExt@@PAVParticleClass@@PAUIStream@@@Z 10021730 f i Body.obj
 0001:000208e0       ?SaveToStream@ExtData@ParticleExt@@UAEXAAVPhobosStreamWriter@@@Z 100218e0 f   Body.obj
 0001:000209b0       ?Uninitialize@ExtData@ParticleExt@@UAEXXZ 100219b0 f   Body.obj
 0001:00020a10       _ParticleClass_CTOR        10021a10 f   Body.obj
 0001:00020a30       _ParticleClass_Load_Suffix 10021a30 f   Body.obj
 0001:00020ac0       _ParticleClass_SaveLoad_Prefix 10021ac0 f   Body.obj
 0001:00020b00       _ParticleClass_Save_Suffix 10021b00 f   Body.obj
 0001:00020b80       _ParticleClass_AI          10021b80 f   Hooks.obj
 0001:00020c50       ?GetAltCoords_Wrapper@RadSiteExt@@SIPAUCoordStruct@@PAVRadSiteClass@@PAXPAU2@@Z 10021c50 f i Hooks.obj
 0001:00020ca0       _BuildingClass_AI          10021ca0 f   Hooks.obj
 0001:00020fd0       _BulletClass_ApplyRadiation_NoBullet 10021fd0 f   Hooks.obj
 0001:00021210       _BulletClass_Logics_ApplyRadiation 10022210 f   Hooks.obj
 0001:000212b0       _FootClass_AI_Radiation    100222b0 f   Hooks.obj
 0001:00021580       _FootClass_AI_SkipForCustomRad 10022580 f   Hooks.obj
 0001:000215a0       _InfantryClass_AIDeployment_CheckRad 100225a0 f   Hooks.obj
 0001:00021710       _InfantryClass_AIDeployment_FireNotOKCloakFix 10022710 f   Hooks.obj
 0001:000217b0       _RadSiteClass_AI_LevelDelay 100227b0 f   Hooks.obj
 0001:00021800       _RadSiteClass_AI_LightDelay 10022800 f   Hooks.obj
 0001:00021850       _RadSite_Deactivate        10022850 f   Hooks.obj
 0001:000218b0       ??0LightSourceClass@@QAE@UCoordStruct@@HHUTintStruct@@@Z 100228b0 f i Body.obj
 0001:000218d0       ??0RadSiteClass@@QAE@XZ    100228d0 f i Body.obj
 0001:00021910       ??1ExtContainer@RadSiteExt@@UAE@XZ 10022910 f   Body.obj
 0001:00021970       ??_EExtContainer@RadSiteExt@@UAEPAXI@Z 10022970 f i Body.obj
 0001:00021970       ??_GExtContainer@RadSiteExt@@UAEPAXI@Z 10022970 f i Body.obj
 0001:000219a0       ?Activate@LightSourceClass@@QAEXK@Z 100229a0 f i Body.obj
 0001:000219c0       ?Add@ExtData@RadSiteExt@@QAEXH@Z 100229c0 f   Body.obj
 0001:00021a20       ?ChangeLevels@LightSourceClass@@QAEXHUTintStruct@@D@Z 10022a20 f i Body.obj
 0001:00021a40       ?CreateInstance@RadSiteExt@@SGXABVCellStruct@@HHPAVExtData@WeaponTypeExt@@QAVTechnoClass@@@Z 10022a40 f   Body.obj
 0001:00021b70       ?CreateLight@ExtData@RadSiteExt@@QAEXXZ 10022b70 f   Body.obj
 0001:00021e00       ?Deactivate@RadSiteClass@@QBEXXZ 10022e00 f i Body.obj
 0001:00021e20       ?Find@?$Enumerable@VRadTypeClass@@@@SGPAVRadTypeClass@@PBD@Z 10022e20 f i Body.obj
 0001:00021ea0       ?GetRadLevelAt@ExtData@RadSiteExt@@QAE?BNABVCellStruct@@@Z 10022ea0 f   Body.obj
 0001:00021fb0       ?InitializeConstants@ExtData@RadSiteExt@@UAEXXZ 10022fb0 f   Body.obj
 0001:00022040       ?InvalidateExtDataIgnorable@ExtContainer@RadSiteExt@@UBE_NPAX@Z 10023040 f i Body.obj
 0001:00022040       ?InvalidateExtDataIgnorable@ExtContainer@VoxelAnimExt@@UBE_NQAX@Z 10023040 f i Body.obj
 0001:00022080       ?InvalidatePointer@ExtData@RadSiteExt@@UAEXPAX_N@Z 10023080 f   Body.obj
 0001:000220a0       ?Load@?$Container@VRadSiteExt@@@@MAE_NPAVRadSiteClass@@PAUIStream@@@Z 100230a0 f i Body.obj
 0001:000220c0       ?LoadFromStream@ExtData@RadSiteExt@@UAEXAAVPhobosStreamReader@@@Z 100230c0 f   Body.obj
 0001:000221a0       ?LoadKey@?$Container@VRadSiteExt@@@@IAEPAVExtData@RadSiteExt@@PAVRadSiteClass@@PAUIStream@@@Z 100231a0 f i Body.obj
 0001:000223e0       ?Radiate@RadSiteClass@@QBEXXZ 100233e0 f i Body.obj
 0001:00022400       ?Save@?$Container@VRadSiteExt@@@@MAE_NPAVRadSiteClass@@PAUIStream@@@Z 10023400 f i Body.obj
 0001:00022530       ?SaveToStream@ExtData@RadSiteExt@@UAEXAAVPhobosStreamWriter@@@Z 10023530 f   Body.obj
 0001:00022590       ?SetBaseCell@RadSiteClass@@QBEXPAVCellStruct@@@Z 10023590 f i Body.obj
 0001:000225b0       ?SetSpread@RadSiteClass@@QBEXH@Z 100235b0 f i Body.obj
 0001:000225d0       _RadSiteClass_CTOR         100235d0 f   Body.obj
 0001:00022720       _RadSiteClass_DTOR         10023720 f   Body.obj
 0001:000227c0       _RadSiteClass_Load_Suffix  100237c0 f   Body.obj
 0001:00022860       _RadSiteClass_SaveLoad_Prefix 10023860 f   Body.obj
 0001:000228a0       _RadSiteClass_Save_Suffix  100238a0 f   Body.obj
 0001:00022a30       ?CellIteratorNext@MapClass@@QAEPAVCellClass@@XZ 10023a30 f i Hooks.obj
 0001:00022a40       ?CellIteratorReset@MapClass@@QAEXXZ 10023a40 f i Hooks.obj
 0001:00022a50       ?InitLightConvert@CellClass@@QBEXPAVLightConvertClass@@HHHHH@Z 10023a50 f i Hooks.obj
 0001:00022a70       ?UpdateCellLighting@ScenarioClass@@SIXXZ 10023a70 f i Hooks.obj
 0001:00022a80       ?UpdateColors@LightConvertClass@@UAEXHHH_N@Z 10023a80 f i Hooks.obj
 0001:00022aa0       ?UpdateHashPalLighting@ScenarioClass@@SIXHHH_N@Z 10023aa0 f i Hooks.obj
 0001:00022ac0       ?strcpy@CRT@@SAPADPADPBD@Z 10023ac0 f i Hooks.obj
 0001:00022ad0       _LoadGame_Initialize_IonStormClass 10023ad0 f   Hooks.obj
 0001:00022c70       _ScoreDialog_Handle_ScoreThemeA 10023c70 f   Hooks.obj
 0001:00022ca0       _ScoreDialog_Handle_ScoreThemeB 10023ca0 f   Hooks.obj
 0001:00022cd0       _SelectNextMission         10023cd0 f   Hooks.obj
 0001:00022cf0       _ReadScenarioINI_Inlined_ReadGlobalVariables 10023cf0 f   Hooks.Variables.obj
 0001:00022d20       _ScenarioClass_GetGlobalStateByID 10023d20 f   Hooks.Variables.obj
 0001:00022d40       _ScenarioClass_GetLocalStateByID 10023d40 f   Hooks.Variables.obj
 0001:00022d60       _ScenarioClass_ReadGlobalVariables 10023d60 f   Hooks.Variables.obj
 0001:00022d80       _ScenarioClass_ReadLocalVariables 10023d80 f   Hooks.Variables.obj
 0001:00022da0       _ScenarioClass_SetGlobalToByID 10023da0 f   Hooks.Variables.obj
 0001:00022dd0       _ScenarioClass_SetLocalToByID 10023dd0 f   Hooks.Variables.obj
 0001:00022e00       ??$_Erase_tree@V?$allocator@U?$_Tree_node@U?$pair@$$CBHVCellStruct@@@std@@PAX@std@@@std@@@?$_Tree_val@U?$_Tree_simple_types@U?$pair@$$CBHVCellStruct@@@std@@@std@@@std@@QAEXAAV?$allocator@U?$_Tree_node@U?$pair@$$CBHVCellStruct@@@std@@PAX@std@@@1@PAU?$_Tree_node@U?$pair@$$CBHVCellStruct@@@std@@PAX@1@@Z 10023e00 f i Hooks.Waypoints.obj
 0001:00022e00       ??$_Erase_tree@V?$allocator@U?$_Tree_node@U?$pair@QAVExtData@BuildingTypeExt@@H@std@@PAX@std@@@std@@@?$_Tree_val@U?$_Tree_simple_types@U?$pair@QAVExtData@BuildingTypeExt@@H@std@@@std@@@std@@QAEXAAV?$allocator@U?$_Tree_node@U?$pair@QAVExtData@BuildingTypeExt@@H@std@@PAX@std@@@1@PAU?$_Tree_node@U?$pair@QAVExtData@BuildingTypeExt@@H@std@@PAX@1@@Z 10023e00 f i Body.obj
 0001:00022e40       ??$_Find_lower_bound@H@?$_Tree@V?$_Tmap_traits@HUExtendedVariable@@U?$less@H@std@@V?$allocator@U?$pair@$$CBHUExtendedVariable@@@std@@@3@$0A@@std@@@std@@IBE?AU?$_Tree_find_result@PAU?$_Tree_node@U?$pair@$$CBHUExtendedVariable@@@std@@PAX@std@@@1@ABH@Z 10023e40 f i Body.obj
 0001:00022e40       ??$_Find_lower_bound@H@?$_Tree@V?$_Tmap_traits@HVCellStruct@@U?$less@H@std@@V?$allocator@U?$pair@$$CBHVCellStruct@@@std@@@3@$0A@@std@@@std@@IBE?AU?$_Tree_find_result@PAU?$_Tree_node@U?$pair@$$CBHVCellStruct@@@std@@PAX@std@@@1@ABH@Z 10023e40 f i Hooks.Waypoints.obj
 0001:00022e90       ??$sprintf_s@$0CA@@@YAHAAY0CA@DPBDZZ 10023e90 f i Hooks.Waypoints.obj
 0001:00022ec0       ??A?$map@HVCellStruct@@U?$less@H@std@@V?$allocator@U?$pair@$$CBHVCellStruct@@@std@@@3@@std@@QAEAAVCellStruct@@ABH@Z 10023ec0 f i Hooks.Waypoints.obj
 0001:00022f40       ?Clear@INIClass@@QAEXPBDPAD@Z 10023f40 f i Hooks.Waypoints.obj
 0001:00022f60       ?GetKeyCount@INIClass@@QAEHPBD@Z 10023f60 f i Hooks.Waypoints.obj
 0001:00022f80       ?GetKeyName@INIClass@@QAEPBDPBDH@Z 10023f80 f i Hooks.Waypoints.obj
 0001:00022fa0       ?IsDefinedWaypoint@ScenarioClass@@QAE_NH@Z 10023fa0 f i Hooks.Waypoints.obj
 0001:00022fc0       ?WriteInteger@INIClass@@QAE_NPBD0H_N@Z 10023fc0 f i Hooks.Waypoints.obj
 0001:00022fe0       ?_Insert_node@?$_Tree_val@U?$_Tree_simple_types@PAVTechnoClass@@@std@@@std@@QAEPAU?$_Tree_node@PAVTechnoClass@@PAX@2@U?$_Tree_id@PAU?$_Tree_node@PAVTechnoClass@@PAX@std@@@2@QAU32@@Z 10023fe0 f i Detonate.obj
 0001:00022fe0       ?_Insert_node@?$_Tree_val@U?$_Tree_simple_types@U?$pair@$$CBHUExtendedVariable@@@std@@@std@@@std@@QAEPAU?$_Tree_node@U?$pair@$$CBHUExtendedVariable@@@std@@PAX@2@U?$_Tree_id@PAU?$_Tree_node@U?$pair@$$CBHUExtendedVariable@@@std@@PAX@std@@@2@QAU32@@Z 10023fe0 f i Body.obj
 0001:00022fe0       ?_Insert_node@?$_Tree_val@U?$_Tree_simple_types@U?$pair@$$CBHVCellStruct@@@std@@@std@@@std@@QAEPAU?$_Tree_node@U?$pair@$$CBHVCellStruct@@@std@@PAX@2@U?$_Tree_id@PAU?$_Tree_node@U?$pair@$$CBHVCellStruct@@@std@@PAX@std@@@2@QAU32@@Z 10023fe0 f i Hooks.Waypoints.obj
 0001:00022fe0       ?_Insert_node@?$_Tree_val@U?$_Tree_simple_types@U?$pair@$$CBVPoint2D@@H@std@@@std@@@std@@QAEPAU?$_Tree_node@U?$pair@$$CBVPoint2D@@H@std@@PAX@2@U?$_Tree_id@PAU?$_Tree_node@U?$pair@$$CBVPoint2D@@H@std@@PAX@std@@@2@QAU32@@Z 10023fe0 f i GiftBoxFunctional.obj
 0001:00022fe0       ?_Insert_node@?$_Tree_val@U?$_Tree_simple_types@U?$pair@QAVExtData@BuildingTypeExt@@H@std@@@std@@@std@@QAEPAU?$_Tree_node@U?$pair@QAVExtData@BuildingTypeExt@@H@std@@PAX@2@U?$_Tree_id@PAU?$_Tree_node@U?$pair@QAVExtData@BuildingTypeExt@@H@std@@PAX@std@@@2@QAU32@@Z 10023fe0 f i Body.obj
 0001:000231d0       ?_Throw_tree_length_error@std@@YGXXZ 100241d0 f i Hooks.Waypoints.obj
 0001:000231e0       ?clear@?$_Tree@V?$_Tmap_traits@HVCellStruct@@U?$less@H@std@@V?$allocator@U?$pair@$$CBHVCellStruct@@@std@@@3@$0A@@std@@@std@@QAEXXZ 100241e0 f i Hooks.Waypoints.obj
 0001:000231e0       ?clear@?$_Tree@V?$_Tmap_traits@PAVExtData@BuildingTypeExt@@HU?$less@PAVExtData@BuildingTypeExt@@@std@@V?$allocator@U?$pair@QAVExtData@BuildingTypeExt@@H@std@@@4@$0A@@std@@@std@@QAEXXZ 100241e0 f i Body.obj
 0001:00023230       _ScenStruct_ScenStruct_1   10024230 f   Hooks.Waypoints.obj
 0001:00023270       _ScenStruct_ScenStruct_2   10024270 f   Hooks.Waypoints.obj
 0001:00023340       _Scen_Waypoint_Call_1      10024340 f   Hooks.Waypoints.obj
 0001:00023370       _Scen_Waypoint_Call_2      10024370 f   Hooks.Waypoints.obj
 0001:00023390       _Scen_Waypoint_Call_3      10024390 f   Hooks.Waypoints.obj
 0001:000233c0       _Scen_Waypoint_Call_4      100243c0 f   Hooks.Waypoints.obj
 0001:00023400       _ScenarioClass_Clear_All_Waypoints 10024400 f   Hooks.Waypoints.obj
 0001:00023420       _ScenarioClass_Get_Waypoint 10024420 f   Hooks.Waypoints.obj
 0001:00023450       _ScenarioClass_Get_Waypoint_As_String 10024450 f   Hooks.Waypoints.obj
 0001:00023470       _ScenarioClass_Get_Waypoint_Cell 10024470 f   Hooks.Waypoints.obj
 0001:000234a0       _ScenarioClass_Get_Waypoint_Cell_0 100244a0 f   Hooks.Waypoints.obj
 0001:000234d0       _ScenarioClass_Get_Waypoint_Location 100244d0 f   Hooks.Waypoints.obj
 0001:00023510       _ScenarioClass_Is_Waypoint_Valid 10024510 f   Hooks.Waypoints.obj
 0001:000235c0       _ScenarioClass_ReadINI_CellParsed 100245c0 f   Hooks.Waypoints.obj
 0001:000235d0       _ScenarioClass_ReadWaypoints 100245d0 f   Hooks.Waypoints.obj
 0001:000237a0       _ScenarioClass_Set_Waypoint 100247a0 f   Hooks.Waypoints.obj
 0001:000237d0       _ScenarioClass_Write_Waypoints 100247d0 f   Hooks.Waypoints.obj
 0001:000238b0       _String_To_Waypoint        100248b0 f   Hooks.Waypoints.obj
 0001:00023920       _Waypoint_To_String        10024920 f   Hooks.Waypoints.obj
 0001:000239c0       ??$Process@HUExtendedVariable@@@PhobosStreamReader@@QAEAAV0@AAV?$map@HUExtendedVariable@@U?$less@H@std@@V?$allocator@U?$pair@$$CBHUExtendedVariable@@@std@@@3@@std@@_N@Z 100249c0 f i Body.obj
 0001:00023b10       ??$Process@HUExtendedVariable@@@PhobosStreamWriter@@QAEAAV0@AAV?$map@HUExtendedVariable@@U?$less@H@std@@V?$allocator@U?$pair@$$CBHUExtendedVariable@@@std@@@3@@std@@_N@Z 10024b10 f i Body.obj
 0001:00023bf0       ??$Serialize@VPhobosStreamReader@@@ExtData@ScenarioExt@@AAEXAAVPhobosStreamReader@@@Z 10024bf0 f i Body.obj
 0001:00023e30       ??$Serialize@VPhobosStreamWriter@@@ExtData@ScenarioExt@@AAEXAAVPhobosStreamWriter@@@Z 10024e30 f i Body.obj
 0001:00023fa0       ??$_Erase_tree@V?$allocator@U?$_Tree_node@U?$pair@$$CBHUExtendedVariable@@@std@@PAX@std@@@std@@@?$_Tree_val@U?$_Tree_simple_types@U?$pair@$$CBHUExtendedVariable@@@std@@@std@@@std@@QAEXAAV?$allocator@U?$_Tree_node@U?$pair@$$CBHUExtendedVariable@@@std@@PAX@std@@@1@PAU?$_Tree_node@U?$pair@$$CBHUExtendedVariable@@@std@@PAX@1@@Z 10024fa0 f i Body.obj
 0001:00023fe0       ??1?$_Tree@V?$_Tmap_traits@HVCellStruct@@U?$less@H@std@@V?$allocator@U?$pair@$$CBHVCellStruct@@@std@@@3@$0A@@std@@@std@@QAE@XZ 10024fe0 f i Body.obj
 0001:00023fe0       ??1?$_Tree@V?$_Tmap_traits@PAVExtData@BuildingTypeExt@@HU?$less@PAVExtData@BuildingTypeExt@@@std@@V?$allocator@U?$pair@QAVExtData@BuildingTypeExt@@H@std@@@4@$0A@@std@@@std@@QAE@XZ 10024fe0 f i Body.obj
 0001:00024020       ??R?$default_delete@VExtData@ScenarioExt@@@std@@QBEXPAVExtData@ScenarioExt@@@Z 10025020 f i Body.obj
 0001:00024080       ??_EExtData@ScenarioExt@@UAEPAXI@Z 10025080 f i Body.obj
 0001:00024080       ??_GExtData@ScenarioExt@@UAEPAXI@Z 10025080 f i Body.obj
 0001:000240e0       ?Allocate@ScenarioExt@@SGXPAVScenarioClass@@@Z 100250e0 f   Body.obj
 0001:000242c0       ?GetVariableStateByID@ExtData@ScenarioExt@@QAEX_NHPAD@Z 100252c0 f   Body.obj
 0001:00024310       ?LoadFromINIFile@ExtData@ScenarioExt@@UAEXPAVCCINIClass@@@Z 10025310 f   Body.obj
 0001:00024440       ?LoadFromStream@ExtData@ScenarioExt@@UAEXAAVPhobosStreamReader@@@Z 10025440 f   Body.obj
 0001:00024470       ?NotifyGlobalChanged@TagClass@@SIXH@Z 10025470 f i Body.obj
 0001:00024490       ?NotifyLocalChanged@TagClass@@SIXH@Z 10025490 f i Body.obj
 0001:000244b0       ?ReadVariables@ExtData@ScenarioExt@@QAEX_NPAVCCINIClass@@@Z 100254b0 f   Body.obj
 0001:00024660       ?SaveToStream@ExtData@ScenarioExt@@UAEXAAVPhobosStreamWriter@@@Z 10025660 f   Body.obj
 0001:00024690       ?SetVariableToByID@ExtData@ScenarioExt@@QAEX_NHD@Z 10025690 f   Body.obj
 0001:00024710       ?Size@ExtData@ScenarioExt@@UBEIXZ 10025710 f i Body.obj
 0001:00024720       _ScenarioClass_CTOR        10025720 f   Body.obj
 0001:00024790       _ScenarioClass_DTOR        10025790 f   Body.obj
 0001:000247c0       _ScenarioClass_LoadFromINI 100257c0 f   Body.obj
 0001:00024850       _ScenarioClass_Load_Suffix 10025850 f   Body.obj
 0001:000248f0       _ScenarioClass_SaveLoad_Prefix 100258f0 f   Body.obj
 0001:00024910       _ScenarioClass_Save_Suffix 10025910 f   Body.obj
 0001:000249a0       ??$_Emplace_reallocate@UScriptActionNode@@@?$vector@UScriptActionNode@@V?$allocator@UScriptActionNode@@@std@@@std@@AAEPAUScriptActionNode@@QAU2@$$QAU2@@Z 100259a0 f i Body.obj
 0001:00024ad0       ??1ExtContainer@ScriptTypeExt@@UAE@XZ 10025ad0 f   Body.obj
 0001:00024b30       ??_EExtContainer@ScriptTypeExt@@UAEPAXI@Z 10025b30 f i Body.obj
 0001:00024b30       ??_GExtContainer@ScriptTypeExt@@UAEPAXI@Z 10025b30 f i Body.obj
 0001:00024b60       ??_EExtData@ScriptTypeExt@@UAEPAXI@Z 10025b60 f i Body.obj
 0001:00024b60       ??_GExtData@ScriptTypeExt@@UAEPAXI@Z 10025b60 f i Body.obj
 0001:00024bd0       ?InitializeConstants@ExtData@ScriptTypeExt@@UAEXXZ 10025bd0 f i Body.obj
 0001:00024bf0       ?Load@?$Container@VScriptTypeExt@@@@MAE_NPAVScriptTypeClass@@PAUIStream@@@Z 10025bf0 f i Body.obj
 0001:00024c10       ?LoadFromINIFile@ExtData@ScriptTypeExt@@UAEXPAVCCINIClass@@@Z 10025c10 f   Body.obj
 0001:00024c30       ?LoadFromStream@ExtData@ScriptTypeExt@@UAEXAAVPhobosStreamReader@@@Z 10025c30 f   Body.obj
 0001:00024d20       ?LoadKey@?$Container@VScriptTypeExt@@@@IAEPAVExtData@ScriptTypeExt@@PAVScriptTypeClass@@PAUIStream@@@Z 10025d20 f i Body.obj
 0001:00024f90       ?Save@?$Container@VScriptTypeExt@@@@MAE_NPAVScriptTypeClass@@PAUIStream@@@Z 10025f90 f i Body.obj
 0001:000250d0       ?SaveToStream@ExtData@ScriptTypeExt@@UAEXAAVPhobosStreamWriter@@@Z 100260d0 f   Body.obj
 0001:00025130       ?Size@ExtData@ScriptTypeExt@@UBEIXZ 10026130 f i Body.obj
 0001:00025140       ?_Reallocate_exactly@?$vector@UScriptActionNode@@V?$allocator@UScriptActionNode@@@std@@@std@@AAEXI@Z 10026140 f i Body.obj
 0001:00025220       ?reserve@?$vector@UScriptActionNode@@V?$allocator@UScriptActionNode@@@std@@@std@@QAEXI@Z 10026220 f i Body.obj
 0001:00025250       _ScriptTypeClass_CTOR      10026250 f   Body.obj
 0001:00025380       _ScriptTypeClass_DTOR      10026380 f   Body.obj
 0001:00025460       _ScriptTypeClass_Load_Suffix 10026460 f   Body.obj
 0001:000254f0       _ScriptTypeClass_SaveLoad_Prefix 100264f0 f   Body.obj
 0001:00025530       _ScriptTypeClass_Save_Suffix 10026530 f   Body.obj
 0001:000255b0       ?Size@ExtData@ScriptExt@@UBEIXZ 100265b0 f i Body.obj
 0001:000255b0       ?Size@ExtData@SidebarExt@@UBEIXZ 100265b0 f i Body.obj
 0001:000255b0       ?Size@ExtData@SuperExt@@UBEIXZ 100265b0 f i Body.obj
 0001:000255c0       _SidebarClass_CTOR         100265c0 f   Body.obj
 0001:00025610       _SidebarClass_DTOR         10026610 f   Body.obj
 0001:00025640       _SidebarClass_Load_Suffix  10026640 f   Body.obj
 0001:000256d0       _SidebarClass_SaveLoad_Prefix 100266d0 f   Body.obj
 0001:000256f0       _SidebarClass_Save_Suffix  100266f0 f   Body.obj
 0001:00025760       ??0SHPReference@@QAE@PBD@Z 10026760 f i Hooks.obj
 0001:00025790       ??0SHPStruct@@QAE@XZ       10026790 f i Hooks.obj
 0001:000257a0       ??1SHPStruct@@QAE@XZ       100267a0 f i Hooks.obj
 0001:000257c0       ?GetPrimaryFactory@HouseClass@@QBEPAVFactoryClass@@W4AbstractType@@_NW4BuildCat@@@Z 100267c0 f i Hooks.obj
 0001:000257e0       _SidebarClass_DrawIt_ProducingProgress 100267e0 f   Hooks.obj
 0001:000259a0       _SidebarClass_InitForHouse_AdditionalFiles 100269a0 f   Hooks.obj
 0001:00025a00       _SidebarClass_UnloadShapes_AdditionalFiles 10026a00 f   Hooks.obj
 0001:00025a40       ??1ExtContainer@SmudgeTypeExt@@UAE@XZ 10026a40 f   Body.obj
 0001:00025aa0       ??_EExtContainer@SmudgeTypeExt@@UAEPAXI@Z 10026aa0 f i Body.obj
 0001:00025aa0       ??_GExtContainer@SmudgeTypeExt@@UAEPAXI@Z 10026aa0 f i Body.obj
 0001:00025ad0       ??_EExtData@SmudgeTypeExt@@UAEPAXI@Z 10026ad0 f i Body.obj
 0001:00025ad0       ??_EPaintballType@@UAEPAXI@Z 10026ad0 f i Body.obj
 0001:00025ad0       ??_GExtData@SmudgeTypeExt@@UAEPAXI@Z 10026ad0 f i Body.obj
 0001:00025ad0       ??_GPaintballType@@UAEPAXI@Z 10026ad0 f i Body.obj
 0001:00025af0       ?Load@?$Container@VSmudgeTypeExt@@@@MAE_NPAVSmudgeTypeClass@@PAUIStream@@@Z 10026af0 f i Body.obj
 0001:00025b10       ?LoadFromINIFile@ExtData@SmudgeTypeExt@@UAEXPAVCCINIClass@@@Z 10026b10 f   Body.obj
 0001:00025b50       ?LoadFromStream@ExtData@SmudgeTypeExt@@UAEXAAVPhobosStreamReader@@@Z 10026b50 f   Body.obj
 0001:00025ba0       ?LoadKey@?$Container@VSmudgeTypeExt@@@@IAEPAVExtData@SmudgeTypeExt@@PAVSmudgeTypeClass@@PAUIStream@@@Z 10026ba0 f i Body.obj
 0001:00025d30       ?Save@?$Container@VSmudgeTypeExt@@@@MAE_NPAVSmudgeTypeClass@@PAUIStream@@@Z 10026d30 f i Body.obj
 0001:00025e40       ?SaveToStream@ExtData@SmudgeTypeExt@@UAEXAAVPhobosStreamWriter@@@Z 10026e40 f   Body.obj
 0001:00025e70       ?Size@ExtData@SmudgeTypeExt@@UBEIXZ 10026e70 f i Body.obj
 0001:00025e80       _SmudgeTypeClass_CTOR      10026e80 f   Body.obj
 0001:00025f80       _SmudgeTypeClass_LoadFromINI 10026f80 f   Body.obj
 0001:00026020       _SmudgeTypeClass_Load_Suffix 10027020 f   Body.obj
 0001:000260c0       _SmudgeTypeClass_SDDTOR    100270c0 f   Body.obj
 0001:00026150       _SmudgeTypeClass_SaveLoad_Prefix 10027150 f   Body.obj
 0001:000261a0       _SmudgeTypeClass_Save_Suffix 100271a0 f   Body.obj
 0001:00026240       _BuildingClass_Mark_ClearSmudge_Clearable 10027240 f   Hooks.obj
 0001:00026270       _BuildingClass_Mark_ClearSmudge_Clearable_B 10027270 f   Hooks.obj
 0001:000262a0       _MapClass_ClearSmudge_Clearable 100272a0 f   Hooks.obj
 0001:000262d0       ??1ExtContainer@SuperExt@@UAE@XZ 100272d0 f   Body.obj
 0001:00026330       ??_EExtContainer@SuperExt@@UAEPAXI@Z 10027330 f i Body.obj
 0001:00026330       ??_GExtContainer@SuperExt@@UAEPAXI@Z 10027330 f i Body.obj
 0001:00026360       ?Load@?$Container@VSuperExt@@@@MAE_NPAVSuperClass@@PAUIStream@@@Z 10027360 f i Body.obj
 0001:000264f0       ?Save@?$Container@VSuperExt@@@@MAE_NPAVSuperClass@@PAUIStream@@@Z 100274f0 f i Body.obj
 0001:000265f0       _SuperClass_CTOR           100275f0 f   Body.obj
 0001:000266e0       _SuperClass_Load_Suffix    100276e0 f   Body.obj
 0001:00026770       _SuperClass_SDDTOR         10027770 f   Body.obj
 0001:00026800       _SuperClass_SaveLoad_Prefix 10027800 f   Body.obj
 0001:00026840       _SuperClass_Save_Suffix    10027840 f   Body.obj
 0001:000268c0       ?AddItem@?$DynamicVectorClass@PAVBuildingClass@@@@QAE_NPAVBuildingClass@@@Z 100278c0 f i FireSuperWeapon.obj
 0001:00026910       ?ApplyLimboDelivery@ExtData@SWTypeExt@@AAEXPAVHouseClass@@@Z 10027910 f   FireSuperWeapon.obj
 0001:00026b20       ?ApplyLimboKill@ExtData@SWTypeExt@@AAEXPAVHouseClass@@@Z 10027b20 f   FireSuperWeapon.obj
 0001:00026de0       ?CalculateCostMultipliers@HouseClass@@QAEHXZ 10027de0 f i FireSuperWeapon.obj
 0001:00026e00       ?FireSuperWeapon@ExtData@SWTypeExt@@QAEXPAVSuperClass@@PAVHouseClass@@ABUCoordStruct@@@Z 10027e00 f   FireSuperWeapon.obj
 0001:00026e40       ?LimboDeliver@@YGXPAVBuildingTypeClass@@PAVHouseClass@@H@Z 10027e40 f   FireSuperWeapon.obj
 0001:00027010       ?RegisterLoss@HouseClass@@QAEXPAVTechnoClass@@_N@Z 10028010 f i FireSuperWeapon.obj
 0001:00027030       ?UpdatePower@HouseClass@@QAEXXZ 10028030 f i FireSuperWeapon.obj
 0001:00027050       ??$_Reallocate_grow_by@V<lambda_1>@?1??append@?$basic_string@_WU?$char_traits@_W@std@@V?$allocator@_W@2@@std@@QAEAAV34@QB_WI@Z@PB_WI@?$basic_string@_WU?$char_traits@_W@std@@V?$allocator@_W@2@@std@@AAEAAV01@IV<lambda_1>@?1??append@01@QAEAAV01@QB_WI@Z@PB_WI@Z 10028050 f i Hooks.obj
 0001:00027180       ??$swprintf_s@$0BAA@@@YAHAAY0BAA@_WPB_WZZ 10028180 f i Hooks.obj
 0001:000271b0       ?AudioGetTime@Game@@SI?AT_LARGE_INTEGER@@XZ 100281b0 f i Hooks.obj
 0001:000271c0       ?BitFontPtr@BitFont@@SIPAV1@W4TextPrintType@@@Z 100281c0 f i Hooks.obj
 0001:000271e0       ?DrawTimer@Timer@@YIXHPAVColorScheme@@HPB_WPAT_LARGE_INTEGER@@PA_N@Z 100281e0 f   Hooks.obj
 0001:00027510       ?PrintTimer@TacticalClass@@SIXHPAVColorScheme@@HPB_WPAT_LARGE_INTEGER@@PA_N@Z 10028510 f i Hooks.obj
 0001:00027530       _SuperClass_Launch_finale  10028530 f   Hooks.obj
 0001:00027590       _TacticalClass_Render_ClearSW 10028590 f   Hooks.obj
 0001:000275b0       _TacticalClass_Render_FetchSW 100285b0 f   Hooks.obj
 0001:000275f0       ??$ReadPhobosStream@V?$ValueableVector@H@@@Savegame@@YG_NAAVPhobosStreamReader@@AAV?$ValueableVector@H@@_N@Z 100285f0 f i Body.obj
 0001:000276b0       ??$Serialize@VPhobosStreamReader@@@ExtData@SWTypeExt@@AAEXAAVPhobosStreamReader@@@Z 100286b0 f i Body.obj
 0001:00027a20       ??$Serialize@VPhobosStreamWriter@@@ExtData@SWTypeExt@@AAEXAAVPhobosStreamWriter@@@Z 10028a20 f i Body.obj
 0001:00027d90       ??$WritePhobosStream@V?$ValueableVector@H@@@Savegame@@YG_NAAVPhobosStreamWriter@@ABV?$ValueableVector@H@@@Z 10028d90 f i Body.obj
 0001:00027de0       ??$_Destroy_range@V?$allocator@V?$ValueableVector@H@@@std@@@std@@YGXPAV?$ValueableVector@H@@QAV1@AAV?$allocator@V?$ValueableVector@H@@@0@@Z 10028de0 f i Body.obj
 0001:00027de0       ??$_Destroy_range@V?$allocator@V?$vector@PAVWeaponTypeClass@@V?$allocator@PAVWeaponTypeClass@@@std@@@std@@@std@@@std@@YGXPAV?$vector@PAVWeaponTypeClass@@V?$allocator@PAVWeaponTypeClass@@@std@@@0@QAV10@AAV?$allocator@V?$vector@PAVWeaponTypeClass@@V?$allocator@PAVWeaponTypeClass@@@std@@@std@@@0@@Z 10028de0 f i Body.obj
 0001:00027e50       ??$_Emplace_reallocate@ABM@?$vector@MV?$allocator@M@std@@@std@@AAEPAMQAMABM@Z 10028e50 f i Body.obj
 0001:00027e50       ??$_Emplace_reallocate@M@?$vector@MV?$allocator@M@std@@@std@@AAEPAMQAM$$QAM@Z 10028e50 f i Body.obj
 0001:00027f80       ??$_Emplace_reallocate@ABV?$ValueableVector@H@@@?$vector@V?$ValueableVector@H@@V?$allocator@V?$ValueableVector@H@@@std@@@std@@AAEPAV?$ValueableVector@H@@QAV2@ABV2@@Z 10028f80 f i Body.obj
 0001:000280e0       ??$_Emplace_reallocate@V?$ValueableVector@H@@@?$vector@V?$ValueableVector@H@@V?$allocator@V?$ValueableVector@H@@@std@@@std@@AAEPAV?$ValueableVector@H@@QAV2@$$QAV2@@Z 100290e0 f i Body.obj
 0001:000280e0       ??$_Emplace_reallocate@V?$vector@PAVWeaponTypeClass@@V?$allocator@PAVWeaponTypeClass@@@std@@@std@@@?$vector@V?$vector@PAVWeaponTypeClass@@V?$allocator@PAVWeaponTypeClass@@@std@@@std@@V?$allocator@V?$vector@PAVWeaponTypeClass@@V?$allocator@PAVWeaponTypeClass@@@std@@@std@@@2@@std@@AAEPAV?$vector@PAVWeaponTypeClass@@V?$allocator@PAVWeaponTypeClass@@@std@@@1@QAV21@$$QAV21@@Z 100290e0 f i Body.obj
 0001:00028250       ??$_Uninitialized_move@PAV?$ValueableVector@H@@V?$allocator@V?$ValueableVector@H@@@std@@@std@@YGPAV?$ValueableVector@H@@QAV1@0PAV1@AAV?$allocator@V?$ValueableVector@H@@@0@@Z 10029250 f i Body.obj
 0001:00028250       ??$_Uninitialized_move@PAV?$vector@PAVWeaponTypeClass@@V?$allocator@PAVWeaponTypeClass@@@std@@@std@@V?$allocator@V?$vector@PAVWeaponTypeClass@@V?$allocator@PAVWeaponTypeClass@@@std@@@std@@@2@@std@@YGPAV?$vector@PAVWeaponTypeClass@@V?$allocator@PAVWeaponTypeClass@@@std@@@0@QAV10@0PAV10@AAV?$allocator@V?$vector@PAVWeaponTypeClass@@V?$allocator@PAVWeaponTypeClass@@@std@@@std@@@0@@Z 10029250 f i Body.obj
 0001:000282c0       ??$construct@V?$ValueableVector@H@@V1@@?$_Default_allocator_traits@V?$allocator@V?$ValueableVector@H@@@std@@@std@@SGXAAV?$allocator@V?$ValueableVector@H@@@1@QAV?$ValueableVector@H@@$$QAV3@@Z 100292c0 f i Body.obj
 0001:000282c0       ??$construct@V?$vector@PAVWeaponTypeClass@@V?$allocator@PAVWeaponTypeClass@@@std@@@std@@V12@@?$_Default_allocator_traits@V?$allocator@V?$vector@PAVWeaponTypeClass@@V?$allocator@PAVWeaponTypeClass@@@std@@@std@@@std@@@std@@SGXAAV?$allocator@V?$vector@PAVWeaponTypeClass@@V?$allocator@PAVWeaponTypeClass@@@std@@@std@@@1@QAV?$vector@PAVWeaponTypeClass@@V?$allocator@PAVWeaponTypeClass@@@std@@@1@$$QAV31@@Z 100292c0 f i Body.obj
 0001:00028300       ??$parse_values@H@detail@@YGXAAV?$vector@HV?$allocator@H@std@@@std@@AAVINI_EX@@PBD2_N@Z 10029300 f i Body.obj
 0001:00028420       ??0?$ValueableVector@H@@QAE@ABV0@@Z 10029420 f i Body.obj
 0001:00028420       ??0?$vector@PAVWeaponTypeClass@@V?$allocator@PAVWeaponTypeClass@@@std@@@std@@QAE@ABV01@@Z 10029420 f i ExtraFireData.obj
 0001:000284a0       ??0ExtData@SWTypeExt@@QAE@PAVSuperWeaponTypeClass@@@Z 100294a0 f i Body.obj
 0001:00028570       ??1?$vector@V?$ValueableVector@H@@V?$allocator@V?$ValueableVector@H@@@std@@@std@@QAE@XZ 10029570 f i Body.obj
 0001:00028570       ??1?$vector@V?$vector@PAVWeaponTypeClass@@V?$allocator@PAVWeaponTypeClass@@@std@@@std@@V?$allocator@V?$vector@PAVWeaponTypeClass@@V?$allocator@PAVWeaponTypeClass@@@std@@@std@@@2@@std@@QAE@XZ 10029570 f i Body.obj
 0001:000285f0       ??1ExtContainer@SWTypeExt@@UAE@XZ 100295f0 f   Body.obj
 0001:00028650       ??1ExtData@SWTypeExt@@UAE@XZ 10029650 f i Body.obj
 0001:00028820       ??_EExtContainer@SWTypeExt@@UAEPAXI@Z 10029820 f i Body.obj
 0001:00028820       ??_GExtContainer@SWTypeExt@@UAEPAXI@Z 10029820 f i Body.obj
 0001:00028850       ??_EExtData@SWTypeExt@@UAEPAXI@Z 10029850 f i Body.obj
 0001:00028850       ??_GExtData@SWTypeExt@@UAEPAXI@Z 10029850 f i Body.obj
 0001:00028880       ?HasInhibitor@SWTypeExt@@SG_NPAVExtData@1@PAVHouseClass@@ABVCellStruct@@@Z 10029880 f   Body.obj
 0001:000288f0       ?InvalidatePointer@ExtContainer@SWTypeExt@@UAEXPAX_N@Z 100298f0 f   Body.obj
 0001:00028920       ?IsInhibitorEligible@SWTypeExt@@SG_NPAVExtData@1@PAVHouseClass@@ABVCellStruct@@PAVTechnoClass@@@Z 10029920 f   Body.obj
 0001:00028af0       ?Load@?$Container@VSWTypeExt@@@@MAE_NPAVSuperWeaponTypeClass@@PAUIStream@@@Z 10029af0 f i Body.obj
 0001:00028b10       ?Load@?$ValueableVector@V?$ValueableVector@H@@@@QAE_NAAVPhobosStreamReader@@_N@Z 10029b10 f i Body.obj
 0001:00028c80       ?LoadFromINIFile@ExtData@SWTypeExt@@UAEXPAVCCINIClass@@@Z 10029c80 f   Body.obj
 0001:00028fd0       ?LoadFromStream@ExtData@SWTypeExt@@UAEXAAVPhobosStreamReader@@@Z 10029fd0 f   Body.obj
 0001:00029000       ?LoadGlobals@SWTypeExt@@SG_NAAVPhobosStreamReader@@@Z 1002a000 f   Body.obj
 0001:00029040       ?LoadKey@?$Container@VSWTypeExt@@@@IAEPAVExtData@SWTypeExt@@PAVSuperWeaponTypeClass@@PAUIStream@@@Z 1002a040 f i Body.obj
 0001:000291b0       ?Read@?$Valueable@VCSFText@@@@QAEXAAVINI_EX@@PBD1_N@Z 1002a1b0 f i Body.obj
 0001:00029220       ?Read@?$ValueableVector@H@@QAEXAAVINI_EX@@PBD1_N@Z 1002a220 f i Body.obj
 0001:00029360       ?Read@?$ValueableVector@M@@QAEXAAVINI_EX@@PBD1_N@Z 1002a360 f i Body.obj
 0001:000294b0       ?Save@?$Container@VSWTypeExt@@@@MAE_NPAVSuperWeaponTypeClass@@PAUIStream@@@Z 1002a4b0 f i Body.obj
 0001:000295c0       ?SaveGlobals@SWTypeExt@@SG_NAAVPhobosStreamWriter@@@Z 1002a5c0 f   Body.obj
 0001:000295e0       ?SaveToStream@ExtData@SWTypeExt@@UAEXAAVPhobosStreamWriter@@@Z 1002a5e0 f   Body.obj
 0001:00029610       ?Size@ExtData@SWTypeExt@@UBEIXZ 1002a610 f i Body.obj
 0001:00029620       ?_Change_array@?$vector@V?$ValueableVector@H@@V?$allocator@V?$ValueableVector@H@@@std@@@std@@AAEXQAV?$ValueableVector@H@@II@Z 1002a620 f i Body.obj
 0001:00029620       ?_Change_array@?$vector@V?$vector@PAVWeaponTypeClass@@V?$allocator@PAVWeaponTypeClass@@@std@@@std@@V?$allocator@V?$vector@PAVWeaponTypeClass@@V?$allocator@PAVWeaponTypeClass@@@std@@@std@@@2@@std@@AAEXQAV?$vector@PAVWeaponTypeClass@@V?$allocator@PAVWeaponTypeClass@@@std@@@2@II@Z 1002a620 f i Body.obj
 0001:000296a0       ?_Reallocate_exactly@?$vector@V?$ValueableVector@H@@V?$allocator@V?$ValueableVector@H@@@std@@@std@@AAEXI@Z 1002a6a0 f i Body.obj
 0001:000296a0       ?_Reallocate_exactly@?$vector@V?$vector@PAVWeaponTypeClass@@V?$allocator@PAVWeaponTypeClass@@@std@@@std@@V?$allocator@V?$vector@PAVWeaponTypeClass@@V?$allocator@PAVWeaponTypeClass@@@std@@@std@@@2@@std@@AAEXI@Z 1002a6a0 f i Body.obj
 0001:00029740       ?allocate@?$allocator@UCoordStruct@@@std@@QAEPAUCoordStruct@@I@Z 1002a740 f i Body.obj
 0001:00029740       ?allocate@?$allocator@V?$ValueableVector@H@@@std@@QAEPAV?$ValueableVector@H@@I@Z 1002a740 f i Body.obj
 0001:00029740       ?allocate@?$allocator@V?$vector@PAVWeaponTypeClass@@V?$allocator@PAVWeaponTypeClass@@@std@@@std@@@std@@QAEPAV?$vector@PAVWeaponTypeClass@@V?$allocator@PAVWeaponTypeClass@@@std@@@2@I@Z 1002a740 f i Body.obj
 0001:000297a0       ?deallocate@?$allocator@UCoordStruct@@@std@@QAEXQAUCoordStruct@@I@Z 1002a7a0 f i Body.obj
 0001:000297a0       ?deallocate@?$allocator@V?$ValueableVector@H@@@std@@QAEXQAV?$ValueableVector@H@@I@Z 1002a7a0 f i Body.obj
 0001:000297a0       ?deallocate@?$allocator@V?$vector@PAVWeaponTypeClass@@V?$allocator@PAVWeaponTypeClass@@@std@@@std@@@std@@QAEXQAV?$vector@PAVWeaponTypeClass@@V?$allocator@PAVWeaponTypeClass@@@std@@@2@I@Z 1002a7a0 f i Body.obj
 0001:000297e0       _SuperWeaponTypeClass_CTOR 1002a7e0 f   Body.obj
 0001:000298d0       _SuperWeaponTypeClass_LoadFromINI 1002a8d0 f   Body.obj
 0001:00029970       _SuperWeaponTypeClass_Load_Suffix 1002a970 f   Body.obj
 0001:00029a00       _SuperWeaponTypeClass_SDDTOR 1002aa00 f   Body.obj
 0001:00029aa0       _SuperWeaponTypeClass_SaveLoad_Prefix 1002aaa0 f   Body.obj
 0001:00029ae0       _SuperWeaponTypeClass_Save_Suffix 1002aae0 f   Body.obj
 0001:00029b60       ??$Serialize@VPhobosStreamWriter@@@ExtData@TActionExt@@AAEXAAVPhobosStreamWriter@@@Z 1002ab60 f i Body.obj
 0001:00029ca0       ??0ExtData@TActionExt@@QAE@QAVTActionClass@@@Z 1002aca0 f i Body.obj
 0001:00029d50       ??0SuperClass@@QAE@PAVSuperWeaponTypeClass@@PAVHouseClass@@@Z 1002ad50 f i Body.obj
 0001:00029da0       ??0TimerStruct@@QAE@XZ     1002ada0 f i Body.obj
 0001:00029db0       ??1ExtContainer@TActionExt@@UAE@XZ 1002adb0 f   Body.obj
 0001:00029e10       ??1ExtData@TActionExt@@UAE@XZ 1002ae10 f i Body.obj
 0001:00029fd0       ??_EExtContainer@TActionExt@@UAEPAXI@Z 1002afd0 f i Body.obj
 0001:00029fd0       ??_GExtContainer@TActionExt@@UAEPAXI@Z 1002afd0 f i Body.obj
 0001:0002a000       ??_EExtData@TActionExt@@UAEPAXI@Z 1002b000 f i Body.obj
 0001:0002a000       ??_GExtData@TActionExt@@UAEPAXI@Z 1002b000 f i Body.obj
 0001:0002a030       ?AdjustLighting@TActionExt@@SG_NPAVTActionClass@@PAVHouseClass@@PAVObjectClass@@PAVTriggerClass@@ABVCellStruct@@@Z 1002b030 f   Body.obj
 0001:0002a200       ?Deactivate@LightSourceClass@@QAEXK@Z 1002b200 f i Body.obj
 0001:0002a220       ?DrawLaserBetweenWaypoints@TActionExt@@SG_NPAVTActionClass@@PAVHouseClass@@PAVObjectClass@@PAVTriggerClass@@ABVCellStruct@@@Z 1002b220 f   Body.obj
 0001:0002a3b0       ?Execute@TActionExt@@SG_NPAVTActionClass@@PAVHouseClass@@PAVObjectClass@@PAVTriggerClass@@ABVCellStruct@@AA_N@Z 1002b3b0 f   Body.obj
 0001:0002a900       ?GetWaypointCoords@ScenarioClass@@QAEPAVCellStruct@@PAV2@H@Z 1002b900 f i Body.obj
 0001:0002a920       ?IsWithinUsableArea@MapClass@@QBE_NABVCellStruct@@_N@Z 1002b920 f i Body.obj
 0001:0002a940       ?Launch@SuperClass@@QAEXABVCellStruct@@_N@Z 1002b940 f i Body.obj
 0001:0002a960       ?Load@?$Container@VTActionExt@@@@MAE_NPAVTActionClass@@PAUIStream@@@Z 1002b960 f i Body.obj
 0001:0002a980       ?LoadFromStream@ExtData@TActionExt@@UAEXAAVPhobosStreamReader@@@Z 1002b980 f   Body.obj
 0001:0002aa20       ?LoadKey@?$Container@VTActionExt@@@@IAEPAVExtData@TActionExt@@PAVTActionClass@@PAUIStream@@@Z 1002ba20 f i Body.obj
 0001:0002ac20       ?PlayAudioAtRandomWP@TActionExt@@SG_NPAVTActionClass@@PAVHouseClass@@PAVObjectClass@@PAVTriggerClass@@ABVCellStruct@@@Z 1002bc20 f   Body.obj
 0001:0002af10       ?RecreateLightSources@TActionExt@@SGXXZ 1002bf10 f   Body.obj
 0001:0002b160       ?RedrawSidebar@MapClass@@QAEXH@Z 1002c160 f i Body.obj
 0001:0002b180       ?RunSuperWeaponAt@TActionExt@@SG_NPAVTActionClass@@HH@Z 1002c180 f   Body.obj
 0001:0002b540       ?Save@?$Container@VTActionExt@@@@MAE_NPAVTActionClass@@PAUIStream@@@Z 1002c540 f i Body.obj
 0001:0002b650       ?SaveGame@TActionExt@@SG_NPAVTActionClass@@PAVHouseClass@@PAVObjectClass@@PAVTriggerClass@@ABVCellStruct@@@Z 1002c650 f   Body.obj
 0001:0002b7f0       ?SaveToStream@ExtData@TActionExt@@UAEXAAVPhobosStreamWriter@@@Z 1002c7f0 f   Body.obj
 0001:0002b820       ?SetReadiness@SuperClass@@QAEX_N@Z 1002c820 f i Body.obj
 0001:0002b840       ?at@?$vector@HV?$allocator@H@std@@@std@@QAEAAHI@Z 1002c840 f i Body.obj
 0001:0002b860       ?find@?$_Tree@V?$_Tmap_traits@HUExtendedVariable@@U?$less@H@std@@V?$allocator@U?$pair@$$CBHUExtendedVariable@@@std@@@3@$0A@@std@@@std@@QAE?AV?$_Tree_iterator@V?$_Tree_val@U?$_Tree_simple_types@U?$pair@$$CBHUExtendedVariable@@@std@@@std@@@std@@@2@ABH@Z 1002c860 f i Body.obj
 0001:0002b8b0       ?swprintf@CRT@@SAHPA_WPB_WZZ 1002c8b0 f i Body.obj
 0001:0002b8c0       _TActionClass_CTOR         1002c8c0 f   Body.obj
 0001:0002b9b0       _TActionClass_Load_Suffix  1002c9b0 f   Body.obj
 0001:0002ba40       _TActionClass_SDDTOR       1002ca40 f   Body.obj
 0001:0002bae0       _TActionClass_SaveLoad_Prefix 1002cae0 f   Body.obj
 0001:0002bb20       _TActionClass_Save_Suffix  1002cb20 f   Body.obj
 0001:0002bba0       ?BeginMode@BuildingClass@@QAEXW4BStateType@@@Z 1002cba0 f i Hooks.obj
 0001:0002bbc0       ?FindByCountryIndex@HouseClass@@SIPAV1@H@Z 1002cbc0 f i Hooks.obj
 0001:0002bbe0       ?FindByIndex@HouseClass@@SIPAV1@H@Z 1002cbe0 f i Hooks.obj
 0001:0002bc00       ?Index_IsMP@HouseClass@@SI_NH@Z 1002cc00 f i Hooks.obj
 0001:0002bc20       _TActionClass_CreateBuildingAt 1002cc20 f   Hooks.obj
 0001:0002bcf0       _TActionClass_Execute      1002ccf0 f   Hooks.obj
 0001:0002bd30       _TActionClass_Retint_LightSourceFix 1002cd30 f   Hooks.obj
 0001:0002bda0       _TActionClass_Text_Trigger 1002cda0 f   Hooks.obj
 0001:0002be00       ??1ExtContainer@TeamTypeExt@@UAE@XZ 1002ce00 f   Body.obj
 0001:0002be60       ??_EExtContainer@TeamTypeExt@@UAEPAXI@Z 1002ce60 f i Body.obj
 0001:0002be60       ??_GExtContainer@TeamTypeExt@@UAEPAXI@Z 1002ce60 f i Body.obj
 0001:0002be90       ??_EExtData@TeamTypeExt@@UAEPAXI@Z 1002ce90 f i Body.obj
 0001:0002be90       ??_GExtData@TeamTypeExt@@UAEPAXI@Z 1002ce90 f i Body.obj
 0001:0002beb0       ?FindOrAllocate@?$Container@VTeamTypeExt@@@@QAEPAVExtData@TeamTypeExt@@PAVTeamTypeClass@@@Z 1002ceb0 f i Body.obj
 0001:0002c010       ?Load@?$Container@VTeamTypeExt@@@@MAE_NPAVTeamTypeClass@@PAUIStream@@@Z 1002d010 f i Body.obj
 0001:0002c120       ?LoadFromINIFile@ExtData@TeamTypeExt@@UAEXPAVCCINIClass@@@Z 1002d120 f   Body.obj
 0001:0002c190       ?LoadFromStream@ExtData@TeamTypeExt@@UAEXAAVPhobosStreamReader@@@Z 1002d190 f   Body.obj
 0001:0002c290       ?Save@?$Container@VTeamTypeExt@@@@MAE_NPAVTeamTypeClass@@PAUIStream@@@Z 1002d290 f i Body.obj
 0001:0002c3f0       ?SaveToStream@ExtData@TeamTypeExt@@UAEXAAVPhobosStreamWriter@@@Z 1002d3f0 f   Body.obj
 0001:0002c470       ?Size@ExtData@TeamTypeExt@@UBEIXZ 1002d470 f i Body.obj
 0001:0002c480       _TeamTypeClass_CTOR        1002d480 f   Body.obj
 0001:0002c4a0       _TeamTypeClass_DTOR        1002d4a0 f   Body.obj
 0001:0002c520       _TeamTypeClass_LoadFromINI 1002d520 f   Body.obj
 0001:0002c5c0       _TeamTypeClass_Load_Suffix 1002d5c0 f   Body.obj
 0001:0002c650       _TeamTypeClass_SaveLoad_Prefix 1002d650 f   Body.obj
 0001:0002c690       _TeamTypeClass_Save_Suffix 1002d690 f   Body.obj
 0001:0002c710       _TeamTypeClass_WriteToINI  1002d710 f   Body.obj
 0001:0002c780       ?AssignMissionTarget@TeamClass@@QBEXPAVAbstractClass@@@Z 1002d780 f i Hooks.obj
 0001:0002c7a0       ?EnteredOpenTopped@TechnoClass@@QAEXPAV1@@Z 1002d7a0 f i Hooks.obj
 0001:0002c800       _CaptureManagerClass_TeamChooseAction_Random 1002d800 f   Hooks.obj
 0001:0002c840       _TeamClass_ExecuteTransportUnload_Transporter 1002d840 f   Hooks.obj
 0001:0002c870       _TeamClass_ExecuteTransporterLoad_PassengerFix 1002d870 f   Hooks.obj
 0001:0002c8b0       _TeamClass_MoveToFocus_BalloonHover 1002d8b0 f   Hooks.obj
 0001:0002c900       _TeamClass_MoveToFocus_IsInStray 1002d900 f   Hooks.obj
 0001:0002c9f0       _TeamClass_MoveToFocus_SetDestination 1002d9f0 f   Hooks.obj
 0001:0002ca40       _TeamMission_GatherAt_BaseTeam 1002da40 f   Hooks.obj
 0001:0002ca90       _TeamMission_GatherAt_Enemy 1002da90 f   Hooks.obj
 0001:0002cae0       _TeamTypeClass_GenerateTeamMemembers_OpenTopped 1002dae0 f   Hooks.obj
 0001:0002cb30       ??$Serialize@VPhobosStreamReader@@@ExtData@TeamExt@@AAEXAAVPhobosStreamReader@@@Z 1002db30 f i Body.obj
 0001:0002ccd0       ??0ExtData@TeamExt@@QAE@PAVTeamClass@@@Z 1002dcd0 f i Body.obj
 0001:0002cd70       ??1ExtContainer@TeamExt@@UAE@XZ 1002dd70 f   Body.obj
 0001:0002cdd0       ??_EExtContainer@TeamExt@@UAEPAXI@Z 1002ddd0 f i Body.obj
 0001:0002cdd0       ??_GExtContainer@TeamExt@@UAEPAXI@Z 1002ddd0 f i Body.obj
 0001:0002ce00       ??_EExtData@TeamExt@@UAEPAXI@Z 1002de00 f i Body.obj
 0001:0002ce00       ??_GExtData@TeamExt@@UAEPAXI@Z 1002de00 f i Body.obj
 0001:0002ce20       ?InvalidateExtDataIgnorable@ExtContainer@TeamExt@@UBE_NQAX@Z 1002de20 f i Body.obj
 0001:0002ce50       ?InvalidatePointer@ExtData@TeamExt@@UAEXPAX_N@Z 1002de50 f   Body.obj
 0001:0002ce70       ?Load@?$Container@VTeamExt@@@@MAE_NPAVTeamClass@@PAUIStream@@@Z 1002de70 f i Body.obj
 0001:0002ce90       ?LoadFromStream@ExtData@TeamExt@@UAEXAAVPhobosStreamReader@@@Z 1002de90 f   Body.obj
 0001:0002cec0       ?LoadKey@?$Container@VTeamExt@@@@IAEPAVExtData@TeamExt@@PAVTeamClass@@PAUIStream@@@Z 1002dec0 f i Body.obj
 0001:0002d030       ?Save@?$Container@VTeamExt@@@@MAE_NPAVTeamClass@@PAUIStream@@@Z 1002e030 f i Body.obj
 0001:0002d050       ?SaveKey@?$Container@VTeamExt@@@@IAEPAVExtData@TeamExt@@PAVTeamClass@@PAUIStream@@@Z 1002e050 f i Body.obj
 0001:0002d210       ?SaveToStream@ExtData@TeamExt@@UAEXAAVPhobosStreamWriter@@@Z 1002e210 f   Body.obj
 0001:0002d320       _TeamClass_CTOR            1002e320 f   Body.obj
 0001:0002d410       _TeamClass_DTOR            1002e410 f   Body.obj
 0001:0002d4a0       _TeamClass_Load_Suffix     1002e4a0 f   Body.obj
 0001:0002d530       _TeamClass_SaveLoad_Prefix 1002e530 f   Body.obj
 0001:0002d570       _TeamClass_Save_Suffix     1002e570 f   Body.obj
 0001:0002d5f0       _TunnelLocomotionClass_7291F0_Speed 1002e5f0 f   Hook.TunnelSpeed.obj
 0001:0002d650       _TunnelLocomotionClass_7294E0_Speed 1002e650 f   Hook.TunnelSpeed.obj
 0001:0002d6b0       _TunnelLocomotionClass_7298F0_Speed 1002e6b0 f   Hook.TunnelSpeed.obj
 0001:0002d710       ??$_Destroy_range@V?$allocator@V?$unique_ptr@VHoverTypeClass@@U?$default_delete@VHoverTypeClass@@@std@@@std@@@std@@@std@@YGXPAV?$unique_ptr@VHoverTypeClass@@U?$default_delete@VHoverTypeClass@@@std@@@0@QAV10@AAV?$allocator@V?$unique_ptr@VHoverTypeClass@@U?$default_delete@VHoverTypeClass@@@std@@@std@@@0@@Z 1002e710 f i Hooks.Hover.obj
 0001:0002d710       ??$_Destroy_range@V?$allocator@V?$unique_ptr@VTrailType@@U?$default_delete@VTrailType@@@std@@@std@@@std@@@std@@YGXPAV?$unique_ptr@VTrailType@@U?$default_delete@VTrailType@@@std@@@0@QAV10@AAV?$allocator@V?$unique_ptr@VTrailType@@U?$default_delete@VTrailType@@@std@@@std@@@0@@Z 1002e710 f i Body.obj
 0001:0002d740       ??$_Emplace_reallocate@V?$unique_ptr@VHoverTypeClass@@U?$default_delete@VHoverTypeClass@@@std@@@std@@@?$vector@V?$unique_ptr@VHoverTypeClass@@U?$default_delete@VHoverTypeClass@@@std@@@std@@V?$allocator@V?$unique_ptr@VHoverTypeClass@@U?$default_delete@VHoverTypeClass@@@std@@@std@@@2@@std@@AAEPAV?$unique_ptr@VHoverTypeClass@@U?$default_delete@VHoverTypeClass@@@std@@@1@QAV21@$$QAV21@@Z 1002e740 f i Hooks.Hover.obj
 0001:0002d740       ??$_Emplace_reallocate@V?$unique_ptr@VTrailType@@U?$default_delete@VTrailType@@@std@@@std@@@?$vector@V?$unique_ptr@VTrailType@@U?$default_delete@VTrailType@@@std@@@std@@V?$allocator@V?$unique_ptr@VTrailType@@U?$default_delete@VTrailType@@@std@@@std@@@2@@std@@AAEPAV?$unique_ptr@VTrailType@@U?$default_delete@VTrailType@@@std@@@1@QAV21@$$QAV21@@Z 1002e740 f i Body.obj
 0001:0002d930       ??_E?$Enumerable@VArmorTypeClass@@@@UAEPAXI@Z 1002e930 f i ArmorTypeClass.obj
 0001:0002d930       ??_E?$Enumerable@VHoverTypeClass@@@@UAEPAXI@Z 1002e930 f i Hooks.Hover.obj
 0001:0002d930       ??_E?$Enumerable@VLaserTrailTypeClass@@@@UAEPAXI@Z 1002e930 f i Body.obj
 0001:0002d930       ??_E?$Enumerable@VRadTypeClass@@@@UAEPAXI@Z 1002e930 f i RadTypeClass.obj
 0001:0002d930       ??_E?$Enumerable@VShieldTypeClass@@@@UAEPAXI@Z 1002e930 f i Body.obj
 0001:0002d930       ??_E?$Enumerable@VTrailType@@@@UAEPAXI@Z 1002e930 f i Body.obj
 0001:0002d930       ??_G?$Enumerable@VArmorTypeClass@@@@UAEPAXI@Z 1002e930 f i ArmorTypeClass.obj
 0001:0002d930       ??_G?$Enumerable@VHoverTypeClass@@@@UAEPAXI@Z 1002e930 f i Hooks.Hover.obj
 0001:0002d930       ??_G?$Enumerable@VLaserTrailTypeClass@@@@UAEPAXI@Z 1002e930 f i Body.obj
 0001:0002d930       ??_G?$Enumerable@VRadTypeClass@@@@UAEPAXI@Z 1002e930 f i RadTypeClass.obj
 0001:0002d930       ??_G?$Enumerable@VShieldTypeClass@@@@UAEPAXI@Z 1002e930 f i Body.obj
 0001:0002d930       ??_G?$Enumerable@VTrailType@@@@UAEPAXI@Z 1002e930 f i Body.obj
 0001:0002d950       ??_EHoverTypeClass@@UAEPAXI@Z 1002e950 f i Hooks.Hover.obj
 0001:0002d950       ??_ETrailType@@UAEPAXI@Z   1002e950 f i TrailType.obj
 0001:0002d950       ??_GHoverTypeClass@@UAEPAXI@Z 1002e950 f i Hooks.Hover.obj
 0001:0002d950       ??_GTrailType@@UAEPAXI@Z   1002e950 f i TrailType.obj
 0001:0002d970       ?FindOrAllocate@?$Enumerable@VHoverTypeClass@@@@SGPAVHoverTypeClass@@PBD@Z 1002e970 f i Hooks.Hover.obj
 0001:0002daf0       ?PlayGlobal@VocClass@@SIXHW4Panning@@MPAUAudioController@@@Z 1002eaf0 f i Hooks.Hover.obj
 0001:0002db10       _HoverLocomotionClass_513D20_Anim 1002eb10 f   Hooks.Hover.obj
 0001:0002dc30       _HoverLocomotionClass_513D20_HoverBob 1002ec30 f   Hooks.Hover.obj
 0001:0002dcb0       _HoverLocomotionClass_513D20_HoverDampen 1002ecb0 f   Hooks.Hover.obj
 0001:0002dd20       _HoverLocomotionClass_513D20_HoverHeight1 1002ed20 f   Hooks.Hover.obj
 0001:0002dda0       _HoverLocomotionClass_513D20_HoverHeight2 1002eda0 f   Hooks.Hover.obj
 0001:0002de30       _HoverLocomotionClass_513D20_HoverHeight3 1002ee30 f   Hooks.Hover.obj
 0001:0002dea0       _HoverLocomotionClass_513D20_HoverHeight4 1002eea0 f   Hooks.Hover.obj
 0001:0002df20       _HoverLocomotionClass_515ED0_HoverAccel 1002ef20 f   Hooks.Hover.obj
 0001:0002df90       _HoverLocomotionClass_515ED0_HoverBoost 1002ef90 f   Hooks.Hover.obj
 0001:0002e010       _HoverLocomotionClass_515ED0_HoverBrake 1002f010 f   Hooks.Hover.obj
 0001:0002e080       _HoverLocomotionClass_515ED0_ScoldSound 1002f080 f   Hooks.Hover.obj
 0001:0002e100       ??HCoordStruct@@QAE?AU0@ABU0@@Z 1002f100 f i Hooks.Otamaa.obj
 0001:0002e130       ?UpdateRotation@UnitClass@@QAEXXZ 1002f130 f i Hooks.Otamaa.obj
 0001:0002e150       _BuildingClass_AssignTarget_Jugger 1002f150 f   Hooks.Otamaa.obj
 0001:0002e1a0       _BuildingClass_MI_DC_Jugger 1002f1a0 f   Hooks.Otamaa.obj
 0001:0002e1f0       _ObjectClass_ReceiveDamage_HitAnim 1002f1f0 f   Hooks.Otamaa.obj
 0001:0002e500       _RocketLocomotionClass_ILocomotion_DrawMatrix_CustomMissile 1002f500 f   Hooks.Otamaa.obj
 0001:0002e540       _RocketLocomotionClass_ILocomotion_Process_Raise 1002f540 f   Hooks.Otamaa.obj
 0001:0002e5e0       _SlaveManagerClass_FreeSlaves_Sound 1002f5e0 f   Hooks.Otamaa.obj
 0001:0002e660       _TechnoClass_MI_Construct_Facing_Jugger 1002f660 f   Hooks.Otamaa.obj
 0001:0002e690       _TechnoClass_Unlimbo_BuildingFacing_Jugger 1002f690 f   Hooks.Otamaa.obj
 0001:0002e6e0       _UnitClass_AI_Rotation_AI_Replace 1002f6e0 f   Hooks.Otamaa.obj
 0001:0002e750       _UnitClass_TryToDeploy_BarrelFacing_Jugger 1002f750 f   Hooks.Otamaa.obj
 0001:0002e7a0       ??$Process@V?$Nullable@E@@@PhobosStreamWriter@@QAEAAV0@AAV?$Nullable@E@@_N@Z 1002f7a0 f i Body.obj
 0001:0002e7a0       ??$Process@V?$Nullable@_N@@@PhobosStreamWriter@@QAEAAV0@AAV?$Nullable@_N@@_N@Z 1002f7a0 f i Body.obj
 0001:0002e7e0       ??$Process@V?$Nullable@H@@@PhobosStreamWriter@@QAEAAV0@AAV?$Nullable@H@@_N@Z 1002f7e0 f i Body.obj
 0001:0002e7e0       ??$Process@V?$Nullable@M@@@PhobosStreamWriter@@QAEAAV0@AAV?$Nullable@M@@_N@Z 1002f7e0 f i Body.obj
 0001:0002e7e0       ??$Process@V?$Nullable@PAVAnimTypeClass@@@@@PhobosStreamWriter@@QAEAAV0@AAV?$Nullable@PAVAnimTypeClass@@@@_N@Z 1002f7e0 f i Body.obj
 0001:0002e7e0       ??$Process@V?$Nullable@PAVHoverTypeClass@@@@@PhobosStreamWriter@@QAEAAV0@AAV?$Nullable@PAVHoverTypeClass@@@@_N@Z 1002f7e0 f i Body.obj
 0001:0002e7e0       ??$Process@V?$Nullable@PAVParticleSystemTypeClass@@@@@PhobosStreamWriter@@QAEAAV0@AAV?$Nullable@PAVParticleSystemTypeClass@@@@_N@Z 1002f7e0 f i Body.obj
 0001:0002e7e0       ??$Process@V?$Nullable@W4SelfHealGainType@@@@@PhobosStreamWriter@@QAEAAV0@AAV?$Nullable@W4SelfHealGainType@@@@_N@Z 1002f7e0 f i Body.obj
 0001:0002e7e0       ??$Process@V?$NullableIdx@VAnimTypeClass@@@@@PhobosStreamWriter@@QAEAAV0@AAV?$NullableIdx@VAnimTypeClass@@@@_N@Z 1002f7e0 f i Body.obj
 0001:0002e7e0       ??$Process@V?$NullableIdx@VVocClass@@@@@PhobosStreamWriter@@QAEAAV0@AAV?$NullableIdx@VVocClass@@@@_N@Z 1002f7e0 f i Body.obj
 0001:0002e7e0       ??$Process@V?$NullableIdx@VVoxClass@@@@@PhobosStreamWriter@@QAEAAV0@AAV?$NullableIdx@VVoxClass@@@@_N@Z 1002f7e0 f i Body.obj
 0001:0002e820       ??$Process@V?$Nullable@N@@@PhobosStreamReader@@QAEAAV0@AAV?$Nullable@N@@_N@Z 1002f820 f i Body.obj
 0001:0002e880       ??$Process@V?$Nullable@N@@@PhobosStreamWriter@@QAEAAV0@AAV?$Nullable@N@@_N@Z 1002f880 f i Body.obj
 0001:0002e880       ??$Process@V?$Nullable@VPoint2D@@@@@PhobosStreamWriter@@QAEAAV0@AAV?$Nullable@VPoint2D@@@@_N@Z 1002f880 f i Body.obj
 0001:0002e8c0       ??$Process@V?$Nullable@PAUSHPStruct@@@@@PhobosStreamReader@@QAEAAV0@AAV?$Nullable@PAUSHPStruct@@@@_N@Z 1002f8c0 f i Body.obj
 0001:0002e910       ??$Process@V?$Nullable@PAUSHPStruct@@@@@PhobosStreamWriter@@QAEAAV0@AAV?$Nullable@PAUSHPStruct@@@@_N@Z 1002f910 f i Body.obj
 0001:0002e940       ??$Process@V?$Nullable@UCoordStruct@@@@@PhobosStreamReader@@QAEAAV0@AAV?$Nullable@UCoordStruct@@@@_N@Z 1002f940 f i Body.obj
 0001:0002e9b0       ??$Process@V?$Nullable@UCoordStruct@@@@@PhobosStreamWriter@@QAEAAV0@AAV?$Nullable@UCoordStruct@@@@_N@Z 1002f9b0 f i Body.obj
 0001:0002e9b0       ??$Process@V?$Nullable@VPoint3D@@@@@PhobosStreamWriter@@QAEAAV0@AAV?$Nullable@VPoint3D@@@@_N@Z 1002f9b0 f i Body.obj
 0001:0002e9f0       ??$Process@V?$Nullable@VPoint2D@@@@@PhobosStreamReader@@QAEAAV0@AAV?$Nullable@VPoint2D@@@@_N@Z 1002f9f0 f i Body.obj
 0001:0002ea60       ??$Process@V?$Nullable@VPoint3D@@@@@PhobosStreamReader@@QAEAAV0@AAV?$Nullable@VPoint3D@@@@_N@Z 1002fa60 f i Body.obj
 0001:0002ead0       ??$Process@V?$NullableVector@H@@@PhobosStreamReader@@QAEAAV0@AAV?$NullableVector@H@@_N@Z 1002fad0 f i Body.obj
 0001:0002eb30       ??$Process@V?$NullableVector@H@@@PhobosStreamWriter@@QAEAAV0@AAV?$NullableVector@H@@_N@Z 1002fb30 f i Body.obj
 0001:0002eb70       ??$Process@V?$PhobosFixedString@$0DC@@@@PhobosStreamReader@@QAEAAV0@AAV?$PhobosFixedString@$0DC@@@_N@Z 1002fb70 f i Body.obj
 0001:0002eba0       ??$Process@V?$PhobosFixedString@$0DC@@@@PhobosStreamWriter@@QAEAAV0@AAV?$PhobosFixedString@$0DC@@@_N@Z 1002fba0 f i Body.obj
 0001:0002ebc0       ??$Process@V?$Promotable@H@@@PhobosStreamReader@@QAEAAV0@AAV?$Promotable@H@@_N@Z 1002fbc0 f i Body.obj
 0001:0002ec20       ??$Process@V?$Promotable@H@@@PhobosStreamWriter@@QAEAAV0@AAV?$Promotable@H@@_N@Z 1002fc20 f i Body.obj
 0001:0002ec20       ??$Process@V?$Promotable@PAVWeaponTypeClass@@@@@PhobosStreamWriter@@QAEAAV0@AAV?$Promotable@PAVWeaponTypeClass@@@@_N@Z 1002fc20 f i Body.obj
 0001:0002ec60       ??$Process@V?$Promotable@PAUSHPStruct@@@@@PhobosStreamReader@@QAEAAV0@AAV?$Promotable@PAUSHPStruct@@@@_N@Z 1002fc60 f i Body.obj
 0001:0002ecc0       ??$Process@V?$Promotable@PAUSHPStruct@@@@@PhobosStreamWriter@@QAEAAV0@AAV?$Promotable@PAUSHPStruct@@@@_N@Z 1002fcc0 f i Body.obj
 0001:0002ed10       ??$Process@V?$Promotable@PAVWeaponTypeClass@@@@@PhobosStreamReader@@QAEAAV0@AAV?$Promotable@PAVWeaponTypeClass@@@@_N@Z 1002fd10 f i Body.obj
 0001:0002edc0       ??$Process@V?$Promotable@_N@@@PhobosStreamReader@@QAEAAV0@AAV?$Promotable@_N@@_N@Z 1002fdc0 f i Body.obj
 0001:0002ee20       ??$Process@V?$Promotable@_N@@@PhobosStreamWriter@@QAEAAV0@AAV?$Promotable@_N@@_N@Z 1002fe20 f i Body.obj
 0001:0002ee60       ??$Process@V?$Valueable@H@@@PhobosStreamReader@@QAEAAV0@AAV?$Valueable@H@@_N@Z 1002fe60 f i Body.obj
 0001:0002ee60       ??$Process@V?$Valueable@M@@@PhobosStreamReader@@QAEAAV0@AAV?$Valueable@M@@_N@Z 1002fe60 f i Body.obj
 0001:0002ee60       ??$Process@V?$ValueableIdx@VVocClass@@@@@PhobosStreamReader@@QAEAAV0@AAV?$ValueableIdx@VVocClass@@@@_N@Z 1002fe60 f i Body.obj
 0001:0002ee60       ??$Process@V?$ValueableIdx@VVoxClass@@@@@PhobosStreamReader@@QAEAAV0@AAV?$ValueableIdx@VVoxClass@@@@_N@Z 1002fe60 f i Body.obj
 0001:0002ee90       ??$Process@V?$Valueable@H@@@PhobosStreamWriter@@QAEAAV0@AAV?$Valueable@H@@_N@Z 1002fe90 f i Body.obj
 0001:0002ee90       ??$Process@V?$Valueable@M@@@PhobosStreamWriter@@QAEAAV0@AAV?$Valueable@M@@_N@Z 1002fe90 f i Body.obj
 0001:0002ee90       ??$Process@V?$Valueable@PAVAnimTypeClass@@@@@PhobosStreamWriter@@QAEAAV0@AAV?$Valueable@PAVAnimTypeClass@@@@_N@Z 1002fe90 f i Body.obj
 0001:0002ee90       ??$Process@V?$Valueable@PAVWeaponTypeClass@@@@@PhobosStreamWriter@@QAEAAV0@AAV?$Valueable@PAVWeaponTypeClass@@@@_N@Z 1002fe90 f i Body.obj
 0001:0002ee90       ??$Process@V?$ValueableIdx@VVocClass@@@@@PhobosStreamWriter@@QAEAAV0@AAV?$ValueableIdx@VVocClass@@@@_N@Z 1002fe90 f i Body.obj
 0001:0002ee90       ??$Process@V?$ValueableIdx@VVoxClass@@@@@PhobosStreamWriter@@QAEAAV0@AAV?$ValueableIdx@VVoxClass@@@@_N@Z 1002fe90 f i Body.obj
 0001:0002eeb0       ??$Process@V?$Valueable@N@@@PhobosStreamReader@@QAEAAV0@AAV?$Valueable@N@@_N@Z 1002feb0 f i Body.obj
 0001:0002eeb0       ??$Process@V?$Valueable@VPoint2D@@@@@PhobosStreamReader@@QAEAAV0@AAV?$Valueable@VPoint2D@@@@_N@Z 1002feb0 f i Body.obj
 0001:0002eee0       ??$Process@V?$Valueable@N@@@PhobosStreamWriter@@QAEAAV0@AAV?$Valueable@N@@_N@Z 1002fee0 f i Body.obj
 0001:0002eee0       ??$Process@V?$Valueable@VPoint2D@@@@@PhobosStreamWriter@@QAEAAV0@AAV?$Valueable@VPoint2D@@@@_N@Z 1002fee0 f i Body.obj
 0001:0002ef00       ??$Process@V?$Valueable@PAVAnimTypeClass@@@@@PhobosStreamReader@@QAEAAV0@AAV?$Valueable@PAVAnimTypeClass@@@@_N@Z 1002ff00 f i Body.obj
 0001:0002ef00       ??$Process@V?$Valueable@PAVWeaponTypeClass@@@@@PhobosStreamReader@@QAEAAV0@AAV?$Valueable@PAVWeaponTypeClass@@@@_N@Z 1002ff00 f i Body.obj
 0001:0002ef40       ??$Process@V?$Valueable@UColorStruct@@@@@PhobosStreamReader@@QAEAAV0@AAV?$Valueable@UColorStruct@@@@_N@Z 1002ff40 f i Body.obj
 0001:0002ef70       ??$Process@V?$Valueable@UColorStruct@@@@@PhobosStreamWriter@@QAEAAV0@AAV?$Valueable@UColorStruct@@@@_N@Z 1002ff70 f i Body.obj
 0001:0002ef90       ??$Process@V?$Valueable@UCoordStruct@@@@@PhobosStreamReader@@QAEAAV0@AAV?$Valueable@UCoordStruct@@@@_N@Z 1002ff90 f i Body.obj
 0001:0002ef90       ??$Process@V?$Valueable@VPoint3D@@@@@PhobosStreamReader@@QAEAAV0@AAV?$Valueable@VPoint3D@@@@_N@Z 1002ff90 f i Body.obj
 0001:0002efc0       ??$Process@V?$Valueable@UCoordStruct@@@@@PhobosStreamWriter@@QAEAAV0@AAV?$Valueable@UCoordStruct@@@@_N@Z 1002ffc0 f i Body.obj
 0001:0002efc0       ??$Process@V?$Valueable@VPoint3D@@@@@PhobosStreamWriter@@QAEAAV0@AAV?$Valueable@VPoint3D@@@@_N@Z 1002ffc0 f i Body.obj
 0001:0002efe0       ??$Process@V?$Valueable@URocketStruct@@@@@PhobosStreamReader@@QAEAAV0@AAV?$Valueable@URocketStruct@@@@_N@Z 1002ffe0 f i Body.obj
 0001:0002f030       ??$Process@V?$Valueable@URocketStruct@@@@@PhobosStreamWriter@@QAEAAV0@AAV?$Valueable@URocketStruct@@@@_N@Z 10030030 f i Body.obj
 0001:0002f050       ??$Process@V?$Valueable@V?$Vector2D@N@@@@@PhobosStreamReader@@QAEAAV0@AAV?$Valueable@V?$Vector2D@N@@@@_N@Z 10030050 f i Body.obj
 0001:0002f080       ??$Process@V?$Valueable@V?$Vector2D@N@@@@@PhobosStreamWriter@@QAEAAV0@AAV?$Valueable@V?$Vector2D@N@@@@_N@Z 10030080 f i Body.obj
 0001:0002f0a0       ??$Process@V?$Valueable@VCSFText@@@@@PhobosStreamReader@@QAEAAV0@AAV?$Valueable@VCSFText@@@@_N@Z 100300a0 f i Body.obj
 0001:0002f100       ??$Process@V?$Valueable@VCSFText@@@@@PhobosStreamWriter@@QAEAAV0@AAV?$Valueable@VCSFText@@@@_N@Z 10030100 f i Body.obj
 0001:0002f120       ??$Process@V?$Valueable@W4AffectedHouse@@@@@PhobosStreamReader@@QAEAAV0@AAV?$Valueable@W4AffectedHouse@@@@_N@Z 10030120 f i Body.obj
 0001:0002f120       ??$Process@V?$Valueable@W4AffectedTarget@@@@@PhobosStreamReader@@QAEAAV0@AAV?$Valueable@W4AffectedTarget@@@@_N@Z 10030120 f i Body.obj
 0001:0002f120       ??$Process@V?$Valueable@_N@@@PhobosStreamReader@@QAEAAV0@AAV?$Valueable@_N@@_N@Z 10030120 f i Body.obj
 0001:0002f120       ??$Process@_N@PhobosStreamReader@@QAEAAV0@AA_N_N@Z 10030120 f i Body.obj
 0001:0002f150       ??$Process@V?$Valueable@W4AffectedHouse@@@@@PhobosStreamWriter@@QAEAAV0@AAV?$Valueable@W4AffectedHouse@@@@_N@Z 10030150 f i Body.obj
 0001:0002f150       ??$Process@V?$Valueable@_N@@@PhobosStreamWriter@@QAEAAV0@AAV?$Valueable@_N@@_N@Z 10030150 f i Body.obj
 0001:0002f170       ??$Process@V?$ValueableVector@H@@@PhobosStreamReader@@QAEAAV0@AAV?$ValueableVector@H@@_N@Z 10030170 f i Body.obj
 0001:0002f190       ??$Process@V?$ValueableVector@PAVWeaponTypeClass@@@@@PhobosStreamReader@@QAEAAV0@AAV?$ValueableVector@PAVWeaponTypeClass@@@@_N@Z 10030190 f i Body.obj
 0001:0002f1b0       ??$Process@V?$ValueableVector@V?$vector@PAVWeaponTypeClass@@V?$allocator@PAVWeaponTypeClass@@@std@@@std@@@@@PhobosStreamWriter@@QAEAAV0@AAV?$ValueableVector@V?$vector@PAVWeaponTypeClass@@V?$allocator@PAVWeaponTypeClass@@@std@@@std@@@@_N@Z 100301b0 f i Body.obj
 0001:0002f270       ??$Process@V?$vector@UCoordStruct@@V?$allocator@UCoordStruct@@@std@@@std@@@PhobosStreamReader@@QAEAAV0@AAV?$vector@UCoordStruct@@V?$allocator@UCoordStruct@@@std@@@std@@_N@Z 10030270 f i Body.obj
 0001:0002f290       ??$Process@V?$vector@UCoordStruct@@V?$allocator@UCoordStruct@@@std@@@std@@@PhobosStreamWriter@@QAEAAV0@AAV?$vector@UCoordStruct@@V?$allocator@UCoordStruct@@@std@@@std@@_N@Z 10030290 f i Body.obj
 0001:0002f360       ??$Process@V?$vector@V?$DynamicVectorClass@UCoordStruct@@@@V?$allocator@V?$DynamicVectorClass@UCoordStruct@@@@@std@@@std@@@PhobosStreamReader@@QAEAAV0@AAV?$vector@V?$DynamicVectorClass@UCoordStruct@@@@V?$allocator@V?$DynamicVectorClass@UCoordStruct@@@@@std@@@std@@_N@Z 10030360 f i Body.obj
 0001:0002f380       ??$Process@V?$vector@V?$DynamicVectorClass@UCoordStruct@@@@V?$allocator@V?$DynamicVectorClass@UCoordStruct@@@@@std@@@std@@@PhobosStreamWriter@@QAEAAV0@AAV?$vector@V?$DynamicVectorClass@UCoordStruct@@@@V?$allocator@V?$DynamicVectorClass@UCoordStruct@@@@@std@@@std@@_N@Z 10030380 f i Body.obj
 0001:0002f4c0       ??$Process@VCustomPalette@@@PhobosStreamReader@@QAEAAV0@AAVCustomPalette@@_N@Z 100304c0 f i Body.obj
 0001:0002f4e0       ??$Process@VCustomPalette@@@PhobosStreamWriter@@QAEAAV0@AAVCustomPalette@@_N@Z 100304e0 f i Body.obj
 0001:0002f500       ??$Serialize@VPhobosStreamReader@@@AircraftDiveData@@QAEXAAVPhobosStreamReader@@@Z 10030500 f i Body.obj
 0001:0002f5c0       ??$Serialize@VPhobosStreamReader@@@AircraftPutData@@QAEXAAVPhobosStreamReader@@@Z 100305c0 f i Body.obj
 0001:0002f6f0       ??$Serialize@VPhobosStreamReader@@@ExtData@TechnoTypeExt@@AAEXAAVPhobosStreamReader@@@Z 100306f0 f i Body.obj
 0001:00030930       ??$Serialize@VPhobosStreamReader@@@ExtraFireData@@QAEXAAVPhobosStreamReader@@@Z 10031930 f i Body.obj
 0001:00030a20       ??$Serialize@VPhobosStreamReader@@@FLHData@ExtraFireData@@QAEXAAVPhobosStreamReader@@@Z 10031a20 f i Body.obj
 0001:00030b60       ??$Serialize@VPhobosStreamReader@@@FighterAreaGuardData@@QAEXAAVPhobosStreamReader@@@Z 10031b60 f i Body.obj
 0001:00030be0       ??$Serialize@VPhobosStreamReader@@@GiftBoxData@@QAEXAAVPhobosStreamReader@@@Z 10031be0 f i Body.obj
 0001:00030e50       ??$Serialize@VPhobosStreamReader@@@JJFacingData@@QAEXAAVPhobosStreamReader@@@Z 10031e50 f i Body.obj
 0001:00030ec0       ??$Serialize@VPhobosStreamReader@@@PassengersData@@QAEXAAVPhobosStreamReader@@@Z 10031ec0 f i Body.obj
 0001:00030f40       ??$Serialize@VPhobosStreamReader@@@SpawnSupportData@@QAEXAAVPhobosStreamReader@@@Z 10031f40 f i Body.obj
 0001:00031030       ??$Serialize@VPhobosStreamReader@@@SpawnSupportFLHData@@QAEXAAVPhobosStreamReader@@@Z 10032030 f i Body.obj
 0001:000310b0       ??$Serialize@VPhobosStreamReader@@@TrailsReader@@QAEXAAVPhobosStreamReader@@@Z 100320b0 f i Body.obj
 0001:000310d0       ??$Serialize@VPhobosStreamWriter@@@AircraftDiveData@@QAEXAAVPhobosStreamWriter@@@Z 100320d0 f i Body.obj
 0001:00031150       ??$Serialize@VPhobosStreamWriter@@@AircraftPutData@@QAEXAAVPhobosStreamWriter@@@Z 10032150 f i Body.obj
 0001:000311e0       ??$Serialize@VPhobosStreamWriter@@@ExtData@TechnoTypeExt@@AAEXAAVPhobosStreamWriter@@@Z 100321e0 f i Body.obj
 0001:000323b0       ??$Serialize@VPhobosStreamWriter@@@ExtraFireData@@QAEXAAVPhobosStreamWriter@@@Z 100333b0 f i Body.obj
 0001:00032550       ??$Serialize@VPhobosStreamWriter@@@FighterAreaGuardData@@QAEXAAVPhobosStreamWriter@@@Z 10033550 f i Body.obj
 0001:000325a0       ??$Serialize@VPhobosStreamWriter@@@GiftBoxData@@QAEXAAVPhobosStreamWriter@@@Z 100335a0 f i Body.obj
 0001:00032770       ??$Serialize@VPhobosStreamWriter@@@JJFacingData@@QAEXAAVPhobosStreamWriter@@@Z 10033770 f i Body.obj
 0001:000327c0       ??$Serialize@VPhobosStreamWriter@@@PassengersData@@QAEXAAVPhobosStreamWriter@@@Z 100337c0 f i Body.obj
 0001:00032810       ??$Serialize@VPhobosStreamWriter@@@SpawnSupportData@@QAEXAAVPhobosStreamWriter@@@Z 10033810 f i Body.obj
 0001:000328a0       ??$Serialize@VPhobosStreamWriter@@@SpawnSupportFLHData@@QAEXAAVPhobosStreamWriter@@@Z 100338a0 f i Body.obj
 0001:000328f0       ??$Serialize@VPhobosStreamWriter@@@TrailsReader@@QAEXAAVPhobosStreamWriter@@@Z 100338f0 f i Body.obj
 0001:000329c0       ??$_Destroy_range@V?$allocator@ULaserTrailDataEntry@ExtData@TechnoTypeExt@@@std@@@std@@YGXPAULaserTrailDataEntry@ExtData@TechnoTypeExt@@QAU123@AAV?$allocator@ULaserTrailDataEntry@ExtData@TechnoTypeExt@@@0@@Z 100339c0 f i Body.obj
 0001:000329c0       ??$_Destroy_range@V?$allocator@V?$DynamicVectorClass@UCoordStruct@@@@@std@@@std@@YGXPAV?$DynamicVectorClass@UCoordStruct@@@@QAV1@AAV?$allocator@V?$DynamicVectorClass@UCoordStruct@@@@@0@@Z 100339c0 f i Body.obj
 0001:000329f0       ??$_Destroy_range@V?$allocator@V?$unique_ptr@VShieldTypeClass@@U?$default_delete@VShieldTypeClass@@@std@@@std@@@std@@@std@@YGXPAV?$unique_ptr@VShieldTypeClass@@U?$default_delete@VShieldTypeClass@@@std@@@0@QAV10@AAV?$allocator@V?$unique_ptr@VShieldTypeClass@@U?$default_delete@VShieldTypeClass@@@std@@@std@@@0@@Z 100339f0 f i Body.obj
 0001:00032a20       ??$_Emplace_reallocate@ABHABUCoordStruct@@AB_N@?$vector@ULaserTrailDataEntry@ExtData@TechnoTypeExt@@V?$allocator@ULaserTrailDataEntry@ExtData@TechnoTypeExt@@@std@@@std@@AAEPAULaserTrailDataEntry@ExtData@TechnoTypeExt@@QAU234@ABHABUCoordStruct@@AB_N@Z 10033a20 f i Body.obj
 0001:00032b90       ??$_Emplace_reallocate@ABN@?$vector@NV?$allocator@N@std@@@std@@AAEPANQANABN@Z 10033b90 f i Body.obj
 0001:00032d50       ??$_Emplace_reallocate@ABUCoordStruct@@@?$vector@UCoordStruct@@V?$allocator@UCoordStruct@@@std@@@std@@AAEPAUCoordStruct@@QAU2@ABU2@@Z 10033d50 f i Body.obj
 0001:00032d50       ??$_Emplace_reallocate@UCoordStruct@@@?$vector@UCoordStruct@@V?$allocator@UCoordStruct@@@std@@@std@@AAEPAUCoordStruct@@QAU2@$$QAU2@@Z 10033d50 f i Body.obj
 0001:00032ea0       ??$_Emplace_reallocate@ULaserTrailDataEntry@ExtData@TechnoTypeExt@@@?$vector@ULaserTrailDataEntry@ExtData@TechnoTypeExt@@V?$allocator@ULaserTrailDataEntry@ExtData@TechnoTypeExt@@@std@@@std@@AAEPAULaserTrailDataEntry@ExtData@TechnoTypeExt@@QAU234@$$QAU234@@Z 10033ea0 f i Body.obj
 0001:00033010       ??$_Emplace_reallocate@V?$unique_ptr@VShieldTypeClass@@U?$default_delete@VShieldTypeClass@@@std@@@std@@@?$vector@V?$unique_ptr@VShieldTypeClass@@U?$default_delete@VShieldTypeClass@@@std@@@std@@V?$allocator@V?$unique_ptr@VShieldTypeClass@@U?$default_delete@VShieldTypeClass@@@std@@@std@@@2@@std@@AAEPAV?$unique_ptr@VShieldTypeClass@@U?$default_delete@VShieldTypeClass@@@std@@@1@QAV21@$$QAV21@@Z 10034010 f i Body.obj
 0001:00033200       ??$_Resize_reallocate@U_Value_init_tag@std@@@?$vector@UCoordStruct@@V?$allocator@UCoordStruct@@@std@@@std@@AAEXIABU_Value_init_tag@1@@Z 10034200 f i Body.obj
 0001:00033300       ??$_Resize_reallocate@U_Value_init_tag@std@@@?$vector@V?$DynamicVectorClass@UCoordStruct@@@@V?$allocator@V?$DynamicVectorClass@UCoordStruct@@@@@std@@@std@@AAEXIABU_Value_init_tag@1@@Z 10034300 f i Body.obj
 0001:00033420       ??$_Uninitialized_move@PAUCoordStruct@@V?$allocator@UCoordStruct@@@std@@@std@@YGPAUCoordStruct@@QAU1@0PAU1@AAV?$allocator@UCoordStruct@@@0@@Z 10034420 f i Body.obj
 0001:00033460       ??$_Uninitialized_move@PAULaserTrailDataEntry@ExtData@TechnoTypeExt@@V?$allocator@ULaserTrailDataEntry@ExtData@TechnoTypeExt@@@std@@@std@@YGPAULaserTrailDataEntry@ExtData@TechnoTypeExt@@QAU123@0PAU123@AAV?$allocator@ULaserTrailDataEntry@ExtData@TechnoTypeExt@@@0@@Z 10034460 f i Body.obj
 0001:000334c0       ??$_Uninitialized_move@PAV?$DynamicVectorClass@UCoordStruct@@@@V?$allocator@V?$DynamicVectorClass@UCoordStruct@@@@@std@@@std@@YGPAV?$DynamicVectorClass@UCoordStruct@@@@QAV1@0PAV1@AAV?$allocator@V?$DynamicVectorClass@UCoordStruct@@@@@0@@Z 100344c0 f i Body.obj
 0001:00033530       ??$_Uninitialized_value_construct_n@V?$allocator@UCoordStruct@@@std@@@std@@YGPAUCoordStruct@@PAU1@IAAV?$allocator@UCoordStruct@@@0@@Z 10034530 f i Body.obj
 0001:00033560       ??$_Uninitialized_value_construct_n@V?$allocator@V?$DynamicVectorClass@UCoordStruct@@@@@std@@@std@@YGPAV?$DynamicVectorClass@UCoordStruct@@@@PAV1@IAAV?$allocator@V?$DynamicVectorClass@UCoordStruct@@@@@0@@Z 10034560 f i Body.obj
 0001:000335b0       ??$_snprintf_s@$0DA@@@YAHAAY0DA@DIPBDZZ 100345b0 f i Body.obj
 0001:000335e0       ??$_snprintf_s@$0EA@@@YAHAAY0EA@DIPBDZZ 100345e0 f i Body.obj
 0001:00033610       ??$construct@ULaserTrailDataEntry@ExtData@TechnoTypeExt@@ABHABUCoordStruct@@AB_N@?$_Default_allocator_traits@V?$allocator@ULaserTrailDataEntry@ExtData@TechnoTypeExt@@@std@@@std@@SGXAAV?$allocator@ULaserTrailDataEntry@ExtData@TechnoTypeExt@@@1@QAULaserTrailDataEntry@ExtData@TechnoTypeExt@@ABHABUCoordStruct@@AB_N@Z 10034610 f i Body.obj
 0001:00033650       ??$construct@ULaserTrailDataEntry@ExtData@TechnoTypeExt@@U123@@?$_Default_allocator_traits@V?$allocator@ULaserTrailDataEntry@ExtData@TechnoTypeExt@@@std@@@std@@SGXAAV?$allocator@ULaserTrailDataEntry@ExtData@TechnoTypeExt@@@1@QAULaserTrailDataEntry@ExtData@TechnoTypeExt@@$$QAU345@@Z 10034650 f i Body.obj
 0001:00033680       ??$parse_values@PAVWeaponTypeClass@@@detail@@YGXAAV?$vector@PAVWeaponTypeClass@@V?$allocator@PAVWeaponTypeClass@@@std@@@std@@AAVINI_EX@@PBD2_N@Z 10034680 f i Body.obj
 0001:00033750       ??$read@M@detail@@YG_NAAMAAVINI_EX@@PBD2_N@Z 10034750 f i Body.obj
 0001:00033810       ??$read@PAVAnimTypeClass@@@detail@@YG_NAAPAVAnimTypeClass@@AAVINI_EX@@PBD2_N@Z 10034810 f i Body.obj
 0001:000338b0       ??$read@ULeptons@@@detail@@YG_NAAULeptons@@AAVINI_EX@@PBD2_N@Z 100348b0 f i Body.obj
 0001:00033970       ??$read@URocketStruct@@@detail@@YG_NAAURocketStruct@@AAVINI_EX@@PBD2_N@Z 10034970 f i Body.obj
 0001:00033d60       ??0ExtData@TechnoTypeExt@@QAE@PAVTechnoTypeClass@@@Z 10034d60 f i Body.obj
 0001:00034c90       ??0InfantryTypeClass@@QAE@PBD@Z 10035c90 f i Body.obj
 0001:00034e20       ??0ShieldTypeClass@@QAE@QBD@Z 10035e20 f i Body.obj
 0001:00034f90       ??1?$vector@UCoordStruct@@V?$allocator@UCoordStruct@@@std@@@std@@QAE@XZ 10035f90 f i Body.obj
 0001:00034f90       ?_Tidy@?$vector@UCoordStruct@@V?$allocator@UCoordStruct@@@std@@@std@@AAEXXZ 10035f90 f i ExtraFirefunctional.obj
 0001:00035000       ??1?$vector@ULaserTrailDataEntry@ExtData@TechnoTypeExt@@V?$allocator@ULaserTrailDataEntry@ExtData@TechnoTypeExt@@@std@@@std@@QAE@XZ 10036000 f i Body.obj
 0001:00035000       ??1?$vector@V?$DynamicVectorClass@UCoordStruct@@@@V?$allocator@V?$DynamicVectorClass@UCoordStruct@@@@@std@@@std@@QAE@XZ 10036000 f i Body.obj
 0001:00035090       ??1ExtContainer@TechnoTypeExt@@UAE@XZ 10036090 f   Body.obj
 0001:000350f0       ??1ExtData@TechnoTypeExt@@UAE@XZ 100360f0 f i Body.obj
 0001:00035850       ??1GiftBoxData@@QAE@XZ     10036850 f i Body.obj
 0001:00035960       ??1WeaponData@ExtraFireData@@QAE@XZ 10036960 f i Body.obj
 0001:00035ab0       ??_E?$DynamicVectorClass@UCoordStruct@@@@UAEPAXI@Z 10036ab0 f i Body.obj
 0001:00035ab0       ??_G?$DynamicVectorClass@UCoordStruct@@@@UAEPAXI@Z 10036ab0 f i Body.obj
 0001:00035af0       ??_EExtContainer@TechnoTypeExt@@UAEPAXI@Z 10036af0 f i Body.obj
 0001:00035af0       ??_GExtContainer@TechnoTypeExt@@UAEPAXI@Z 10036af0 f i Body.obj
 0001:00035b20       ??_EExtData@TechnoTypeExt@@UAEPAXI@Z 10036b20 f i Body.obj
 0001:00035b20       ??_GExtData@TechnoTypeExt@@UAEPAXI@Z 10036b20 f i Body.obj
 0001:00035b50       ??_EShieldTypeClass@@UAEPAXI@Z 10036b50 f i Body.obj
 0001:00035b50       ??_GShieldTypeClass@@UAEPAXI@Z 10036b50 f i Body.obj
 0001:00035b70       ?ApplyTurretOffset@TechnoTypeExt@@SGXPAVTechnoTypeClass@@PAVMatrix3D@@N@Z 10036b70 f   Body.obj
 0001:00035bf0       ?Find@?$Enumerable@VHoverTypeClass@@@@SGPAVHoverTypeClass@@PBD@Z 10036bf0 f i Body.obj
 0001:00035c70       ?Find@?$Enumerable@VShieldTypeClass@@@@SGPAVShieldTypeClass@@PBD@Z 10036c70 f i Body.obj
 0001:00035cf0       ?Find@AircraftTypeClass@@SIPAV1@PBD@Z 10036cf0 f i Body.obj
 0001:00035d30       ?Find@InfantryTypeClass@@SIPAV1@PBD@Z 10036d30 f i Body.obj
 0001:00035d70       ?FindIndex@VoxClass@@SGHPBD@Z 10036d70 f i Body.obj
 0001:00035dc0       ?FindItemIndex@?$DynamicVectorClass@UCoordStruct@@@@UBEHABUCoordStruct@@@Z 10036dc0 f i Body.obj
 0001:00035e10       ?FindOrAllocate@?$Container@VTechnoTypeExt@@@@QAEPAVExtData@TechnoTypeExt@@PAVTechnoTypeClass@@@Z 10036e10 f i Body.obj
 0001:00035f50       ?FindOrAllocate@?$Enumerable@VShieldTypeClass@@@@SGPAVShieldTypeClass@@PBD@Z 10036f50 f i Body.obj
 0001:00035fe0       ?FindOrAllocate@InfantryTypeClass@@SIPAV1@PBD@Z 10036fe0 f i Body.obj
 0001:00036040       ?GetBurstFLHs@TechnoTypeExt@@SGXPAVTechnoTypeClass@@AAVINI_EX@@PBDAAV?$vector@V?$DynamicVectorClass@UCoordStruct@@@@V?$allocator@V?$DynamicVectorClass@UCoordStruct@@@@@std@@@std@@32@Z 10037040 f   Body.obj
 0001:00036330       ?GetSelectionGroupID@ExtData@TechnoTypeExt@@QBEPBDXZ 10037330 f   Body.obj
 0001:00036350       ?GetSinkAnim@TechnoTypeExt@@SGPAVAnimTypeClass@@PAVTechnoClass@@@Z 10037350 f   Body.obj
 0001:00036390       ?GetTunnelSpeed@TechnoTypeExt@@SGNPAVTechnoTypeClass@@PAVRulesClass@@@Z 10037390 f   Body.obj
 0001:000363c0       ?Initialize@ExtData@TechnoTypeExt@@UAEXXZ 100373c0 f   Body.obj
 0001:00036480       ?IsCountedAsHarvester@ExtData@TechnoTypeExt@@QBE_NXZ 10037480 f   Body.obj
 0001:000364e0       ?Load@?$Container@VTechnoTypeExt@@@@MAE_NPAVTechnoTypeClass@@PAUIStream@@@Z 100374e0 f i Body.obj
 0001:00036610       ?Load@?$ValueableVector@UCoordStruct@@@@QAE_NAAVPhobosStreamReader@@_N@Z 10037610 f i Body.obj
 0001:000366f0       ?Load@?$ValueableVector@ULaserTrailDataEntry@ExtData@TechnoTypeExt@@@@QAE_NAAVPhobosStreamReader@@_N@Z 100376f0 f i Body.obj
 0001:00036870       ?Load@?$ValueableVector@V?$vector@PAVWeaponTypeClass@@V?$allocator@PAVWeaponTypeClass@@@std@@@std@@@@QAE_NAAVPhobosStreamReader@@_N@Z 10037870 f i Body.obj
 0001:000369e0       ?LoadFromINIFile@ExtData@TechnoTypeExt@@UAEXPAVCCINIClass@@@Z 100379e0 f   Body.obj
 0001:000386c0       ?LoadFromStream@ExtData@TechnoTypeExt@@UAEXAAVPhobosStreamReader@@@Z 100396c0 f   Body.obj
 0001:000386f0       ?Read@?$Nullable@E@@QAEXAAVINI_EX@@PBD1_N@Z 100396f0 f i Body.obj
 0001:00038770       ?Read@?$Nullable@PAVHoverTypeClass@@@@QAEXAAVINI_EX@@PBD1_N@Z 10039770 f i Body.obj
 0001:00038810       ?Read@?$Nullable@PAVInfantryTypeClass@@@@QAEXAAVINI_EX@@PBD1_N@Z 10039810 f i Body.obj
 0001:000388b0       ?Read@?$Nullable@PAVParticleSystemTypeClass@@@@QAEXAAVINI_EX@@PBD1_N@Z 100398b0 f i Body.obj
 0001:00038970       ?Read@?$Nullable@UCoordStruct@@@@QAEXAAVINI_EX@@PBD1_N@Z 10039970 f i Body.obj
 0001:00038970       ?Read@?$Nullable@VPoint3D@@@@QAEXAAVINI_EX@@PBD1_N@Z 10039970 f i Body.obj
 0001:000389a0       ?Read@?$Nullable@W4SelfHealGainType@@@@QAEXAAVINI_EX@@PBD1_N@Z 100399a0 f i Body.obj
 0001:00038a50       ?Read@?$NullableIdx@VLaserTrailTypeClass@@@@QAEXAAVINI_EX@@PBD1@Z 10039a50 f i Body.obj
 0001:00038b20       ?Read@?$NullableIdx@VVoxClass@@@@QAEXAAVINI_EX@@PBD1@Z 10039b20 f i Body.obj
 0001:00038bb0       ?Read@?$NullableVector@H@@QAEXAAVINI_EX@@PBD1@Z 10039bb0 f i Body.obj
 0001:00038c20       ?Read@?$Promotable@H@@QAEXAAVINI_EX@@PBD11@Z 10039c20 f i Body.obj
 0001:00038db0       ?Read@?$Promotable@PAUSHPStruct@@@@QAEXAAVINI_EX@@PBD11@Z 10039db0 f i Body.obj
 0001:00038ea0       ?Read@?$Promotable@PAVWeaponTypeClass@@@@QAEXAAVINI_EX@@PBD11@Z 10039ea0 f i Body.obj
 0001:00038f90       ?Read@?$Promotable@ULeptons@@@@QAEXAAVINI_EX@@PBD11@Z 10039f90 f i Body.obj
 0001:00039080       ?Read@?$Promotable@_N@@QAEXAAVINI_EX@@PBD11@Z 1003a080 f i Body.obj
 0001:00039170       ?Read@?$Valueable@M@@QAEXAAVINI_EX@@PBD1_N@Z 1003a170 f i Body.obj
 0001:00039190       ?Read@?$Valueable@PAVAnimTypeClass@@@@QAEXAAVINI_EX@@PBD1_N@Z 1003a190 f i Body.obj
 0001:000391b0       ?Read@?$Valueable@PAVShieldTypeClass@@@@QAEXAAVINI_EX@@PBD1_N@Z 1003a1b0 f i Body.obj
 0001:00039250       ?Read@?$Valueable@UColorStruct@@@@QAEXAAVINI_EX@@PBD1_N@Z 1003a250 f i Body.obj
 0001:00039400       ?Read@?$Valueable@URocketStruct@@@@QAEXAAVINI_EX@@PBD1_N@Z 1003a400 f i Body.obj
 0001:00039420       ?Read@?$Valueable@V?$Vector2D@N@@@@QAEXAAVINI_EX@@PBD1_N@Z 1003a420 f i Body.obj
 0001:00039550       ?Read@?$Valueable@W4KillMethod@@@@QAEXAAVINI_EX@@PBD1_N@Z 1003a550 f i Body.obj
 0001:00039620       ?Read@?$Valueable@W4SlaveReturnTo@@@@QAEXAAVINI_EX@@PBD1_N@Z 1003a620 f i Body.obj
 0001:00039750       ?Read@?$ValueableIdx@VVocClass@@@@QAEXAAVINI_EX@@PBD1@Z 1003a750 f i Body.obj
 0001:000397e0       ?Read@?$ValueableIdx@VVoxClass@@@@QAEXAAVINI_EX@@PBD1@Z 1003a7e0 f i Body.obj
 0001:00039870       ?Read@?$ValueableVector@N@@QAEXAAVINI_EX@@PBD1_N@Z 1003a870 f i Body.obj
 0001:000399b0       ?Read@?$ValueableVector@PAVWeaponTypeClass@@@@QAEXAAVINI_EX@@PBD1_N@Z 1003a9b0 f i Body.obj
 0001:00039ab0       ?Read@GiftBoxData@@QAEXAAVINI_EX@@PBD@Z 1003aab0 f i Body.obj
 0001:00039d10       ?ReadFromStream@?$PhobosStreamObject@V?$vector@UCoordStruct@@V?$allocator@UCoordStruct@@@std@@@std@@@Savegame@@QBE_NAAVPhobosStreamReader@@AAV?$vector@UCoordStruct@@V?$allocator@UCoordStruct@@@std@@@std@@_N@Z 1003ad10 f i Body.obj
 0001:00039e70       ?ReadFromStream@?$PhobosStreamObject@V?$vector@V?$DynamicVectorClass@UCoordStruct@@@@V?$allocator@V?$DynamicVectorClass@UCoordStruct@@@@@std@@@std@@@Savegame@@QBE_NAAVPhobosStreamReader@@AAV?$vector@V?$DynamicVectorClass@UCoordStruct@@@@V?$allocator@V?$DynamicVectorClass@UCoordStruct@@@@@std@@@std@@_N@Z 1003ae70 f i Body.obj
 0001:0003a030       ?Save@?$Container@VTechnoTypeExt@@@@MAE_NPAVTechnoTypeClass@@PAUIStream@@@Z 1003b030 f i Body.obj
 0001:0003a140       ?Save@?$ValueableVector@UCoordStruct@@@@QBE_NAAVPhobosStreamWriter@@@Z 1003b140 f i Body.obj
 0001:0003a1a0       ?SaveToStream@ExtData@TechnoTypeExt@@UAEXAAVPhobosStreamWriter@@@Z 1003b1a0 f   Body.obj
 0001:0003a1d0       ?SetCapacity@?$DynamicVectorClass@UCoordStruct@@@@UAE_NHPAUCoordStruct@@@Z 1003b1d0 f i Body.obj
 0001:0003a2b0       ?Translate@Matrix3D@@QBEXMMM@Z 1003b2b0 f i Body.obj
 0001:0003a2d0       ?_Change_array@?$vector@UCoordStruct@@V?$allocator@UCoordStruct@@@std@@@std@@AAEXQAUCoordStruct@@II@Z 1003b2d0 f i Body.obj
 0001:0003a350       ?_Change_array@?$vector@ULaserTrailDataEntry@ExtData@TechnoTypeExt@@V?$allocator@ULaserTrailDataEntry@ExtData@TechnoTypeExt@@@std@@@std@@AAEXQAULaserTrailDataEntry@ExtData@TechnoTypeExt@@II@Z 1003b350 f i Body.obj
 0001:0003a350       ?_Change_array@?$vector@V?$DynamicVectorClass@UCoordStruct@@@@V?$allocator@V?$DynamicVectorClass@UCoordStruct@@@@@std@@@std@@AAEXQAV?$DynamicVectorClass@UCoordStruct@@@@II@Z 1003b350 f i Body.obj
 0001:0003a3e0       ?_Reallocate_exactly@?$vector@UCoordStruct@@V?$allocator@UCoordStruct@@@std@@@std@@AAEXI@Z 1003b3e0 f i Body.obj
 0001:0003a480       ?_Reallocate_exactly@?$vector@ULaserTrailDataEntry@ExtData@TechnoTypeExt@@V?$allocator@ULaserTrailDataEntry@ExtData@TechnoTypeExt@@@std@@@std@@AAEXI@Z 1003b480 f i Body.obj
 0001:0003a520       ?_Reallocate_exactly@?$vector@V?$DynamicVectorClass@UCoordStruct@@@@V?$allocator@V?$DynamicVectorClass@UCoordStruct@@@@@std@@@std@@AAEXI@Z 1003b520 f i Body.obj
 0001:0003a5c0       ?allocate@?$allocator@ULaserTrailDataEntry@ExtData@TechnoTypeExt@@@std@@QAEPAULaserTrailDataEntry@ExtData@TechnoTypeExt@@I@Z 1003b5c0 f i Body.obj
 0001:0003a5c0       ?allocate@?$allocator@V?$DynamicVectorClass@UCoordStruct@@@@@std@@QAEPAV?$DynamicVectorClass@UCoordStruct@@@@I@Z 1003b5c0 f i Body.obj
 0001:0003a620       ?deallocate@?$allocator@ULaserTrailDataEntry@ExtData@TechnoTypeExt@@@std@@QAEXQAULaserTrailDataEntry@ExtData@TechnoTypeExt@@I@Z 1003b620 f i Body.obj
 0001:0003a620       ?deallocate@?$allocator@V?$DynamicVectorClass@UCoordStruct@@@@@std@@QAEXQAV?$DynamicVectorClass@UCoordStruct@@@@I@Z 1003b620 f i Body.obj
 0001:0003a660       ?resize@?$vector@V?$DynamicVectorClass@UCoordStruct@@@@V?$allocator@V?$DynamicVectorClass@UCoordStruct@@@@@std@@@std@@QAEXI@Z 1003b660 f i Body.obj
 0001:0003a700       _TechnoTypeClass_CTOR      1003b700 f   Body.obj
 0001:0003a720       _TechnoTypeClass_DTOR      1003b720 f   Body.obj
 0001:0003a7b0       _TechnoTypeClass_LoadFromINI 1003b7b0 f   Body.obj
 0001:0003a850       _TechnoTypeClass_Load_Suffix 1003b850 f   Body.obj
 0001:0003a8e0       _TechnoTypeClass_SaveLoad_Prefix 1003b8e0 f   Body.obj
 0001:0003a920       _TechnoTypeClass_Save_Suffix 1003b920 f   Body.obj
 0001:0003a9a0       _TeleportLocomotionClass_ILocomotion_Process_ChronoDelay 1003b9a0 f   Hooks.Teleport.obj
 0001:0003aa00       _TeleportLocomotionClass_ILocomotion_Process_ChronoDistanceFactor 1003ba00 f   Hooks.Teleport.obj
 0001:0003aa70       _TeleportLocomotionClass_ILocomotion_Process_ChronoMinimumDelay 1003ba70 f   Hooks.Teleport.obj
 0001:0003aad0       _TeleportLocomotionClass_ILocomotion_Process_ChronoMinimumDelay2 1003bad0 f   Hooks.Teleport.obj
 0001:0003ab30       _TeleportLocomotionClass_ILocomotion_Process_ChronoRangeMinimum 1003bb30 f   Hooks.Teleport.obj
 0001:0003abc0       _TeleportLocomotionClass_ILocomotion_Process_ChronoTrigger 1003bbc0 f   Hooks.Teleport.obj
 0001:0003ac20       _TeleportLocomotionClass_ILocomotion_Process_WarpAway 1003bc20 f   Hooks.Teleport.obj
 0001:0003ac90       _TeleportLocomotionClass_ILocomotion_Process_WarpInAnim 1003bc90 f   Hooks.Teleport.obj
 0001:0003ad90       _TeleportLocomotionClass_ILocomotion_Process_WarpoutAnim 1003bd90 f   Hooks.Teleport.obj
 0001:0003ae10       _BuildingClass_Draw_43DA80_TurretMultiOffset 1003be10 f   Hooks.obj
 0001:0003ae40       _DisplayClass_GetToolTip_EnemyUIName 1003be40 f   Hooks.obj
 0001:0003aee0       _FootClass_firecoord_6F3D60_TurretMultiOffset 1003bee0 f   Hooks.obj
 0001:0003af10       _JumpjetLocomotionClass_In_Which_Layer_Deviation 1003bf10 f   Hooks.obj
 0001:0003af80       _SpawnManagerClass_AI_PromoteSpawns 1003bf80 f   Hooks.obj
 0001:0003b020       _TechnoClass_CanPlayerMove_NoManualMove 1003c020 f   Hooks.obj
 0001:0003b060       _TechnoClass_DrawHealthBar_Hide 1003c060 f   Hooks.obj
 0001:0003b0d0       _TechnoClass_Transform_6F3AD0_TurretMultiOffset 1003c0d0 f   Hooks.obj
 0001:0003b100       _UnitClass_DeployUndeploy_DeployAnim 1003c100 f   Hooks.obj
 0001:0003b1e0       _UnitClass_DeployUndeploy_DeploySound 1003c1e0 f   Hooks.obj
 0001:0003b220       _UnitClass_Deploy_DeployDir 1003c220 f   Hooks.obj
 0001:0003b280       _UnitClass_DrawIt_OreGath  1003c280 f   Hooks.obj
 0001:0003b450       _UnitClass_DrawVXL_TurretMultiOffset 1003c450 f   Hooks.obj
 0001:0003b4a0       _UnitClass_DrawVXL_TurretMultiOffset1 1003c4a0 f   Hooks.obj
 0001:0003b4d0       _UnitClass_Draw_1_TurretMultiOffset 1003c4d0 f   Hooks.obj
 0001:0003b500       _UnitClass_Draw_It_KeepUnitVisible 1003c500 f   Hooks.obj
 0001:0003b550       _TechnoClass_DefaultDisguise 1003c550 f   Hooks.Disguise.obj
 0001:0003b5b0       _TechnoClass_DisguiseBlitFlags_BlinkAllyDisguise 1003c5b0 f   Hooks.Disguise.obj
 0001:0003b600       _TechnoClass_IsClearlyVisibleTo_BlinkAllyDisguise1 1003c600 f   Hooks.Disguise.obj
 0001:0003b6c0       _TechnoClass_IsClearlyVisibleTo_BlinkAllyDisguise2 1003c6c0 f   Hooks.Disguise.obj
 0001:0003b710       _TechnoClass_TechnoClass_DrawObject_BlinkAllyDisguise 1003c710 f   Hooks.Disguise.obj
 0001:0003b760       _TechnoClass_TechnoClass_DrawObject_DisguisePalette 1003c760 f   Hooks.Disguise.obj
 0001:0003b830       _TechnoClass_CanFire       1003c830 f   Hooks.Firing.obj
 0001:0003b950       _TechnoClass_CanFire_OpenTopped 1003c950 f   Hooks.Firing.obj
 0001:0003b9a0       _TechnoClass_FireAt_AreaFire 1003c9a0 f   Hooks.Firing.obj
 0001:0003bbc0       _TechnoClass_FireAt_FeedbackWeapon 1003cbc0 f   Hooks.Firing.obj
 0001:0003bc00       _TechnoClass_FireAt_Interceptor 1003cc00 f   Hooks.Firing.obj
 0001:0003bd50       _TechnoClass_FireAt_OpenToppedDmgMult 1003cd50 f   Hooks.Firing.obj
 0001:0003bdf0       _TechnoClass_WeaponRange   1003cdf0 f   Hooks.Firing.obj
 0001:0003bf50       _InfantryClass_Approach_Target_DeployFireWeapon 1003cf50 f   Hooks.Firing.DeployFireWeapon.obj
 0001:0003bf90       _InfantryClass_WhatWeaponShouldIUse_DeployFireWeapon 1003cf90 f   Hooks.Firing.DeployFireWeapon.obj
 0001:0003bfb0       _UnitClass_Mission_Unload_DeployFire 1003cfb0 f   Hooks.Firing.DeployFireWeapon.obj
 0001:0003c030       _TechnoClass_FireAngle_6FDA00_ApplyGravity 1003d030 f   Hooks.Firing.Gravity.obj
 0001:0003c060       _TechnoClass_FireAt_ApplyGravity 1003d060 f   Hooks.Firing.Gravity.obj
 0001:0003c080       _TechnoClass_FireAt_ReverseVelocityWhileGravityIsZero 1003d080 f   Hooks.Firing.Gravity.obj
 0001:0003c220       _TechnoClass_Targeting_ApplyGravity 1003d220 f   Hooks.Firing.Gravity.obj
 0001:0003c250       _AircraftClass_FireAt_SpeedModifiers 1003d250 f   Hooks.Firing.Speed.obj
 0001:0003c320       _TechnoClass_FireAt_ToggleLaserWeaponIndex 1003d320 f   Hooks.Firing.WeaponSelector.obj
 0001:0003c380       _TechnoClass_WhatWeaponShouldIUse 1003d380 f   Hooks.Firing.WeaponSelector.obj
 0001:0003c580       _TechnoClass_WhatWeaponShouldIUse_ForceFire 1003d580 f   Hooks.Firing.WeaponSelector.obj
 0001:0003c600       _TechnoClass_WhatWeaponShouldIUse_ForceWeapon 1003d600 f   Hooks.Firing.WeaponSelector.obj
 0001:0003c690       _TechnoClass_WhatWeaponShouldIUse_Interceptor 1003d690 f   Hooks.Firing.WeaponSelector.obj
 0001:0003c710       _BuildingClass_Destroyed_Shake 1003d710 f   Hooks.Otamaa.obj
 0001:0003c7e0       _DiskLaserClass_Update_ChargedUpSound 1003d7e0 f   Hooks.Otamaa.obj
 0001:0003c840       _FlyLocomotionClass_LandingAnim 1003d840 f   Hooks.Otamaa.obj
 0001:0003c960       _FlyLocomotionClass_TakeOffAnim 1003d960 f   Hooks.Otamaa.obj
 0001:0003ca70       _FootClass_Destroy_SpinSpeed 1003da70 f   Hooks.Otamaa.obj
 0001:0003cb70       _FootClass_Mission_Patrol_IsCow 1003db70 f   Hooks.Otamaa.obj
 0001:0003cbc0       _InfantryClass_RandomAnim_IsCow 1003dbc0 f   Hooks.Otamaa.obj
 0001:0003cc00       _ObjectClass_WasFallingDown 1003dc00 f   Hooks.Otamaa.obj
 0001:0003cd00       _TechnoClass_Drain_LocalDrainAnim 1003dd00 f   Hooks.Otamaa.obj
 0001:0003cdd0       _TechnoClass_DrawPip_Occupants 1003ddd0 f   Hooks.Otamaa.obj
 0001:0003cf30       _TechnoClass_FireDeathWeapon_Replace 1003df30 f   Hooks.Otamaa.obj
 0001:0003d0d0       _TechnoClass_Init_DP       1003e0d0 f   Hooks.Otamaa.obj
 0001:0003d170       _TechnoCllass_FireAt_OccupyAnims 1003e170 f   Hooks.Otamaa.obj
 0001:0003d1d0       _UnitClass_Destroyed_Shake 1003e1d0 f   Hooks.Otamaa.obj
 0001:0003d2a0       _FootClass_LeaveTransport_SyncOwner 1003e2a0 f   Hooks.Transport.obj
 0001:0003d300       _TechnoClass_AI_ThreatEvals_OpenToppedOwner 1003e300 f   Hooks.Transport.obj
 0001:0003d340       _TechnoClass_ChangeHouse_Passenger_SyncOwner 1003e340 f   Hooks.Transport.obj
 0001:0003d3b0       _TechnoClass_EnterTransport_SyncOwner 1003e3b0 f   Hooks.Transport.obj
 0001:0003d410       _TechnoClass_EvaluateCell_ThreatEvals_OpenToppedOwner 1003e410 f   Hooks.Transport.obj
 0001:0003d450       _TechnoClass_EvaluateObject_ThreatEvals_OpenToppedOwner 1003e450 f   Hooks.Transport.obj
 0001:0003d490       _TechnoClass_Greatest_Threat_ThreatEvals_OpenToppedOwner 1003e490 f   Hooks.Transport.obj
 0001:0003d4d0       _TechnoClass_ReceiveDamage_Cargo_SyncOwner 1003e4d0 f   Hooks.Transport.obj
 0001:0003d580       ??$Process@V?$unique_ptr@VGiftBox@@U?$default_delete@VGiftBox@@@std@@@std@@@PhobosStreamReader@@QAEAAV0@AAV?$unique_ptr@VGiftBox@@U?$default_delete@VGiftBox@@@std@@@std@@_N@Z 1003e580 f i Body.obj
 0001:0003d690       ??$Process@V?$vector@HV?$allocator@H@std@@@std@@@PhobosStreamWriter@@QAEAAV0@AAV?$vector@HV?$allocator@H@std@@@std@@_N@Z 1003e690 f i Body.obj
 0001:0003d710       ??$RestoreObject@VPaintBall@@@Savegame@@YGPAVPaintBall@@AAVPhobosStreamReader@@_N@Z 1003e710 f i Body.obj
 0001:0003d890       ??$Serialize@VPhobosStreamReader@@@DelayFireWeapon@@AAE_NAAVPhobosStreamReader@@@Z 1003e890 f i Body.obj
 0001:0003d990       ??$Serialize@VPhobosStreamReader@@@ExtData@TechnoExt@@AAEXAAVPhobosStreamReader@@@Z 1003e990 f i Body.obj
 0001:0003dff0       ??$Serialize@VPhobosStreamReader@@@SimulateBurst@@AAE_NAAVPhobosStreamReader@@@Z 1003eff0 f i Body.obj
 0001:0003e170       ??$Serialize@VPhobosStreamWriter@@@ExtData@TechnoExt@@AAEXAAVPhobosStreamWriter@@@Z 1003f170 f i Body.obj
 0001:0003e770       ??$Serialize@VPhobosStreamWriter@@@FireWeaponManager@@QAEXAAVPhobosStreamWriter@@@Z 1003f770 f i Body.obj
 0001:0003e8e0       ??$_Assign_range@PAV?$DynamicVectorClass@UCoordStruct@@@@@?$vector@V?$DynamicVectorClass@UCoordStruct@@@@V?$allocator@V?$DynamicVectorClass@UCoordStruct@@@@@std@@@std@@AAEXPAV?$DynamicVectorClass@UCoordStruct@@@@0Uforward_iterator_tag@1@@Z 1003f8e0 f i Body.obj
 0001:0003eac0       ??$_Copy_unchecked@PAV?$DynamicVectorClass@UCoordStruct@@@@PAV1@@std@@YGPAV?$DynamicVectorClass@UCoordStruct@@@@PAV1@00@Z 1003fac0 f i Body.obj
 0001:0003eb80       ??$_Resize_reallocate@U_Value_init_tag@std@@@?$vector@U?$pair@PAVWeaponTypeClass@@VTimerStruct@@@std@@V?$allocator@U?$pair@PAVWeaponTypeClass@@VTimerStruct@@@std@@@2@@std@@AAEXIABU_Value_init_tag@1@@Z 1003fb80 f i Body.obj
 0001:0003ed10       ??$_Resize_reallocate@U_Value_init_tag@std@@@?$vector@UDelayFireWeapon@@V?$allocator@UDelayFireWeapon@@@std@@@std@@AAEXIABU_Value_init_tag@1@@Z 1003fd10 f i Body.obj
 0001:0003ee20       ??$_Resize_reallocate@U_Value_init_tag@std@@@?$vector@USimulateBurst@@V?$allocator@USimulateBurst@@@std@@@std@@AAEXIABU_Value_init_tag@1@@Z 1003fe20 f i Body.obj
 0001:0003ef30       ??$_Uninitialized_move@PAUDelayFireWeapon@@V?$allocator@UDelayFireWeapon@@@std@@@std@@YGPAUDelayFireWeapon@@QAU1@0PAU1@AAV?$allocator@UDelayFireWeapon@@@0@@Z 1003ff30 f i Body.obj
 0001:0003ef70       ??$_Uninitialized_move@PAUSimulateBurst@@V?$allocator@USimulateBurst@@@std@@@std@@YGPAUSimulateBurst@@QAU1@0PAU1@AAV?$allocator@USimulateBurst@@@0@@Z 1003ff70 f i Body.obj
 0001:0003efb0       ??$_Uninitialized_value_construct_n@V?$allocator@U?$pair@PAVWeaponTypeClass@@VTimerStruct@@@std@@@std@@@std@@YGPAU?$pair@PAVWeaponTypeClass@@VTimerStruct@@@0@PAU10@IAAV?$allocator@U?$pair@PAVWeaponTypeClass@@VTimerStruct@@@std@@@0@@Z 1003ffb0 f i Body.obj
 0001:0003eff0       ??$_Uninitialized_value_construct_n@V?$allocator@UDelayFireWeapon@@@std@@@std@@YGPAUDelayFireWeapon@@PAU1@IAAV?$allocator@UDelayFireWeapon@@@0@@Z 1003fff0 f i Body.obj
 0001:0003f060       ??$_Uninitialized_value_construct_n@V?$allocator@USimulateBurst@@@std@@@std@@YGPAUSimulateBurst@@PAU1@IAAV?$allocator@USimulateBurst@@@0@@Z 10040060 f i Body.obj
 0001:0003f090       ??$clamp@H@std@@YGABHABH00@Z 10040090 f i Body.obj
 0001:0003f270       ??$read_from_stream@V?$PhobosMap@PAVWeaponTypeClass@@VTimerStruct@@@@@Selector@detail@Savegame@@CG_NAAVPhobosStreamReader@@AAV?$PhobosMap@PAVWeaponTypeClass@@VTimerStruct@@@@_NUDummy@012@H@Z 10040270 f i Body.obj
 0001:0003f3a0       ??0?$DynamicVectorClass@UCoordStruct@@@@QAE@ABV0@@Z 100403a0 f i Body.obj
 0001:0003f460       ??0ExtData@TechnoExt@@QAE@PAVTechnoClass@@@Z 10040460 f i Body.obj
 0001:0003f640       ??0Matrix3D@@QAE@ABV0@@Z   10040640 f i Body.obj
 0001:0003f660       ??0SimulateBurst@@QAE@XZ   10040660 f i Body.obj
 0001:0003f710       ??1?$vector@UDelayFireWeapon@@V?$allocator@UDelayFireWeapon@@@std@@@std@@QAE@XZ 10040710 f i Body.obj
 0001:0003f780       ??1?$vector@USimulateBurst@@V?$allocator@USimulateBurst@@@std@@@std@@QAE@XZ 10040780 f i Body.obj
 0001:0003f7f0       ??1ExtContainer@TechnoExt@@UAE@XZ 100407f0 f   Body.obj
 0001:0003f850       ??1ExtData@TechnoExt@@UAE@XZ 10040850 f i Body.obj
 0001:0003fa10       ??_EExtContainer@TechnoExt@@UAEPAXI@Z 10040a10 f i Body.obj
 0001:0003fa10       ??_GExtContainer@TechnoExt@@UAEPAXI@Z 10040a10 f i Body.obj
 0001:0003fa40       ??_EExtData@TechnoExt@@UAEPAXI@Z 10040a40 f i Body.obj
 0001:0003fa40       ??_GExtData@TechnoExt@@UAEPAXI@Z 10040a40 f i Body.obj
 0001:0003fa70       ??_EExtData@TiberiumExt@@UAEPAXI@Z 10040a70 f i Body.obj
 0001:0003fa70       ??_EPaintBall@@UAEPAXI@Z   10040a70 f i Body.obj
 0001:0003fa70       ??_GExtData@TiberiumExt@@UAEPAXI@Z 10040a70 f i Body.obj
 0001:0003fa70       ??_GPaintBall@@UAEPAXI@Z   10040a70 f i Body.obj
 0001:0003fa90       ??_EShieldClass@@UAEPAXI@Z 10040a90 f i Body.obj
 0001:0003fa90       ??_GShieldClass@@UAEPAXI@Z 10040a90 f i Body.obj
 0001:0003fac0       ?Absorber@BuildingClass@@QBE_NXZ 10040ac0 f i Body.obj
 0001:0003fae0       ?ApplyGainedSelfHeal@TechnoExt@@SGXPAVTechnoClass@@@Z 10040ae0 f   Body.obj
 0001:0003fd10       ?ApplyInterceptor@TechnoExt@@SGXPAVTechnoClass@@@Z 10040d10 f   Body.obj
 0001:0003fdd0       ?ApplyMindControlRangeLimit@TechnoExt@@SGXPAVTechnoClass@@@Z 10040dd0 f   Body.obj
 0001:0003fe20       ?ApplySpawn_LimitRange@TechnoExt@@SGXPAVTechnoClass@@@Z 10040e20 f   Body.obj
 0001:0003ffb0       ?CanFireNoAmmoWeapon@TechnoExt@@SG_NPAVTechnoClass@@H@Z 10040fb0 f   Body.obj
 0001:00040020       ?CheckDeathConditions@ExtData@TechnoExt@@QAEXXZ 10041020 f   Body.obj
 0001:00040130       ?CoordsToScreen@TacticalClass@@QAEPAVPoint2D@@PAV2@PAUCoordStruct@@@Z 10041130 f i Body.obj
 0001:00040150       ?Disable@PaintBall@@UAEXPAVWarheadTypeClass@@@Z 10041150 f i Body.obj
 0001:00040170       ?Disable@PaintBall@@UAEX_N@Z 10041170 f i Body.obj
 0001:000401d0       ?DisplayDamageNumberString@TechnoExt@@SGXPAVTechnoClass@@H_N@Z 100411d0 f   Body.obj
 0001:00040440       ?DrawInsignia@TechnoExt@@SGXPAVTechnoClass@@PAVPoint2D@@PAURectangleStruct@@@Z 10041440 f   Body.obj
 0001:00040680       ?DrawSelectBrd@TechnoExt@@SGXPAVTechnoClass@@PAVExtData@TechnoTypeExt@@HPAVPoint2D@@PAURectangleStruct@@_N4@Z 10041680 f   Body.obj
 0001:000408e0       ?DrawSelfHealPips@TechnoExt@@SGXPAVTechnoClass@@PAVPoint2D@@PAURectangleStruct@@@Z 100418e0 f   Body.obj
 0001:00040c00       ?EatPassengers@ExtData@TechnoExt@@QAEXXZ 10041c00 f   Body.obj
 0001:000410d0       ?ExitedOpenTopped@TechnoClass@@QAEXPAV1@@Z 100420d0 f i Body.obj
 0001:000410f0       ?FindOrAllocate@?$Container@VTechnoExt@@@@QAEPAVExtData@TechnoExt@@PAVTechnoClass@@@Z 100420f0 f i Body.obj
 0001:00041230       ?FireWeaponAtSelf@TechnoExt@@SGXPAVTechnoClass@@PAVWeaponTypeClass@@@Z 10042230 f   Body.obj
 0001:00041250       ?FreeUnit@CaptureManagerClass@@QBE_NPAVTechnoClass@@@Z 10042250 f i Body.obj
 0001:00041270       ?GetBurstFLH@TechnoExt@@SG?AU?$pair@_NUCoordStruct@@@std@@PAVTechnoClass@@H@Z 10042270 f   Body.obj
 0001:00041530       ?GetCurrentSpeedMultiplier@TechnoExt@@SGNPAVFootClass@@@Z 10042530 f   Body.obj
 0001:000415d0       ?GetDamageMult@TechnoExt@@SGNPAVTechnoClass@@_N@Z 100425d0 f   Body.obj
 0001:00041690       ?GetExtData@TechnoExt@@SGPAVExtData@1@PAVTechnoClass@@@Z 10042690 f   Body.obj
 0001:000416a0       ?GetFLHAbsoluteCoords@TechnoExt@@SG?AUCoordStruct@@PAVTechnoClass@@ABU2@_N1@Z 100426a0 f   Body.obj
 0001:000418b0       ?GetInfantryFLH@TechnoExt@@SG?AU?$pair@_NUCoordStruct@@@std@@PAVInfantryClass@@H@Z 100428b0 f   Body.obj
 0001:00041a60       ?GetTotalSize@PassengersClass@@QBEHXZ 10042a60 f i Body.obj
 0001:00041a80       ?HandleRemove@TechnoExt@@SGXPAVTechnoClass@@@Z 10042a80 f   Body.obj
 0001:00041b50       ?HasAbility@TechnoClass@@QBE_NW4AbilityType@@@Z 10042b50 f i Body.obj
 0001:00041b70       ?InitializeConstants@ExtData@TechnoExt@@UAEXXZ 10042b70 f   Body.obj
 0001:00041bb0       ?InitializeLaserTrail@TechnoExt@@SGXPAVTechnoClass@@_N@Z 10042bb0 f   Body.obj
 0001:00041e00       ?InvalidatePointer@ExtData@TechnoExt@@UAEXPAX_N@Z 10042e00 f   Body.obj
 0001:00041e70       ?InvalidatePointer@FireWeaponManager@@QAEXPAX_N@Z 10042e70 f i Body.obj
 0001:00041fd0       ?IsActive@PaintBall@@UAE_NXZ 10042fd0 f i Body.obj
 0001:00042000       ?IsActive@TechnoExt@@SG_NPAVTechnoClass@@_N1111@Z 10043000 f   Body.obj
 0001:000420b0       ?IsAlive@TechnoExt@@SG_NPAVTechnoClass@@_N11@Z 100430b0 f   Body.obj
 0001:00042130       ?IsGreenHP@ObjectClass@@QBE_NXZ 10043130 f i Body.obj
 0001:00042150       ?IsHarvesting@TechnoExt@@SG_NPAVTechnoClass@@@Z 10043150 f   Body.obj
 0001:00042280       ?IsMindControlled@TechnoClass@@QBE_NXZ 10043280 f i Body.obj
 0001:000422a0       ?IsPlayerObserver@HouseClass@@SG_NXZ 100432a0 f i Body.obj
 0001:000422c0       ?IsRedHP@ObjectClass@@QBE_NXZ 100432c0 f i Body.obj
 0001:000422e0       ?IsYellowHP@ObjectClass@@QBE_NXZ 100432e0 f i Body.obj
 0001:00042300       ?KillCargo@TechnoClass@@QBEXPAV1@@Z 10043300 f i Body.obj
 0001:00042320       ?KillOccupants@BuildingClass@@QAEXPAVTechnoClass@@@Z 10043320 f i Body.obj
 0001:00042340       ?KillSelf@TechnoExt@@SGXPAVTechnoClass@@ABW4KillMethod@@_N@Z 10043340 f   Body.obj
 0001:00042470       ?Load@?$Container@VTechnoExt@@@@MAE_NPAVTechnoClass@@PAUIStream@@@Z 10043470 f i Body.obj
 0001:000425a0       ?LoadFromStream@ExtData@TechnoExt@@UAEXAAVPhobosStreamReader@@@Z 100435a0 f   Body.obj
 0001:000425d0       ?LoseTarget@BulletClass@@QBEXXZ 100435d0 f i Body.obj
 0001:000425f0       ?MakeIdentity@Matrix3D@@QBEXXZ 100435f0 f i Body.obj
 0001:00042610       ?MatrixMultiply@Matrix3D@@SIPAV?$Vector3D@M@@PAV2@PBV1@PBV2@@Z 10043610 f i Body.obj
 0001:00042630       ?ObjectKilledBy@TechnoExt@@SGXPAVTechnoClass@@0@Z 10043630 f   Body.obj
 0001:000426f0       ?OnPut@ShieldClass@@UAEXUCoordStruct@@F@Z 100436f0 f i Body.obj
 0001:00042700       ?PlayAnim@TechnoExt@@SGXQAVAnimTypeClass@@PAVTechnoClass@@@Z 10043700 f   Body.obj
 0001:00042760       ?ReadFromStream@?$PhobosStreamObject@V?$vector@UDelayFireWeapon@@V?$allocator@UDelayFireWeapon@@@std@@@std@@@Savegame@@QBE_NAAVPhobosStreamReader@@AAV?$vector@UDelayFireWeapon@@V?$allocator@UDelayFireWeapon@@@std@@@std@@_N@Z 10043760 f i Body.obj
 0001:000428b0       ?ReadFromStream@?$PhobosStreamObject@V?$vector@USimulateBurst@@V?$allocator@USimulateBurst@@@std@@@std@@@Savegame@@QBE_NAAVPhobosStreamReader@@AAV?$vector@USimulateBurst@@V?$allocator@USimulateBurst@@@std@@@std@@_N@Z 100438b0 f i Body.obj
 0001:000429e0       ?RemoveFromTargetingAndTeam@TechnoClass@@QBEXXZ 100439e0 f i Body.obj
 0001:00042a00       ?RemoveTracking@HouseClass@@QAEXPAVTechnoClass@@@Z 10043a00 f i Body.obj
 0001:00042a20       ?ResetTarget@SpawnManagerClass@@QAEXXZ 10043a20 f i Body.obj
 0001:00042a40       ?RotateZ@Matrix3D@@QBEXM@Z 10043a40 f i Body.obj
 0001:00042a60       ?RunFireSelf@ExtData@TechnoExt@@QAEXXZ 10043a60 f   Body.obj
 0001:00042ca0       ?Save@?$Container@VTechnoExt@@@@MAE_NPAVTechnoClass@@PAUIStream@@@Z 10043ca0 f i Body.obj
 0001:00042db0       ?SaveToStream@ExtData@TechnoExt@@UAEXAAVPhobosStreamWriter@@@Z 10043db0 f   Body.obj
 0001:00042de0       ?SetFocus@TechnoClass@@QAEXPAVAbstractClass@@@Z 10043de0 f i Body.obj
 0001:00042e00       ?SyncIronCurtainStatus@TechnoExt@@SGXPAVTechnoClass@@0@Z 10043e00 f   Body.obj
 0001:00042eb0       ?TakeMoney@HouseClass@@QAEXH@Z 10043eb0 f i Body.obj
 0001:00042ed0       ?ToggleDamagedAnims@BuildingClass@@QAEX_N@Z 10043ed0 f i Body.obj
 0001:00042ef0       ?Uninitialize@ExtData@TechnoExt@@UAEXXZ 10043ef0 f i Body.obj
 0001:00042f10       ?UpdateMindControlAnim@ExtData@TechnoExt@@QAEXXZ 10043f10 f   Body.obj
 0001:00043060       ?UpdateSharedAmmo@TechnoExt@@SGXPAVTechnoClass@@@Z 10044060 f   Body.obj
 0001:00043140       ?_Buy_raw@?$vector@V?$DynamicVectorClass@UCoordStruct@@@@V?$allocator@V?$DynamicVectorClass@UCoordStruct@@@@@std@@@std@@AAEXI@Z 10044140 f i Body.obj
 0001:000431d0       ?_Change_array@?$vector@UDelayFireWeapon@@V?$allocator@UDelayFireWeapon@@@std@@@std@@AAEXQAUDelayFireWeapon@@II@Z 100441d0 f i Body.obj
 0001:00043250       ?_Change_array@?$vector@USimulateBurst@@V?$allocator@USimulateBurst@@@std@@@std@@AAEXQAUSimulateBurst@@II@Z 10044250 f i Body.obj
 0001:000432c0       ?_Reallocate_exactly@?$vector@UDelayFireWeapon@@V?$allocator@UDelayFireWeapon@@@std@@@std@@AAEXI@Z 100442c0 f i Body.obj
 0001:00043360       ?_Reallocate_exactly@?$vector@USimulateBurst@@V?$allocator@USimulateBurst@@@std@@@std@@AAEXI@Z 10044360 f i Body.obj
 0001:00043400       ?allocate@?$allocator@UDelayFireWeapon@@@std@@QAEPAUDelayFireWeapon@@I@Z 10044400 f i Body.obj
 0001:00043460       ?allocate@?$allocator@USimulateBurst@@@std@@QAEPAUSimulateBurst@@I@Z 10044460 f i Body.obj
 0001:000434c0       ?arctanfoo@Math@@YANNN@Z   100444c0 f i Body.obj
 0001:000434c0       ?atan2@Math@@YANNN@Z       100444c0 f i CustomWeapon.obj
 0001:000434d0       ?deallocate@?$allocator@U?$pair@PAVWeaponTypeClass@@VTimerStruct@@@std@@@std@@QAEXQAU?$pair@PAVWeaponTypeClass@@VTimerStruct@@@2@I@Z 100444d0 f i Body.obj
 0001:00043510       ?deallocate@?$allocator@UDelayFireWeapon@@@std@@QAEXQAUDelayFireWeapon@@I@Z 10044510 f i Body.obj
 0001:00043510       ?deallocate@?$allocator@ULineDrawDataStruct@@@std@@QAEXQAULineDrawDataStruct@@I@Z 10044510 f i ElectricBoltClass.obj
 0001:00043550       ?deallocate@?$allocator@USimulateBurst@@@std@@QAEXQAUSimulateBurst@@I@Z 10044550 f i Body.obj
 0001:00043590       ?load@?$OptionalStruct@VPaintballType@@$00@@AAE_NAAVPhobosStreamReader@@_NU?$integral_constant@_N$00@std@@@Z 10044590 f i Body.obj
 0001:00043690       _TechnoClass_CTOR          10044690 f   Body.obj
 0001:000436b0       _TechnoClass_DTOR          100446b0 f   Body.obj
 0001:00043740       _TechnoClass_Detach        10044740 f   Body.obj
 0001:000437e0       _TechnoClass_Load_Suffix   100447e0 f   Body.obj
 0001:00043870       _TechnoClass_SaveLoad_Prefix 10044870 f   Body.obj
 0001:000438b0       _TechnoClass_Save_Suffix   100448b0 f   Body.obj
 0001:00043930       ?CountDockedSpawns@SpawnManagerClass@@QBEHXZ 10044930 f i Hooks.obj
 0001:000439b0       ?IronCurtain@FootClass@@UAE?AW4DamageState@@HPAVHouseClass@@_N@Z 100449b0 f i Hooks.obj
 0001:000439d0       ?PlayIndex@VoxClass@@SIXHHH@Z 100449d0 f i Hooks.obj
 0001:000439f0       _AircraftClass_Init_InitialStrength 100449f0 f   Hooks.obj
 0001:000439f0       _UnitClass_Init_InitialStrength 100449f0 f   Hooks.obj
 0001:00043a30       _BuildingClass_ExitObject_InitialClonedHealth 10044a30 f   Hooks.obj
 0001:00043b50       _BuildingClass_Init_InitialStrength 10044b50 f   Hooks.obj
 0001:00043b90       _BuildingClass_Mission_Deconstruction_Sellsound 10044b90 f   Hooks.obj
 0001:00043be0       _BuildingClass_Mission_Destruction_EVA_Sold 10044be0 f   Hooks.obj
 0001:00043c60       _FootClass_Sell_Sellsound  10044c60 f   Hooks.obj
 0001:00043ce0       _InfantryClass_DoingAI_DeadBodies 10044ce0 f   Hooks.obj
 0001:00043db0       _InfantryClass_Init_InitialStrength 10044db0 f   Hooks.obj
 0001:00043e00       _InfantryClass_TakeDamage_NotHuman 10044e00 f   Hooks.obj
 0001:00043f60       _JumpjetLocomotionClass_Process_TurnToTarget 10044f60 f   Hooks.obj
 0001:00044130       _ObjectClass_Unlimbo_LaserTrails 10045130 f   Hooks.obj
 0001:00044190       _SlaveManagerClass_Killed_DecideOwner 10045190 f   Hooks.obj
 0001:00044230       _SpawnManagerClass_AI_SpawnTimer 10045230 f   Hooks.obj
 0001:00044270       _SpawnManagerClass_AI_UpdateTimer 10045270 f   Hooks.obj
 0001:000442e0       _TechnoClass_AI_SelfHealGain 100452e0 f   Hooks.obj
 0001:00044300       _TechnoClass_DrawExtras_Insignia 10045300 f   Hooks.obj
 0001:00044340       _TechnoClass_Draw_Pips_SelfHealGain 10045340 f   Hooks.obj
 0001:00044390       _TechnoClass_EnterTransport_LaserTrails 10045390 f   Hooks.obj
 0001:000443f0       _TechnoClass_FireLaser_IsSingleColor 100453f0 f   Hooks.obj
 0001:00044420       _TechnoClass_GetMaxSpeed   10045420 f   Hooks.obj
 0001:000444c0       _TechnoClass_GetTurretWeapon_LaserWeapon 100454c0 f   Hooks.obj
 0001:00044520       _TechnoClass_Init_NewEntities 10045520 f   Hooks.obj
 0001:00044530       _TechnoClass_IsCloseEnoughToTarget_OpenTopped_RangeBonus 10045530 f   Hooks.obj
 0001:00044590       _TechnoClass_Rearm_Delay_BurstDelays 10045590 f   Hooks.obj
 0001:00044600       _TechnoClass_ReceiveDamage_Decloak 10045600 f   Hooks.obj
 0001:00044640       _TechnoClass_ReceiveDamage_FlyingStrings 10045640 f   Hooks.obj
 0001:00044670       _TechnoClass_Reload_ReloadAmount 10045670 f   Hooks.obj
 0001:00044680       _TechnoClass_Save_Killer_Techno 10045680 f   Hooks.obj
 0001:000446a0       _TechnoClass_TargetSomethingNearby_AutoFire 100456a0 f   Hooks.obj
 0001:00044710       _TechnoClass_Transform_6F3AD0_BurstFLH_1 10045710 f   Hooks.obj
 0001:000447a0       _TechnoClass_Transform_6F3AD0_BurstFLH_2 100457a0 f   Hooks.obj
 0001:000447e0       _TemporalClass_AI_Opentopped_WarpDistance 100457e0 f   Hooks.obj
 0001:00044840       _UnitClass_SimpleDeployer_TransferLaserTrails 10045840 f   Hooks.obj
 0001:00044860       ?HealthRatio_Wrapper@@YINPAVTechnoClass@@PAX@Z 10045860 f   Hooks.Shield.obj
 0001:000448b0       ?InfantryClass__GetFireError@@YI?AW4FireError@@PAVInfantryClass@@PAXPAVObjectClass@@H_N@Z 100458b0 f   Hooks.Shield.obj
 0001:000448d0       ?InfantryClass__GetFireError_Wrapper@@YI?AW4FireError@@PAVInfantryClass@@PAXPAVObjectClass@@H_N@Z 100458d0 f   Hooks.Shield.obj
 0001:00044960       ?InfantryClass__WhatAction@@YI?AW4Action@@PAVInfantryClass@@PAXPAVObjectClass@@_N@Z 10045960 f   Hooks.Shield.obj
 0001:00044980       ?InfantryClass__WhatAction_Wrapper@@YI?AW4Action@@PAVInfantryClass@@PAXPAVObjectClass@@_N@Z 10045980 f   Hooks.Shield.obj
 0001:00044a00       ?RaiseEvent@TagClass@@QAE_NW4TriggerEvent@@PAVObjectClass@@VCellStruct@@_NPAVAbstractClass@@@Z 10045a00 f i Hooks.Shield.obj
 0001:00044a20       ?UnitClass__GetFireError@@YI?AW4FireError@@PAVUnitClass@@PAXPAVObjectClass@@H_N@Z 10045a20 f   Hooks.Shield.obj
 0001:00044a40       ?UnitClass__GetFireError_Wrapper@@YI?AW4FireError@@PAVUnitClass@@PAXPAVObjectClass@@H_N@Z 10045a40 f   Hooks.Shield.obj
 0001:00044ad0       ?UnitClass__WhatAction@@YI?AW4Action@@PAVUnitClass@@PAXPAVObjectClass@@_N@Z 10045ad0 f   Hooks.Shield.obj
 0001:00044af0       ?UnitClass__WhatAction_Wrapper@@YI?AW4Action@@PAVUnitClass@@PAXPAVObjectClass@@_N@Z 10045af0 f   Hooks.Shield.obj
 0001:00044b70       _DeploysInto_UndeploysInto_SyncShieldStatus 10045b70 f   Hooks.Shield.obj
 0001:00044b90       _TechnoClass_AI_Shield     10045b90 f   Hooks.Shield.obj
 0001:00044c80       _TechnoClass_CanAutoTargetObject_Shield 10045c80 f   Hooks.Shield.obj
 0001:00044ce0       _TechnoClass_CanFire_Shield 10045ce0 f   Hooks.Shield.obj
 0001:00044d40       _TechnoClass_EvalThreatRating_Shield 10045d40 f   Hooks.Shield.obj
 0001:00044da0       _TechnoClass_ReceiveDamage_Shield 10045da0 f   Hooks.Shield.obj
 0001:00044e10       _TechnoClass_ReceiveDamage_SkipLowDamageCheck 10045e10 f   Hooks.Shield.obj
 0001:00044e50       _TechnoClass_Remove_Shield 10045e50 f   Hooks.Shield.obj
 0001:00044e70       _TechnoClass_ShouldRetaliate_Shield 10045e70 f   Hooks.Shield.obj
 0001:00044ed0       _TemporalClass_AI_Shield   10045ed0 f   Hooks.Shield.obj
 0001:00044f20       ?IsKeyPressed@InputManagerClass@@QBE_NH@Z 10045f20 f i Hooks.Grinding.obj
 0001:00044f40       _BuildingClass_ReceiveMessage_Grinding 10045f40 f   Hooks.Grinding.obj
 0001:00045080       _FootClass_Mission_Eaten_Grinding 10046080 f   Hooks.Grinding.obj
 0001:000450e0       _FootClass_Try_Grinding_CheckIfAllowed 100460e0 f   Hooks.Grinding.obj
 0001:00045100       _InfantryClass_PerCellProcess_Grinding 10046100 f   Hooks.Grinding.obj
 0001:00045120       _InfantryClass_WhatAction_Grinding 10046120 f   Hooks.Grinding.obj
 0001:000451f0       _InfantryClass_WhatAction_Grinding_Engineer 100461f0 f   Hooks.Grinding.obj
 0001:00045240       _UnitClass_PerCellProcess_Grinding 10046240 f   Hooks.Grinding.obj
 0001:00045260       _UnitClass_WhatAction_Grinding 10046260 f   Hooks.Grinding.obj
 0001:000453e0       ?GetOriginalOwner@TechnoClass@@QAEPAVHouseClass@@XZ 100463e0 f i Hooks.VehicleToBuildingMCFix.obj
 0001:00045400       ?TransferMindControlOnDeploy@TechnoExt@@SGXPAVTechnoClass@@0@Z 10046400 f   Hooks.VehicleToBuildingMCFix.obj
 0001:000454c0       _BuildingClass_Captured_MuteSound 100464c0 f   Hooks.VehicleToBuildingMCFix.obj
 0001:000454e0       _BuildingClass_Mi_Selling_CreateUnit 100464e0 f   Hooks.VehicleToBuildingMCFix.obj
 0001:00045500       _BuildingClass_Mi_Selling_TransferMindControl 10046500 f   Hooks.VehicleToBuildingMCFix.obj
 0001:00045530       _UnitClass_Deploy_CreateBuilding 10046530 f   Hooks.VehicleToBuildingMCFix.obj
 0001:00045550       _UnitClass_Deploy_TransferMindControl 10046550 f   Hooks.VehicleToBuildingMCFix.obj
 0001:00045570       ??1ExtContainer@TemporalExt@@UAE@XZ 10046570 f   Body.obj
 0001:000455d0       ??_EExtContainer@TemporalExt@@UAEPAXI@Z 100465d0 f i Body.obj
 0001:000455d0       ??_GExtContainer@TemporalExt@@UAEPAXI@Z 100465d0 f i Body.obj
 0001:00045600       ?FindOrAllocate@?$Container@VTemporalExt@@@@QAEPAVExtData@TemporalExt@@PAVTemporalClass@@@Z 10046600 f i Body.obj
 0001:00045740       ?Load@?$Container@VTemporalExt@@@@MAE_NPAVTemporalClass@@PAUIStream@@@Z 10046740 f i Body.obj
 0001:00045870       ?LoadFromStream@ExtData@TemporalExt@@UAEXAAVPhobosStreamReader@@@Z 10046870 f   Body.obj
 0001:000458a0       ?Save@?$Container@VTemporalExt@@@@MAE_NPAVTemporalClass@@PAUIStream@@@Z 100468a0 f i Body.obj
 0001:000459b0       ?SaveToStream@ExtData@TemporalExt@@UAEXAAVPhobosStreamWriter@@@Z 100469b0 f   Body.obj
 0001:000459d0       _TemporalClass_CTOR        100469d0 f   Body.obj
 0001:000459f0       _TemporalClass_Load_Suffix 100469f0 f   Body.obj
 0001:00045a80       _TemporalClass_SDDTOR      10046a80 f   Body.obj
 0001:00045b00       _TemporalClass_SaveLoad_Prefix 10046b00 f   Body.obj
 0001:00045b40       _TemporalClass_Save_Suffix 10046b40 f   Body.obj
 0001:00045bc0       ?GetInfantry@CellClass@@QBEPAVInfantryClass@@_N@Z 10046bc0 f i Hooks.Passable.obj
 0001:00045be0       ?GetTerrain@CellClass@@QBEPAVTerrainClass@@_N@Z 10046be0 f i Hooks.Passable.obj
 0001:00045c00       ?RemoveContent@CellClass@@QBEXPAVObjectClass@@_N@Z 10046c00 f i Hooks.Passable.obj
 0001:00045c20       _CellClass_CheckPassability_PassableTerrain 10046c20 f   Hooks.Passable.obj
 0001:00045c70       _CellClass_IsClearTo_Build_BuildableTerrain 10046c70 f   Hooks.Passable.obj
 0001:00045cd0       _CellClass_IsClearTo_Build_BuildableTerrain_LF 10046cd0 f   Hooks.Passable.obj
 0001:00045d40       _MapClass_PlaceDown_0x0TerrainTypes 10046d40 f   Hooks.Passable.obj
 0001:00045d80       _MapClass_PlaceDown_BuildableTerrain 10046d80 f   Hooks.Passable.obj
 0001:00045de0       _TacticalClass_DrawLaserFencePlacement_BuildableTerrain 10046de0 f   Hooks.Passable.obj
 0001:00045e20       _TechnoClass_WhatAction_PassableTerrain 10046e20 f   Hooks.Passable.obj
 0001:00045eb0       _TerrainClass_SetOccupyBit_PassableTerrain 10046eb0 f   Hooks.Passable.obj
 0001:00045ee0       _UnitClass_CanEnterCell_PassableTerrain 10046ee0 f   Hooks.Passable.obj
 0001:00045f80       ??$Serialize@VPhobosStreamReader@@@ExtData@TerrainTypeExt@@AAEXAAVPhobosStreamReader@@@Z 10046f80 f i Body.obj
 0001:000462b0       ??$Serialize@VPhobosStreamWriter@@@ExtData@TerrainTypeExt@@AAEXAAVPhobosStreamWriter@@@Z 100472b0 f i Body.obj
 0001:00046450       ??0ExtData@TerrainTypeExt@@QAE@PAVTerrainTypeClass@@@Z 10047450 f i Body.obj
 0001:00046550       ??0WarheadTypeClass@@QAE@PBD@Z 10047550 f i Body.obj
 0001:000465b0       ??1ExtContainer@TerrainTypeExt@@UAE@XZ 100475b0 f   Body.obj
 0001:00046610       ??_EExtContainer@TerrainTypeExt@@UAEPAXI@Z 10047610 f i Body.obj
 0001:00046610       ??_GExtContainer@TerrainTypeExt@@UAEPAXI@Z 10047610 f i Body.obj
 0001:00046640       ??_EExtData@TerrainTypeExt@@UAEPAXI@Z 10047640 f i Body.obj
 0001:00046640       ??_GExtData@TerrainTypeExt@@UAEPAXI@Z 10047640 f i Body.obj
 0001:000466f0       ?Find@WarheadTypeClass@@SIPAV1@PBD@Z 100476f0 f i Body.obj
 0001:00046730       ?FindOrAllocate@WarheadTypeClass@@SIPAV1@PBD@Z 10047730 f i Body.obj
 0001:00046790       ?GetCellsPerAnim@ExtData@TerrainTypeExt@@QAEHXZ 10047790 f   Body.obj
 0001:000467b0       ?GetTiberiumGrowthStage@ExtData@TerrainTypeExt@@QAEHXZ 100477b0 f   Body.obj
 0001:000467d0       ?Load@?$Container@VTerrainTypeExt@@@@MAE_NPAVTerrainTypeClass@@PAUIStream@@@Z 100477d0 f i Body.obj
 0001:000467f0       ?LoadFromINIFile@ExtData@TerrainTypeExt@@UAEXPAVCCINIClass@@@Z 100477f0 f   Body.obj
 0001:000469c0       ?LoadFromStream@ExtData@TerrainTypeExt@@UAEXAAVPhobosStreamReader@@@Z 100479c0 f   Body.obj
 0001:000469f0       ?LoadKey@?$Container@VTerrainTypeExt@@@@IAEPAVExtData@TerrainTypeExt@@PAVTerrainTypeClass@@PAUIStream@@@Z 100479f0 f i Body.obj
 0001:00046b60       ?Read@?$Nullable@PAVWarheadTypeClass@@@@QAEXAAVINI_EX@@PBD1_N@Z 10047b60 f i Body.obj
 0001:00046c00       ?Read@?$Nullable@UColorStruct@@@@QAEXAAVINI_EX@@PBD1_N@Z 10047c00 f i Body.obj
 0001:00046db0       ?RegisterDirtyArea@TacticalClass@@QAEXURectangleStruct@@_N@Z 10047db0 f i Body.obj
 0001:00046dd0       ?Remove@TerrainTypeExt@@SGXPAVTerrainClass@@@Z 10047dd0 f   Body.obj
 0001:00046e80       ?Save@?$Container@VTerrainTypeExt@@@@MAE_NPAVTerrainTypeClass@@PAUIStream@@@Z 10047e80 f i Body.obj
 0001:00046f90       ?SaveToStream@ExtData@TerrainTypeExt@@UAEXAAVPhobosStreamWriter@@@Z 10047f90 f   Body.obj
 0001:00046fc0       ?Size@ExtData@TerrainTypeExt@@UBEIXZ 10047fc0 f i Body.obj
 0001:00046fc0       ?Size@ExtData@WeaponTypeExt@@UBEIXZ 10047fc0 f i Body.obj
 0001:00046fd0       _TerrainTypeClass_CTOR     10047fd0 f   Body.obj
 0001:000470d0       _TerrainTypeClass_LoadFromINI 100480d0 f   Body.obj
 0001:00047170       _TerrainTypeClass_Load_Suffix 10048170 f   Body.obj
 0001:00047200       _TerrainTypeClass_SDDTOR   10048200 f   Body.obj
 0001:00047320       _TerrainTypeClass_SaveLoad_Prefix 10048320 f   Body.obj
 0001:00047360       _TerrainTypeClass_Save_Suffix 10048360 f   Body.obj
 0001:000473e0       ?CanTiberiumGerminate@CellClass@@QBE_NPAVTiberiumClass@@@Z 100483e0 f i Hooks.obj
 0001:00047400       ?IncreaseTiberium@CellClass@@QBE_NHH@Z 10048400 f i Hooks.obj
 0001:00047420       ?IsValid@MapClass@@QBE_NABUCoordStruct@@@Z 10048420 f i Hooks.obj
 0001:00047440       ?SpreadTiberium@CellClass@@QBE_N_N@Z 10048440 f i Hooks.obj
 0001:00047460       _CellClass_CellColor_TerrainRadarColor 10048460 f   Hooks.obj
 0001:00047500       _CellClass_SpreadTiberium_CellSpread 10048500 f   Hooks.obj
 0001:00047660       _CellClass_SpreadTiberium_TiberiumType 10048660 f   Hooks.obj
 0001:00047680       _ObjectClass_Put_RegisterLogic_Terrain 10048680 f   Hooks.obj
 0001:000476d0       _TerraiClass_TakeDamage_IsTiberiumSpawn 100486d0 f   Hooks.obj
 0001:00047810       _TerrainClass_AI_Animated  10048810 f   Hooks.obj
 0001:00047940       ??1ExtContainer@TerrainExt@@UAE@XZ 10048940 f   Body.obj
 0001:000479a0       ??_EExtContainer@TerrainExt@@UAEPAXI@Z 100489a0 f i Body.obj
 0001:000479a0       ??_GExtContainer@TerrainExt@@UAEPAXI@Z 100489a0 f i Body.obj
 0001:000479d0       ??_EExtData@TerrainExt@@UAEPAXI@Z 100489d0 f i Body.obj
 0001:000479d0       ??_GExtData@TerrainExt@@UAEPAXI@Z 100489d0 f i Body.obj
 0001:00047a10       ?CleanUp@TerrainExt@@SGXPAVTerrainClass@@@Z 10048a10 f   Body.obj
 0001:00047a70       ?ClearLightSource@ExtData@TerrainExt@@QAEXXZ 10048a70 f   Body.obj
 0001:00047aa0       ?InitializeLightSource@ExtData@TerrainExt@@QAEXXZ 10048aa0 f   Body.obj
 0001:00047c20       ?InvalidateExtDataIgnorable@ExtContainer@TerrainExt@@UBE_NQAX@Z 10048c20 f i Body.obj
 0001:00047c40       ?InvalidatePointer@ExtData@TerrainExt@@UAEXPAX_N@Z 10048c40 f   Body.obj
 0001:00047c70       ?Load@?$Container@VTerrainExt@@@@MAE_NPAVTerrainClass@@PAUIStream@@@Z 10048c70 f i Body.obj
 0001:00047c90       ?LoadFromStream@ExtData@TerrainExt@@UAEXAAVPhobosStreamReader@@@Z 10048c90 f   Body.obj
 0001:00047d10       ?LoadKey@?$Container@VTerrainExt@@@@IAEPAVExtData@TerrainExt@@PAVTerrainClass@@PAUIStream@@@Z 10048d10 f i Body.obj
 0001:00047ee0       ?Save@?$Container@VTerrainExt@@@@MAE_NPAVTerrainClass@@PAUIStream@@@Z 10048ee0 f i Body.obj
 0001:00047ff0       ?SaveToStream@ExtData@TerrainExt@@UAEXAAVPhobosStreamWriter@@@Z 10048ff0 f   Body.obj
 0001:00048030       ?Size@ExtData@TerrainExt@@UBEIXZ 10049030 f i Body.obj
 0001:00048040       ?Unlimbo@TerrainExt@@SGXPAVTerrainClass@@@Z 10049040 f   Body.obj
 0001:00048150       _TerrainClass_CTOR         10049150 f   Body.obj
 0001:00048250       _TerrainClass_DTOR         10049250 f   Body.obj
 0001:00048300       _TerrainClass_Load_Suffix  10049300 f   Body.obj
 0001:00048390       _TerrainClass_SaveLoad_Prefix 10049390 f   Body.obj
 0001:000483d0       _TerrainClass_Save_Suffix  100493d0 f   Body.obj
 0001:00048450       _TerrainClass_Draw_CustomPal 10049450 f   Hooks.obj
 0001:00048480       _TerrainClass_Limbo_Light  10049480 f   Hooks.obj
 0001:000484a0       _TerrainClass_TakeDamage_Add 100494a0 f   Hooks.obj
 0001:00048550       _TerrainClass_TakeDamage_NowDead_Add_light 10049550 f   Hooks.obj
 0001:00048610       _TerrainClass_UnLImbo_Light 10049610 f   Hooks.obj
 0001:00048620       ??1ExtContainer@TEventExt@@UAE@XZ 10049620 f   Body.obj
 0001:00048680       ??_EExtContainer@TEventExt@@UAEPAXI@Z 10049680 f i Body.obj
 0001:00048680       ??_GExtContainer@TEventExt@@UAEPAXI@Z 10049680 f i Body.obj
 0001:000486b0       ?Execute@TEventExt@@SG_NPAVTEventClass@@HPAVHouseClass@@PAVObjectClass@@PAVTimerStruct@@PA_NPAVTechnoClass@@AA_N@Z 100496b0 f   Body.obj
 0001:00049090       ?Load@?$Container@VTEventExt@@@@MAE_NPAVTEventClass@@PAUIStream@@@Z 1004a090 f i Body.obj
 0001:000490b0       ?LoadKey@?$Container@VTEventExt@@@@IAEPAVExtData@TEventExt@@PAVTEventClass@@PAUIStream@@@Z 1004a0b0 f i Body.obj
 0001:000492d0       ?Save@?$Container@VTEventExt@@@@MAE_NPAVTEventClass@@PAUIStream@@@Z 1004a2d0 f i Body.obj
 0001:000493d0       ?GetStateB@TEventClass@@QBE_NXZ 1004a3d0 f i Hooks.obj
 0001:000493f0       _TEventClass_BuildINIEntry 1004a3f0 f   Hooks.obj
 0001:00049420       _TEventClass_Execute       1004a420 f   Hooks.obj
 0001:00049460       _TEventClass_GetFlags      1004a460 f   Hooks.obj
 0001:00049490       _TEventClass_Persistable   1004a490 f   Hooks.obj
 0001:000494c0       ?GetTiberiumType@OverlayClass@@SIHH@Z 1004a4c0 f i Hooks.obj
 0001:000494e0       _CellClass_CellColor_TiberiumRadarColor 1004a4e0 f   Hooks.obj
 0001:00049560       ??$Serialize@VPhobosStreamReader@@@ExtData@TiberiumExt@@AAEXAAVPhobosStreamReader@@@Z 1004a560 f i Body.obj
 0001:000496e0       ??1ExtContainer@TiberiumExt@@UAE@XZ 1004a6e0 f   Body.obj
 0001:00049740       ??_EExtContainer@TiberiumExt@@UAEPAXI@Z 1004a740 f i Body.obj
 0001:00049740       ??_GExtContainer@TiberiumExt@@UAEPAXI@Z 1004a740 f i Body.obj
 0001:00049770       ?GetExtData@TiberiumExt@@SGPAVExtData@1@PAVTiberiumClass@@@Z 1004a770 f   Body.obj
 0001:00049790       ?Load@?$Container@VTiberiumExt@@@@MAE_NPAVTiberiumClass@@PAUIStream@@@Z 1004a790 f i Body.obj
 0001:000497b0       ?LoadFromINIFile@ExtData@TiberiumExt@@UAEXPAVCCINIClass@@@Z 1004a7b0 f   Body.obj
 0001:00049830       ?LoadFromStream@ExtData@TiberiumExt@@UAEXAAVPhobosStreamReader@@@Z 1004a830 f   Body.obj
 0001:00049860       ?LoadKey@?$Container@VTiberiumExt@@@@IAEPAVExtData@TiberiumExt@@PAVTiberiumClass@@PAUIStream@@@Z 1004a860 f i Body.obj
 0001:00049a00       ?Save@?$Container@VTiberiumExt@@@@MAE_NPAVTiberiumClass@@PAUIStream@@@Z 1004aa00 f i Body.obj
 0001:00049b90       ?SaveToStream@ExtData@TiberiumExt@@UAEXAAVPhobosStreamWriter@@@Z 1004ab90 f   Body.obj
 0001:00049c40       _TiberiumClass_CTOR        1004ac40 f   Body.obj
 0001:00049d60       _TiberiumClass_DTOR        1004ad60 f   Body.obj
 0001:00049df0       _TiberiumClass_LoadFromINI 1004adf0 f   Body.obj
 0001:00049e90       _TiberiumClass_Load_Suffix 1004ae90 f   Body.obj
 0001:00049f20       _TiberiumClass_SaveLoad_Prefix 1004af20 f   Body.obj
 0001:00049f60       _TiberiumClass_Save_Suffix 1004af60 f   Body.obj
 0001:00049fe0       _TriggerTypeClass_HasGlobalSetOrClearedEvent 1004afe0 f   Hooks.obj
 0001:0004a030       _TriggerTypeClass_HasLocalSetOrClearedEvent 1004b030 f   Hooks.obj
 0001:0004a080       _UnitClass_Unload_Storage  1004b080 f   Hooks.obj
 0001:0004a0f0       _UnitClass_Active_Click_With_DisallowMoving 1004b0f0 f   Hooks.DisallowMoving.obj
 0001:0004a110       _UnitClass_Assign_Destination_DisallowMoving 1004b110 f   Hooks.DisallowMoving.obj
 0001:0004a130       _UnitClass_Mission_Move_DisallowMoving 1004b130 f   Hooks.DisallowMoving.obj
 0001:0004a150       _UnitClass_Rotation_AI_DisallowMoving 1004b150 f   Hooks.DisallowMoving.obj
 0001:0004a170       _UnitClass_Scatter_DisallowMoving 1004b170 f   Hooks.DisallowMoving.obj
 0001:0004a190       _UnitClass_What_Action_DisallowMoving_1 1004b190 f   Hooks.DisallowMoving.obj
 0001:0004a1b0       _UnitClass_What_Action_DisallowMoving_2 1004b1b0 f   Hooks.DisallowMoving.obj
 0001:0004a1f0       _UnitClass_What_Action_ObjectClass_DisallowMoving_1 1004b1f0 f   Hooks.DisallowMoving.obj
 0001:0004a210       _UnitClass_What_Action_ObjectClass_DisallowMoving_2 1004b210 f   Hooks.DisallowMoving.obj
 0001:0004a230       ??1?$pair@V?$vector@HV?$allocator@H@std@@@std@@V12@@std@@QAE@XZ 1004b230 f i Transact.obj
 0001:0004a2d0       ?TransactGetSourceAndTarget@ExtData@WarheadTypeExt@@AAE?AU?$pair@V?$vector@HV?$allocator@H@std@@@std@@V12@@std@@PAVTechnoClass@@PAVTechnoTypeClass@@01H@Z 1004b2d0 f   Transact.obj
 0001:0004a5c0       ?TransactGetValue@ExtData@WarheadTypeExt@@AAEHPAVTechnoClass@@0HN_N@Z 1004b5c0 f   Transact.obj
 0001:0004a690       ?TransactOnAllUnits@ExtData@WarheadTypeExt@@AAEXAAV?$vector@PAVTechnoClass@@V?$allocator@PAVTechnoClass@@@std@@@std@@PAVHouseClass@@PAVTechnoClass@@@Z 1004b690 f   Transact.obj
 0001:0004a820       ?TransactOnOneUnit@ExtData@WarheadTypeExt@@AAEXPAVTechnoClass@@0H@Z 1004b820 f   Transact.obj
 0001:0004ab20       ?TransactOneValue@ExtData@WarheadTypeExt@@AAEHPAVTechnoClass@@PAVTechnoTypeClass@@HW4TransactValueType@@@Z 1004bb20 f   Transact.obj
 0001:0004ac30       ??$_Erase_tree@V?$allocator@U?$_Tree_node@PAVTechnoClass@@PAX@std@@@std@@@?$_Tree_val@U?$_Tree_simple_types@PAVTechnoClass@@@std@@@std@@QAEXAAV?$allocator@U?$_Tree_node@PAVTechnoClass@@PAX@std@@@1@PAU?$_Tree_node@PAVTechnoClass@@PAX@1@@Z 1004bc30 f i Detonate.obj
 0001:0004ac70       ??$for_each@PAPAVTechnoClass@@V<lambda_1>@?M@??getCellSpreadItems@Alex@Helpers@@YG?AV?$vector@PAVTechnoClass@@V?$allocator@PAVTechnoClass@@@std@@@std@@ABUCoordStruct@@N_N@Z@@std@@YG?AV<lambda_1>@?M@??getCellSpreadItems@Alex@Helpers@@YG?AV?$vector@PAVTechnoClass@@V?$allocator@PAVTechnoClass@@@std@@@0@ABUCoordStruct@@N_N@Z@PAPAVTechnoClass@@2V1?M@??234@YG?AV50@0N1@Z@@Z 1004bc70 f i Detonate.obj
 0001:0004ad50       ??$for_each@V?$_Tree_const_iterator@V?$_Tree_val@U?$_Tree_simple_types@PAVTechnoClass@@@std@@@std@@@std@@V<lambda_2>@?1??getCellSpreadItems@Alex@Helpers@@YG?AV?$vector@PAVTechnoClass@@V?$allocator@PAVTechnoClass@@@std@@@2@ABUCoordStruct@@N_N@Z@@std@@YG?AV<lambda_2>@?1??getCellSpreadItems@Alex@Helpers@@YG?AV?$vector@PAVTechnoClass@@V?$allocator@PAVTechnoClass@@@std@@@0@ABUCoordStruct@@N_N@Z@V?$_Tree_const_iterator@V?$_Tree_val@U?$_Tree_simple_types@PAVTechnoClass@@@std@@@std@@@0@2V1?1??234@YG?AV50@0N1@Z@@Z 1004bd50 f i Detonate.obj
 0001:0004aed0       ??1?$_Tree@V?$_Tset_traits@PAVTechnoClass@@Uderef_less@Alex@Helpers@@V?$allocator@PAVTechnoClass@@@std@@$0A@@std@@@std@@QAE@XZ 1004bed0 f i Detonate.obj
 0001:0004af10       ??1?$unique_ptr@VShieldClass@@U?$default_delete@VShieldClass@@@std@@@std@@QAE@XZ 1004bf10 f i Detonate.obj
 0001:0004af40       ??1?$vector@PAVTechnoClass@@V?$allocator@PAVTechnoClass@@@std@@@std@@QAE@XZ 1004bf40 f i Detonate.obj
 0001:0004af40       ??1?$vector@PAVWeaponTypeClass@@V?$allocator@PAVWeaponTypeClass@@@std@@@std@@QAE@XZ 1004bf40 f i ExtraFirefunctional.obj
 0001:0004afa0       ??9ColorStruct@@QBE_NU0@@Z 1004bfa0 f i Detonate.obj
 0001:0004b2f0       ?ApplyCrit@ExtData@WarheadTypeExt@@AAEXPAVHouseClass@@PAVTechnoClass@@1@Z 1004c2f0 f   Detonate.obj
 0001:0004b4d0       ?ApplyShieldModifiers@ExtData@WarheadTypeExt@@AAEXPAVTechnoClass@@@Z 1004c4d0 f   Detonate.obj
 0001:0004b8c0       ?CanTransactMoney@HouseClass@@QBE_NH@Z 1004c8c0 f i Detonate.obj
 0001:0004b8f0       ?Detonate@ExtData@WarheadTypeExt@@QAEXPAVTechnoClass@@PAVHouseClass@@PAVBulletClass@@UCoordStruct@@@Z 1004c8f0 f   Detonate.obj
 0001:0004c4c0       ?DetonateOnOneUnit@ExtData@WarheadTypeExt@@AAEXPAVHouseClass@@PAVTechnoClass@@1_N2@Z 1004d4c0 f   Detonate.obj
 0001:0004c7f0       ?GetCellAt@MapClass@@QBEPAVCellClass@@ABUCoordStruct@@@Z 1004d7f0 f i Detonate.obj
 0001:0004c860       ?InterceptBullets@ExtData@WarheadTypeExt@@QAEXPAVTechnoClass@@PAVWeaponTypeClass@@UCoordStruct@@@Z 1004d860 f   Detonate.obj
 0001:0004c9a0       ?ReshroudMap@HouseClass@@QAEXXZ 1004d9a0 f i Detonate.obj
 0001:0004c9c0       ?TransactMoney@HouseClass@@QAE_NH@Z 1004d9c0 f i Detonate.obj
 0001:0004c9e0       ?applyPermaMC@ExtData@WarheadTypeExt@@AAEXQAVHouseClass@@QAVAbstractClass@@@Z 1004d9e0 f   Detonate.obj
 0001:0004cb30       ?insert@?$DistinctCollector@PAVTechnoClass@@@Alex@Helpers@@QAEXPAVTechnoClass@@@Z 1004db30 f i Detonate.obj
 0001:0004cbe0       ??$Process@V?$vector@ULauchSWData@@V?$allocator@ULauchSWData@@@std@@@std@@@PhobosStreamReader@@QAEAAV0@AAV?$vector@ULauchSWData@@V?$allocator@ULauchSWData@@@std@@@std@@_N@Z 1004dbe0 f i Body.obj
 0001:0004cc00       ??$Process@V?$vector@ULauchSWData@@V?$allocator@ULauchSWData@@@std@@@std@@@PhobosStreamWriter@@QAEAAV0@AAV?$vector@ULauchSWData@@V?$allocator@ULauchSWData@@@std@@@std@@_N@Z 1004dc00 f i Body.obj
 0001:0004cce0       ??$Serialize@VPhobosStreamReader@@@ExtData@WarheadTypeExt@@AAEXAAVPhobosStreamReader@@@Z 1004dce0 f i Body.obj
 0001:0004d770       ??$Serialize@VPhobosStreamReader@@@PaintballType@@QAE_NAAVPhobosStreamReader@@@Z 1004e770 f i Body.obj
 0001:0004d840       ??$Serialize@VPhobosStreamWriter@@@ExtData@WarheadTypeExt@@AAEXAAVPhobosStreamWriter@@@Z 1004e840 f i Body.obj
 0001:0004e1e0       ??$Serialize@VPhobosStreamWriter@@@PaintballType@@QAE_NAAVPhobosStreamWriter@@@Z 1004f1e0 f i Body.obj
 0001:0004e270       ??$parse_values@PAVShieldTypeClass@@@detail@@YGXAAV?$vector@PAVShieldTypeClass@@V?$allocator@PAVShieldTypeClass@@@std@@@std@@AAVINI_EX@@PBD2_N@Z 1004f270 f i Body.obj
 0001:0004e410       ??0ExtData@WarheadTypeExt@@QAE@PAVWarheadTypeClass@@@Z 1004f410 f i Body.obj
 0001:0004e7e0       ??1ExtContainer@WarheadTypeExt@@UAE@XZ 1004f7e0 f   Body.obj
 0001:0004e840       ??1ExtData@WarheadTypeExt@@UAE@XZ 1004f840 f i Body.obj
 0001:0004ed60       ??_EExtContainer@WarheadTypeExt@@UAEPAXI@Z 1004fd60 f i Body.obj
 0001:0004ed60       ??_GExtContainer@WarheadTypeExt@@UAEPAXI@Z 1004fd60 f i Body.obj
 0001:0004ed90       ??_EExtData@WarheadTypeExt@@UAEPAXI@Z 1004fd90 f i Body.obj
 0001:0004ed90       ??_GExtData@WarheadTypeExt@@UAEPAXI@Z 1004fd90 f i Body.obj
 0001:0004edc0       ?CanDealDamage@ExtData@WarheadTypeExt@@QAE_NPAVTechnoClass@@@Z 1004fdc0 f   Body.obj
 0001:0004ee50       ?CanTargetHouse@ExtData@WarheadTypeExt@@QAE_NPAVHouseClass@@PAVTechnoClass@@@Z 1004fe50 f   Body.obj
 0001:0004eec0       ?DetonateAt@WarheadTypeExt@@SGXPAVWarheadTypeClass@@ABUCoordStruct@@PAVTechnoClass@@H@Z 1004fec0 f   Body.obj
 0001:0004ef30       ?DetonateAt@WarheadTypeExt@@SGXPAVWarheadTypeClass@@PAVObjectClass@@PAVTechnoClass@@H@Z 1004ff30 f   Body.obj
 0001:0004efb0       ?EligibleForFullMapDetonation@ExtData@WarheadTypeExt@@QAE_NPAVTechnoClass@@PAVHouseClass@@@Z 1004ffb0 f   Body.obj
 0001:0004f130       ?Initialize@ExtData@WarheadTypeExt@@UAEXXZ 10050130 f   Body.obj
 0001:0004f1b0       ?Load@?$Container@VWarheadTypeExt@@@@MAE_NPAVWarheadTypeClass@@PAUIStream@@@Z 100501b0 f i Body.obj
 0001:0004f1d0       ?LoadFromINIFile@ExtData@WarheadTypeExt@@UAEXPAVCCINIClass@@@Z 100501d0 f   Body.obj
 0001:0004fcc0       ?LoadFromStream@ExtData@WarheadTypeExt@@UAEXAAVPhobosStreamReader@@@Z 10050cc0 f   Body.obj
 0001:0004fcf0       ?LoadKey@?$Container@VWarheadTypeExt@@@@IAEPAVExtData@WarheadTypeExt@@PAVWarheadTypeClass@@PAUIStream@@@Z 10050cf0 f i Body.obj
 0001:0004fe60       ?Read@?$NullableIdx@VAnimTypeClass@@@@QAEXAAVINI_EX@@PBD1@Z 10050e60 f i Body.obj
 0001:0004fef0       ?Read@?$Valueable@W4AffectedTarget@@@@QAEXAAVINI_EX@@PBD1_N@Z 10050ef0 f i Body.obj
 0001:00050070       ?Read@?$ValueableVector@PAVShieldTypeClass@@@@QAEXAAVINI_EX@@PBD1_N@Z 10051070 f i Body.obj
 0001:000500c0       ?Save@?$Container@VWarheadTypeExt@@@@MAE_NPAVWarheadTypeClass@@PAUIStream@@@Z 100510c0 f i Body.obj
 0001:000501d0       ?SaveToStream@ExtData@WarheadTypeExt@@UAEXAAVPhobosStreamWriter@@@Z 100511d0 f   Body.obj
 0001:00050200       ?Size@ExtData@WarheadTypeExt@@UBEIXZ 10051200 f i Body.obj
 0001:00050210       _WarheadTypeClass_CTOR     10051210 f   Body.obj
 0001:00050300       _WarheadTypeClass_LoadFromINI 10051300 f   Body.obj
 0001:000503a0       _WarheadTypeClass_Load_Suffix 100513a0 f   Body.obj
 0001:00050430       _WarheadTypeClass_SDDTOR   10051430 f   Body.obj
 0001:000504d0       _WarheadTypeClass_SaveLoad_Prefix 100514d0 f   Body.obj
 0001:00050510       _WarheadTypeClass_Save_Suffix 10051510 f   Body.obj
 0001:00050590       _BulletClass_Logics        10051590 f   Hooks.obj
 0001:00050610       _BulletClass_Logics_Return 10051610 f   Hooks.obj
 0001:00050620       _Explosion_Damage_DamageSelf 10051620 f   Hooks.obj
 0001:00050660       _MapClass_DamageArea       10051660 f   Hooks.obj
 0001:00050870       _WarheadTypeClass_AnimList_CritAnim 10051870 f   Hooks.obj
 0001:00050930       _WarheadTypeClass_AnimList_PickRandom 10051930 f   Hooks.obj
 0001:00050960       _WarheadTypeClass_AnimList_SplashList 10051960 f   Hooks.obj
 0001:000509f0       ??$_Move_unchecked@PAEPAE@std@@YGPAEPAE00@Z 100519f0 f i LodePNG.obj
 0001:00050a20       ??$_Resize_reallocate@U_Value_init_tag@std@@@?$vector@EV?$allocator@E@std@@@std@@AAEXIABU_Value_init_tag@1@@Z 10051a20 f i LodePNG.obj
 0001:00050b10       ??$_Uninitialized_move@PAEV?$allocator@E@std@@@std@@YGPAEQAE0PAEAAV?$allocator@E@0@@Z 10051b10 f i LodePNG.obj
 0001:000515d0       ?_Change_array@?$vector@EV?$allocator@E@std@@@std@@AAEXQAEII@Z 100525d0 f i LodePNG.obj
 0001:000519b0       ?deallocate@?$allocator@D@std@@QAEXQADI@Z 100529b0 f i ArmorTypeClass.obj
 0001:000519b0       ?deallocate@?$allocator@E@std@@QAEXQAEI@Z 100529b0 f i LodePNG.obj
 0001:00053ff0       ?lodepng_add_text@@YGIPAULodePNGInfo@@PBD1@Z 10054ff0 f   LodePNG.obj
 0001:000540e0       ?lodepng_chunk_append@@YGIPAPAEPAIPBE@Z 100550e0 f   LodePNG.obj
 0001:00054180       ?lodepng_chunk_check_crc@@YGIPBE@Z 10055180 f   LodePNG.obj
 0001:00054200       ?lodepng_chunk_length@@YGIPBE@Z 10055200 f   LodePNG.obj
 0001:00054230       ?lodepng_chunk_next_const@@YGPBEPBE0@Z 10055230 f   LodePNG.obj
 0001:000542b0       ?lodepng_chunk_type_equals@@YGEPBEPBD@Z 100552b0 f   LodePNG.obj
 0001:00054370       ?lodepng_color_mode_copy@@YGIPAULodePNGColorMode@@PBU1@@Z 10055370 f   LodePNG.obj
 0001:00054470       ?lodepng_convert@@YGIPAEPBEPBULodePNGColorMode@@2II@Z 10055470 f   LodePNG.obj
 0001:00054800       ?lodepng_decode@@YGIPAPAEPAI1PAULodePNGState@@PBEI@Z 10055800 f   LodePNG.obj
 0001:00054930       ?lodepng_error_text@@YGPBDI@Z 10055930 f   LodePNG.obj
 0001:00054e10       ?lodepng_get_raw_size@@YGIIIPBULodePNGColorMode@@@Z 10055e10 f   LodePNG.obj
 0001:000550a0       ?lodepng_info_cleanup@@YGXPAULodePNGInfo@@@Z 100560a0 f   LodePNG.obj
 0001:00055140       ?lodepng_info_init@@YGXPAULodePNGInfo@@@Z 10056140 f   LodePNG.obj
 0001:00055260       ?lodepng_inspect@@YGIPAI0PAULodePNGState@@PBEI@Z 10056260 f   LodePNG.obj
 0001:000554f0       ?lodepng_state_cleanup@@YGXPAULodePNGState@@@Z 100564f0 f   LodePNG.obj
 0001:00055530       ?lodepng_state_init@@YGXPAULodePNGState@@@Z 10056530 f   LodePNG.obj
 0001:00057430       ??0PaintballType@@QAE@ABV0@@Z 10058430 f i PaintBall.obj
 0001:00057480       ??4?$OptionalStruct@VPaintballType@@$00@@QAEAAU0@VPaintballType@@@Z 10058480 f i PaintBall.obj
 0001:00057540       ?Enable@PaintBall@@UAEXHPAVWarheadTypeClass@@ABVPaintballType@@@Z 10058540 f   PaintBall.obj
 0001:00057700       ?GetBright@PaintBall@@QAEII@Z 10058700 f i PaintBall.obj
 0001:00057740       ?GetColor@PaintBall@@QAEIXZ 10058740 f   PaintBall.obj
 0001:000577b0       ?NeedPaint@PaintBall@@QAE?AV?$tuple@_N_N_N@std@@XZ 100587b0 f i PaintBall.obj
 0001:00057860       ?Read@PaintballType@@QAEXAAVINI_EX@@PBD@Z 10058860 f   PaintBall.obj
 0001:000579c0       ?clear@?$OptionalStruct@VPaintballType@@$00@@QAEXXZ 100589c0 f i PaintBall.obj
 0001:000579f0       _AnimClass_Draw_It         100589f0 f   PaintBall.obj
 0001:00057ab0       _TechnoClass_DrawSHP_Colour 10058ab0 f   PaintBall.obj
 0001:00057b30       _TechnoClass_DrawVXL_Colour 10058b30 f   PaintBall.obj
 0001:00057bc0       _UnitClass_DrawVXL_Colour  10058bc0 f   PaintBall.obj
 0001:00057c50       ??$_Emplace_reallocate@ABUSimulateBurst@@@?$vector@USimulateBurst@@V?$allocator@USimulateBurst@@@std@@@std@@AAEPAUSimulateBurst@@QAU2@ABU2@@Z 10058c50 f i CustomWeapon.obj
 0001:00057c50       ??$_Emplace_reallocate@USimulateBurst@@@?$vector@USimulateBurst@@V?$allocator@USimulateBurst@@@std@@@std@@AAEPAUSimulateBurst@@QAU2@$$QAU2@@Z 10058c50 f i CustomWeapon.obj
 0001:00057da0       ??$_Emplace_reallocate@UDelayFireWeapon@@@?$vector@UDelayFireWeapon@@V?$allocator@UDelayFireWeapon@@@std@@@std@@AAEPAUDelayFireWeapon@@QAU2@$$QAU2@@Z 10058da0 f i CustomWeapon.obj
 0001:00057ef0       ??0SimulateBurst@@QAE@PAVWeaponTypeClass@@PAVTechnoClass@@PAVAbstractClass@@UCoordStruct@@HHHUAttachFireData@@HP6G_NHHPAVBulletClass@@2@Z@Z 10058ef0 f i CustomWeapon.obj
 0001:00057fa0       ?FireCustomWeapon@CustomWeaponManager@@QAE_NPAVTechnoClass@@0PAVAbstractClass@@PAVWeaponTypeClass@@ABUCoordStruct@@3NP6G_NHHPAVBulletClass@@1@Z@Z 10058fa0 f   CustomWeapon.obj
 0001:00058280       ?InRange@@YG_NPAVTechnoClass@@PAVAbstractClass@@PAVWeaponTypeClass@@@Z 10059280 f   CustomWeapon.obj
 0001:000582b0       ?InRange@TechnoClass@@QAE_NAAUCoordStruct@@PAVAbstractClass@@PAVWeaponTypeClass@@@Z 100592b0 f i CustomWeapon.obj
 0001:000582d0       ?IndexOf@PassengersClass@@QBEHPAVFootClass@@@Z 100592d0 f i CustomWeapon.obj
 0001:000582f0       ?SimulateBurstFire@CustomWeaponManager@@QAEXPAVTechnoClass@@0PAVAbstractClass@@PAVWeaponTypeClass@@AAUSimulateBurst@@@Z 100592f0 f   CustomWeapon.obj
 0001:000583b0       ?SimulateBurstFireOnce@CustomWeaponManager@@QAEXPAVTechnoClass@@0PAVAbstractClass@@PAVWeaponTypeClass@@AAUSimulateBurst@@@Z 100593b0 f   CustomWeapon.obj
 0001:00058830       ?TechnoClass_Update_CustomWeapon@FireWeaponManager@@QAEXPAVTechnoClass@@@Z 10059830 f   CustomWeapon.obj
 0001:00058950       ?Update@CustomWeaponManager@@QAEXPAVTechnoClass@@@Z 10059950 f   CustomWeapon.obj
 0001:00058de0       ?GetZRotation@Matrix3D@@QBEMXZ 10059de0 f i TechnoExt.obj
 0001:00058e00       ?acos@Math@@YANN@Z         10059e00 f i TechnoExt.obj
 0001:00058e10       ?sqrt@Math@@YANN@Z         10059e10 f i TechnoExt.obj
 0001:00058e20       _TechnoClass_CanFire_DP    10059e20 f   TechnoExt.obj
 0001:00058e50       _TechnoClass_Destroy       10059e50 f   TechnoExt.obj
 0001:00058e90       _TechnoClass_Fire_DP       10059e90 f   TechnoExt.obj
 0001:00058f00       _TechnoClass_Greatest_Threat_GuardRange 10059f00 f   TechnoExt.obj
 0001:00058f50       _TechnoClass_Put_DP        10059f50 f   TechnoExt.obj
 0001:00058fa0       _TechnoClass_Select_SkipVoice 10059fa0 f   TechnoExt.obj
 0001:00058fd0       _TechnoClass_TakeDamage_AfterObjectClassCall 10059fd0 f   TechnoExt.obj
 0001:00059020       ?CreateAndPutTechno@Helpers_DP@@SGPAVTechnoClass@@PAVTechnoTypeClass@@PAVHouseClass@@AAUCoordStruct@@PAVCellClass@@@Z 1005a020 f   Helpers.obj
 0001:00059140       ?DrawWeaponAnim@Helpers_DP@@SGXPAVWeaponTypeClass@@AAUCoordStruct@@1PAVTechnoClass@@PAVAbstractClass@@@Z 1005a140 f   Helpers.obj
 0001:000592d0       ?FireBullet@Helpers_DP@@SGPAVBulletClass@@PAVTechnoClass@@PAVAbstractClass@@PAVWeaponTypeClass@@AAUCoordStruct@@3AAVVelocityClass@@@Z 1005a2d0 f   Helpers.obj
 0001:000594f0       ?FireBulletTo@Helpers_DP@@SGPAVBulletClass@@PAVTechnoClass@@PAVAbstractClass@@PAVWeaponTypeClass@@AAUCoordStruct@@3AAVVelocityClass@@@Z 1005a4f0 f   Helpers.obj
 0001:00059710       ?FireWeaponTo@Helpers_DP@@SGXPAVTechnoClass@@0PAVAbstractClass@@PAVWeaponTypeClass@@ABUCoordStruct@@P6G_NHHPAVBulletClass@@1@Z3_NH@Z 1005a710 f   Helpers.obj
 0001:00059d50       ?GetFLHAbsoluteCoords@Helpers_DP@@SG?AUCoordStruct@@PAVTechnoClass@@AAU2@_NH2@Z 1005ad50 f   Helpers.obj
 0001:00059e00       ?GetFLHAbsoluteCoords@Helpers_DP@@SG?AUCoordStruct@@PAVTechnoClass@@ABU2@_NHAAU2@2@Z 1005ae00 f i Helpers.obj
 0001:0005a120       ?GetFLHOffset@Helpers_DP@@SG?AV?$Vector3D@M@@ABVMatrix3D@@AAUCoordStruct@@@Z 1005b120 f i Helpers.obj
 0001:0005a1b0       ?GetWeaponSpeed@WeaponTypeClass@@QBEHH@Z 1005b1b0 f i Helpers.obj
 0001:0005a1d0       ?Point2Dir@Helpers_DP@@SG?AUDirStruct@@AAUCoordStruct@@0@Z 1005b1d0 f i Helpers.obj
 0001:0005a240       ?SetTarget@SpawnManagerClass@@QAEXPAVAbstractClass@@@Z 1005b240 f i Helpers.obj
 0001:0005a260       ?TranslateFixedPoint@@YGIIIII@Z 1005b260 f i Helpers.obj
 0001:0005a2c0       ?AI@AircraftDiveFunctional@@SGXPAVExtData@TechnoExt@@PAV2TechnoTypeExt@@@Z 1005b2c0 f   AircraftDiveFunctional.obj
 0001:0005a460       ?Init@AircraftDiveFunctional@@SGXPAVExtData@TechnoExt@@PAV2TechnoTypeExt@@@Z 1005b460 f   AircraftDiveFunctional.obj
 0001:0005a4d0       ?OnFire@AircraftDiveFunctional@@SGXPAVExtData@TechnoExt@@PAV2TechnoTypeExt@@PAVAbstractClass@@H@Z 1005b4d0 f   AircraftDiveFunctional.obj
 0001:0005a500       ?AI@AircraftPutDataFunctional@@SGXPAVExtData@TechnoExt@@PAV2TechnoTypeExt@@@Z 1005b500 f   AircraftPutDataFunctional.obj
 0001:0005a5e0       ?GetOffset@AircraftPutDataFunctional@@SG?AUCoordStruct@@AAVAircraftPutData@@@Z 1005b5e0 f   AircraftPutDataFunctional.obj
 0001:0005a620       ?OnPut@AircraftPutDataFunctional@@SGXPAVExtData@TechnoExt@@PAV2TechnoTypeExt@@PAUCoordStruct@@@Z 1005b620 f   AircraftPutDataFunctional.obj
 0001:0005a8b0       ?contains@?$Iterator@PAVAircraftTypeClass@@@@QBE_NPAVAircraftTypeClass@@@Z 1005b8b0 f i AircraftPutDataFunctional.obj
 0001:0005a8b0       ?contains@?$Iterator@PAVBuildingTypeClass@@@@QBE_NPAVBuildingTypeClass@@@Z 1005b8b0 f i Body.obj
 0001:0005a8f0       ?AI@DriveDataFunctional@@SGXPAVExtData@TechnoExt@@@Z 1005b8f0 f   DriveDataFunctional.obj
 0001:0005a990       ??$_Emplace_reallocate@ABV?$vector@PAVWeaponTypeClass@@V?$allocator@PAVWeaponTypeClass@@@std@@@std@@@?$vector@V?$vector@PAVWeaponTypeClass@@V?$allocator@PAVWeaponTypeClass@@@std@@@std@@V?$allocator@V?$vector@PAVWeaponTypeClass@@V?$allocator@PAVWeaponTypeClass@@@std@@@std@@@2@@std@@AAEPAV?$vector@PAVWeaponTypeClass@@V?$allocator@PAVWeaponTypeClass@@@std@@@1@QAV21@ABV21@@Z 1005b990 f i ExtraFireData.obj
 0001:0005aba0       ?Read@?$NullableVector@PAVWeaponTypeClass@@@@QAEXAAVINI_EX@@PBD1@Z 1005bba0 f i ExtraFireData.obj
 0001:0005ac10       ?ReadArt@ExtraFireData@@QAEXAAVINI_EX@@PBD@Z 1005bc10 f   ExtraFireData.obj
 0001:0005ae00       ?ReadRules@ExtraFireData@@QAEXAAVINI_EX@@PBD@Z 1005be00 f   ExtraFireData.obj
 0001:0005b070       __snprintf                 1005c070 f i ExtraFireData.obj
 0001:0005b0b0       ??$_Assign_range@PAUCoordStruct@@@?$vector@UCoordStruct@@V?$allocator@UCoordStruct@@@std@@@std@@AAEXPAUCoordStruct@@0Uforward_iterator_tag@1@@Z 1005c0b0 f i ExtraFirefunctional.obj
 0001:0005b230       ??$_Emplace_reallocate@ABQAVWeaponTypeClass@@VTimerStruct@@@?$vector@U?$pair@PAVWeaponTypeClass@@VTimerStruct@@@std@@V?$allocator@U?$pair@PAVWeaponTypeClass@@VTimerStruct@@@std@@@2@@std@@AAEPAU?$pair@PAVWeaponTypeClass@@VTimerStruct@@@1@QAU21@ABQAVWeaponTypeClass@@$$QAVTimerStruct@@@Z 1005c230 f i ExtraFirefunctional.obj
 0001:0005b410       ??0?$ValueableVector@UCoordStruct@@@@QAE@ABV0@@Z 1005c410 f i ExtraFirefunctional.obj
 0001:0005b490       ??8CoordStruct@@QBE_NABU0@@Z 1005c490 f i ExtraFirefunctional.obj
 0001:0005b4c0       ?GetWeapon@ExtraFirefunctional@@SGXPAVTechnoClass@@PAVAbstractClass@@H@Z 1005c4c0 f   ExtraFirefunctional.obj
 0001:0005bc50       ?_Buy_raw@?$vector@UCoordStruct@@V?$allocator@UCoordStruct@@@std@@@std@@AAEXI@Z 1005cc50 f i ExtraFirefunctional.obj
 0001:0005bf00       ?AI@FighterAreaGuardFunctional@@SGXPAVExtData@TechnoExt@@PAV2TechnoTypeExt@@@Z 1005cf00 f   FighterAreaGuardFunctional.obj
 0001:0005c270       ??$_Erase_tree@V?$allocator@U?$_Tree_node@U?$pair@$$CBVPoint2D@@H@std@@PAX@std@@@std@@@?$_Tree_val@U?$_Tree_simple_types@U?$pair@$$CBVPoint2D@@H@std@@@std@@@std@@QAEXAAV?$allocator@U?$_Tree_node@U?$pair@$$CBVPoint2D@@H@std@@PAX@std@@@1@PAU?$_Tree_node@U?$pair@$$CBVPoint2D@@H@std@@PAX@1@@Z 1005d270 f i GiftBoxFunctional.obj
 0001:0005c2b0       ??1?$_Tree@V?$_Tmap_traits@VPoint2D@@HU?$less@VPoint2D@@@std@@V?$allocator@U?$pair@$$CBVPoint2D@@H@std@@@3@$0A@@std@@@std@@QAE@XZ 1005d2b0 f i GiftBoxFunctional.obj
 0001:0005c7d0       ?AI@GiftBoxFunctional@@SGXPAVExtData@TechnoExt@@PAV2TechnoTypeExt@@@Z 1005d7d0 f   GiftBoxFunctional.obj
 0001:0005c920       ?Destroy@GiftBoxFunctional@@SGXPAVExtData@TechnoExt@@PAV2TechnoTypeExt@@@Z 1005d920 f   GiftBoxFunctional.obj
 0001:0005c970       ?GetCell@GeneralUtils@@SGPAVCellClass@@PAV2@AAUCoordStruct@@I_N@Z 1005d970 f i GiftBoxFunctional.obj
 0001:0005cb00       ?Init@GiftBoxFunctional@@SGXPAVExtData@TechnoExt@@PAV2TechnoTypeExt@@@Z 1005db00 f   GiftBoxFunctional.obj
 0001:0005cbc0       ?OpenDisallowed@@YG?B_NQAVTechnoClass@@@Z 1005dbc0 f   GiftBoxFunctional.obj
 0001:0005cc80       ?Release@GiftBox@@QAEXPAVTechnoClass@@AAVGiftBoxData@@@Z 1005dc80 f   GiftBoxFunctional.obj
 0001:0005cfc0       ?TakeDamage@GiftBoxFunctional@@SGXPAVExtData@TechnoExt@@PAV2TechnoTypeExt@@PAVWarheadTypeClass@@W4DamageState@@@Z 1005dfc0 f   GiftBoxFunctional.obj
 0001:0005d030       ?Tracker_4134A0@AircraftClass@@QAEXXZ 1005e030 f i GiftBoxFunctional.obj
 0001:0005d050       ?AI@JJFacingFunctional@@SGXPAVExtData@TechnoExt@@PAV2TechnoTypeExt@@@Z 1005e050 f   JJFacingToTargetFunctional.obj
 0001:0005d440       ?Dir2FacingIndex@Helpers_DP@@SGHAAUDirStruct@@H@Z 1005e440 f i JJFacingToTargetFunctional.obj
 0001:0005d500       ?AI@PassengersFunctional@@SGXPAVTechnoClass@@@Z 1005e500 f   PassengersFunctional.obj
 0001:0005d590       ?CanFire@PassengersFunctional@@SGXPAVTechnoClass@@AA_N@Z 1005e590 f   PassengersFunctional.obj
 0001:0005d620       ?AI@SpawnSupportFunctional@@SGXPAVTechnoClass@@@Z 1005e620 f   SpawnSupportFunctional.obj
 0001:0005d630       ?FireSupportWeaponToSpawn@SpawnSupportFunctional@@SGXPAVTechnoClass@@_N1@Z 1005e630 f   SpawnSupportFunctional.obj
 0001:0005da40       ?InProgress@TimerStruct@@QBE_NXZ 1005ea40 f i SpawnSupportFunctional.obj
 0001:0005da70       ?OnFire@SpawnSupportFunctional@@SGXPAVTechnoClass@@@Z 1005ea70 f   SpawnSupportFunctional.obj
 0001:0005da80       ??$AI@VBulletClass@@@TrailsManager@@YGXPAVBulletClass@@@Z 1005ea80 f   TrailsManager.obj
 0001:0005daf0       ??$AI@VParticleClass@@@TrailsManager@@YGXPAVParticleClass@@@Z 1005eaf0 f   TrailsManager.obj
 0001:0005db60       ??$AI@VTechnoClass@@@TrailsManager@@YGXPAVTechnoClass@@@Z 1005eb60 f   TrailsManager.obj
 0001:0005dc70       ??$AI@VVoxelAnimClass@@@TrailsManager@@YGXPAVVoxelAnimClass@@@Z 1005ec70 f   TrailsManager.obj
 0001:0005de70       ??$Construct@VBulletClass@@@TrailsManager@@YGXPAVBulletClass@@_N@Z 1005ee70 f   TrailsManager.obj
 0001:0005e130       ??$Construct@VParticleClass@@@TrailsManager@@YGXPAVParticleClass@@_N@Z 1005f130 f   TrailsManager.obj
 0001:0005e160       ??$Construct@VTechnoClass@@@TrailsManager@@YGXPAVTechnoClass@@_N@Z 1005f160 f   TrailsManager.obj
 0001:0005e470       ??$Construct@VVoxelAnimClass@@@TrailsManager@@YGXPAVVoxelAnimClass@@_N@Z 1005f470 f   TrailsManager.obj
 0001:0005e5c0       ??$_Emplace_reallocate@V?$unique_ptr@VUniversalTrail@@U?$default_delete@VUniversalTrail@@@std@@@std@@@?$vector@V?$unique_ptr@VUniversalTrail@@U?$default_delete@VUniversalTrail@@@std@@@std@@V?$allocator@V?$unique_ptr@VUniversalTrail@@U?$default_delete@VUniversalTrail@@@std@@@std@@@2@@std@@AAEPAV?$unique_ptr@VUniversalTrail@@U?$default_delete@VUniversalTrail@@@std@@@1@QAV21@$$QAV21@@Z 1005f5c0 f i TrailsManager.obj
 0001:0005e7a0       ??$make_unique@VUniversalTrail@@ABQAVTrailType@@ABUCoordStruct@@_N$0A@@std@@YG?AV?$unique_ptr@VUniversalTrail@@U?$default_delete@VUniversalTrail@@@std@@@0@ABQAVTrailType@@ABUCoordStruct@@$$QA_N@Z 1005f7a0 f i TrailsManager.obj
 0001:0005e870       ?CleanUp@TrailsManager@@YGXPAVObjectClass@@@Z 1005f870 f   TrailsManager.obj
 0001:0005e980       ?DrawTrail@UniversalTrail@@QAEXPAVHouseClass@@AAUCoordStruct@@ABU3@@Z 1005f980 f i TrailsManager.obj
 0001:0005ed80       ?Hide@TrailsManager@@YGXPAVObjectClass@@@Z 1005fd80 f   TrailsManager.obj
 0001:0005ef00       ?clear@?$vector@V?$unique_ptr@VUniversalTrail@@U?$default_delete@VUniversalTrail@@@std@@@std@@V?$allocator@V?$unique_ptr@VUniversalTrail@@U?$default_delete@VUniversalTrail@@@std@@@std@@@2@@std@@QAEXXZ 1005ff00 f i TrailsManager.obj
 0001:0005ef30       ??$Serialize@VPhobosStreamReader@@@LaserType@@QAE_NAAVPhobosStreamReader@@@Z 1005ff30 f i TrailType.obj
 0001:0005f030       ??$Serialize@VPhobosStreamReader@@@TrailType@@AAEXAAVPhobosStreamReader@@@Z 10060030 f i TrailType.obj
 0001:0005f2b0       ??$Serialize@VPhobosStreamWriter@@@TrailType@@AAEXAAVPhobosStreamWriter@@@Z 100602b0 f i TrailType.obj
 0001:0005f490       ?GetMainSection@?$Enumerable@VTrailType@@@@SGPBDXZ 10060490 f   TrailType.obj
 0001:0005f4a0       ?LoadFromINI@TrailType@@UAEXPAVCCINIClass@@@Z 100604a0 f   TrailType.obj
 0001:0005f7e0       ?LoadFromStream@TrailType@@UAEXAAVPhobosStreamReader@@@Z 100607e0 f   TrailType.obj
 0001:0005f800       ?SaveToStream@TrailType@@UAEXAAVPhobosStreamWriter@@@Z 10060800 f   TrailType.obj
 0001:0005f810       ?ClearSidebarTabObject@TechnoClass@@QBEXXZ 10060810 f i Hooks.BugFixes.obj
 0001:0005f830       ?IsThisBreathing@ObjectClass@@QBE_NXZ 10060830 f i Hooks.BugFixes.obj
 0001:0005f850       ?KillNodes@SpawnManagerClass@@QAEXXZ 10060850 f i Hooks.BugFixes.obj
 0001:0005f870       ?Read_JumpjetControls@RulesClass@@QAEXPAVCCINIClass@@@Z 10060870 f i Hooks.BugFixes.obj
 0001:0005f890       ?RecalcLighting@ScenarioClass@@SIXHHH_N@Z 10060890 f i Hooks.BugFixes.obj
 0001:0005f8b0       ?Select_Blitter@ConvertClass@@QAEPAVBlitterCore@@W4BlitterFlags@@@Z 100608b0 f i Hooks.BugFixes.obj
 0001:0005f8d0       ?SetRallypoint@BuildingClass@@QAEXPAVCellStruct@@_N@Z 100608d0 f i Hooks.BugFixes.obj
 0001:0005f8f0       _AITriggerTypeClass_Condition_SupportPowersup 100608f0 f   Hooks.BugFixes.obj
 0001:0005f9b0       _BuildingClass_ActiveClickWith 100609b0 f   Hooks.BugFixes.obj
 0001:0005fa10       _BuildingClass_Unlimbo_EWGate 10060a10 f   Hooks.BugFixes.obj
 0001:0005fa60       _BuildingClass_Unlimbo_NSGate 10060a60 f   Hooks.BugFixes.obj
 0001:0005fab0       _CellClass_AttachesToNeighbourOverlay_Gate 10060ab0 f   Hooks.BugFixes.obj
 0001:0005fba0       _EventClass_Execute_StopUnitDeployFire 10060ba0 f   Hooks.BugFixes.obj
 0001:0005fc00       _FlyLocomotionClass_4CE4B0_SpeedModifiers 10060c00 f   Hooks.BugFixes.obj
 0001:0005fc50       _FlyLocomotionClass_MovementAI_SpeedModifiers 10060c50 f   Hooks.BugFixes.obj
 0001:0005fca0       _FootClass_ImbueLocomotor_SpawnRate 10060ca0 f   Hooks.BugFixes.obj
 0001:0005fcf0       _FootClass_ReceiveDamage_DyingFix 10060cf0 f   Hooks.BugFixes.obj
 0001:0005fd30       _HouseClass_PlaceObject_HotkeyFix 10060d30 f   Hooks.BugFixes.obj
 0001:0005fd40       _InitRules_EarlyLoadJumpjetControls 10060d40 f   Hooks.BugFixes.obj
 0001:0005fd60       _JumpjetLocomotionClass_Movement_AI_SpeedModifiers 10060d60 f   Hooks.BugFixes.obj
 0001:0005fdb0       _LoadGame_RecalcLighting   10060db0 f   Hooks.BugFixes.obj
 0001:0005fdf0       _ObjectClass_ReceiveDamage_DyingFix 10060df0 f   Hooks.BugFixes.obj
 0001:0005fe20       _Phobos_BugFixes_SHPShadowCheck 10060e20 f   Hooks.BugFixes.obj
 0001:0005fe50       _RulesClass_ReadJumpjetControls_Extra 10060e50 f   Hooks.BugFixes.obj
 0001:0005feb0       _StandaloneScore_SinglePlayerScoreDialog_ActualTime 10060eb0 f   Hooks.BugFixes.obj
 0001:0005ff00       _TeamClass_TMission_Deploy_DeploysInto 10060f00 f   Hooks.BugFixes.obj
 0001:0005ff30       _TechnoClass_AI_SelfHealing_BuildingGraphics 10060f30 f   Hooks.BugFixes.obj
 0001:0005ff70       _TechnoClass_AI_TemporalTargetingMe_Fix 10060f70 f   Hooks.BugFixes.obj
 0001:0005ffc0       _TechnoClass_DrawAsSHP_TintAndIntensity 10060fc0 f   Hooks.BugFixes.obj
 0001:000600c0       _TechnoClass_FireAt_BurstOffsetFix_1 100610c0 f   Hooks.BugFixes.obj
 0001:000600e0       _TechnoClass_FireAt_BurstOffsetFix_2 100610e0 f   Hooks.BugFixes.obj
 0001:00060120       _TechnoClass_FireDeathWeapon_ProjectileFix 10061120 f   Hooks.BugFixes.obj
 0001:00060150       _TechnoClass_ReceiveDamage_DebrisMaximumsFix 10061150 f   Hooks.BugFixes.obj
 0001:000602e0       _TechnoTypeClass_CTOR_JumpjetControls 100612e0 f   Hooks.BugFixes.obj
 0001:00060370       _UnitClass_DrawObject_DrawerBlitterFix 10061370 f   Hooks.BugFixes.obj
 0001:000603a0       _UnitClass_Mission_Hunt_DeploysInto 100613a0 f   Hooks.BugFixes.obj
 0001:00060400       _UnitClass_ReceiveDamage_DyingFix 10061400 f   Hooks.BugFixes.obj
 0001:000605e0       _RawFileClass_Error_       100615e0 f   Hooks.FileClass.obj
 0001:00060650       _RawFileClass_Read_Replace 10061650 f   Hooks.FileClass.obj
 0001:00060670       ??$_snprintf_s@$0BAA@@@YAHAAY0BAA@DIPBDZZ 10061670 f i Hooks.HealthBar.obj
 0001:000606b0       ?DrawBar@DrawHeathData@@YGXPAVTechnoClass@@PAVPoint2D@@PAURectangleStruct@@@Z 100616b0 f   Hooks.HealthBar.obj
 0001:00060a50       ?DrawNumber@DrawHeathData@@YGXQAVTechnoClass@@PAVPoint2D@@PAURectangleStruct@@@Z 10061a50 f   Hooks.HealthBar.obj
 0001:00060dd0       _TechnoClass_DrawBar_Foot  10061dd0 f   Hooks.HealthBar.obj
 0001:00060e50       _TechnoClass_DrawHealth_Building_PipFile_A 10061e50 f   Hooks.HealthBar.obj
 0001:00060ee0       _TechnoClass_DrawHealth_Building_PipFile_B 10061ee0 f   Hooks.HealthBar.obj
 0001:00060f20       _TechnoClass_DrawHealth_Building_PipFile_B_pal 10061f20 f   Hooks.HealthBar.obj
 0001:00060f80       _TechnoClass_DrawPip_PipShape1_A 10061f80 f   Hooks.HealthBar.obj
 0001:00060fc0       _TechnoClass_DrawPip_PipShape1_B 10061fc0 f   Hooks.HealthBar.obj
 0001:00061000       _TechnoClass_DrawPip_PipShape2 10062000 f   Hooks.HealthBar.obj
 0001:00061040       _TechnoClass_DrawdBar_Building 10062040 f   Hooks.HealthBar.obj
 0001:000610a0       ?LoadVoxel__@ObjectTypeClass@@QBEXXZ 100620a0 f i Hooks.Image.obj
 0001:000610c0       ?_makepath@CRT@@SAXPADPBD111@Z 100620c0 f i Hooks.Image.obj
 0001:000610d0       _AircraftTypeClass_ReadINI 100620d0 f   Hooks.Image.obj
 0001:00061160       _InfantryTypeClass_ReadINI 10062160 f   Hooks.Image.obj
 0001:00061220       _VehicleTypeClass_ReadINI  10062220 f   Hooks.Image.obj
 0001:00061320       ?ApplyMobileRefinery@TechnoExt@@SGXPAVTechnoClass@@@Z 10062320 f   Hooks.LogicUpdater.obj
 0001:00061780       ?GattlingDamage@ExtData@TechnoExt@@QAEXXZ 10062780 f   Hooks.LogicUpdater.obj
 0001:000619d0       ?InitializeItems@TechnoExt@@SGXPAVTechnoClass@@@Z 100629d0 f   Hooks.LogicUpdater.obj
 0001:00061b50       ?KamikazeClass_AI_@@YIXPAVKamikaze@@PAX@Z 10062b50 f   Hooks.LogicUpdater.obj
 0001:00061b60       ?LogicClass_AI_@@YIXPAVLogicClass@@PAX@Z 10062b60 f   Hooks.LogicUpdater.obj
 0001:00061b70       ?Update@FootClass@@UAEXXZ  10062b70 f i Hooks.LogicUpdater.obj
 0001:00061b90       ?Update@Kamikaze@@QAEXXZ   10062b90 f i Hooks.LogicUpdater.obj
 0001:00061bb0       ?Update@LogicClass@@QAEXXZ 10062bb0 f i Hooks.LogicUpdater.obj
 0001:00061bd0       _AircraftClass_AI_FootClass_AI 10062bd0 f   Hooks.LogicUpdater.obj
 0001:00061ca0       _BuildingClass_AI_Add      10062ca0 f   Hooks.LogicUpdater.obj
 0001:00061ec0       _FootClass_AI_AfterRadSite 10062ec0 f   Hooks.LogicUpdater.obj
 0001:00061f40       _FootClass_AI_IsMovingNow  10062f40 f   Hooks.LogicUpdater.obj
 0001:00062020       _LogicClass_Update_Late    10063020 f   Hooks.LogicUpdater.obj
 0001:00062030       _TechnoClass_AI_           10063030 f   Hooks.LogicUpdater.obj
 0001:000621a0       _UnitClass_AI_FootClass_AI 100631a0 f   Hooks.LogicUpdater.obj
 0001:000621f0       ??_EFileClass@@UAEPAXI@Z   100631f0 f i Hooks.OtamaaBugFix.obj
 0001:000621f0       ??_GFileClass@@UAEPAXI@Z   100631f0 f i Hooks.OtamaaBugFix.obj
 0001:00062220       ?GetFileName@RawFileClass@@UBEPBDXZ 10063220 f i Hooks.OtamaaBugFix.obj
 0001:00062240       ?SetFileName@RawFileClass@@UAEPBDPBD@Z 10063240 f i Hooks.OtamaaBugFix.obj
 0001:00062260       ?CreateFileA@RawFileClass@@UAEHXZ 10063260 f i Hooks.OtamaaBugFix.obj
 0001:00062280       ?DeleteFileA@RawFileClass@@UAEHXZ 10063280 f i Hooks.OtamaaBugFix.obj
 0001:000622a0       ?Exists@RawFileClass@@UAE_N_N@Z 100632a0 f i Hooks.OtamaaBugFix.obj
 0001:000622c0       ?HasHandle@RawFileClass@@UAE_NXZ 100632c0 f i Hooks.OtamaaBugFix.obj
 0001:000622e0       ?Open@RawFileClass@@UAE_NW4FileAccessMode@@@Z 100632e0 f i Hooks.OtamaaBugFix.obj
 0001:00062300       ?OpenEx@RawFileClass@@UAE_NPBDW4FileAccessMode@@@Z 10063300 f i Hooks.OtamaaBugFix.obj
 0001:00062320       ?ReadBytes@RawFileClass@@UAEHPAXH@Z 10063320 f i Hooks.OtamaaBugFix.obj
 0001:00062340       ?Seek@RawFileClass@@UAEJJW4FileSeekMode@@@Z 10063340 f i Hooks.OtamaaBugFix.obj
 0001:00062360       ?GetFileSize@RawFileClass@@UAEJXZ 10063360 f i Hooks.OtamaaBugFix.obj
 0001:00062380       ?WriteBytes@RawFileClass@@UAEHPAXH@Z 10063380 f i Hooks.OtamaaBugFix.obj
 0001:000623a0       ?Close@RawFileClass@@UAEXXZ 100633a0 f i Hooks.OtamaaBugFix.obj
 0001:000623c0       ?GetFileTime@RawFileClass@@UAEJXZ 100633c0 f i Hooks.OtamaaBugFix.obj
 0001:000623e0       ?SetFileTime@RawFileClass@@UAE_NJ@Z 100633e0 f i Hooks.OtamaaBugFix.obj
 0001:00062400       ??_ERawFileClass@@UAEPAXI@Z 10063400 f i Hooks.OtamaaBugFix.obj
 0001:00062400       ??_GRawFileClass@@UAEPAXI@Z 10063400 f i Hooks.OtamaaBugFix.obj
 0001:00062420       ?GetFileName@BufferIOFileClass@@UBEPBDXZ 10063420 f i Hooks.OtamaaBugFix.obj
 0001:00062420       ?GetFileName@CCFileClass@@UBEPBDXZ 10063420 f i Hooks.OtamaaBugFix.obj
 0001:00062420       ?GetFileName@CDFileClass@@UBEPBDXZ 10063420 f i Hooks.OtamaaBugFix.obj
 0001:00062430       ?SetFileName@BufferIOFileClass@@UAEPBDPBD@Z 10063430 f i Hooks.OtamaaBugFix.obj
 0001:00062450       ?CreateFileA@BufferIOFileClass@@UAEHXZ 10063450 f i Hooks.OtamaaBugFix.obj
 0001:00062450       ?CreateFileA@CCFileClass@@UAEHXZ 10063450 f i Hooks.OtamaaBugFix.obj
 0001:00062450       ?CreateFileA@CDFileClass@@UAEHXZ 10063450 f i Hooks.OtamaaBugFix.obj
 0001:00062460       ?DeleteFileA@BufferIOFileClass@@UAEHXZ 10063460 f i Hooks.OtamaaBugFix.obj
 0001:00062460       ?DeleteFileA@CCFileClass@@UAEHXZ 10063460 f i Hooks.OtamaaBugFix.obj
 0001:00062460       ?DeleteFileA@CDFileClass@@UAEHXZ 10063460 f i Hooks.OtamaaBugFix.obj
 0001:00062470       ?Exists@BufferIOFileClass@@UAE_N_N@Z 10063470 f i Hooks.OtamaaBugFix.obj
 0001:00062490       ?HasHandle@BufferIOFileClass@@UAE_NXZ 10063490 f i Hooks.OtamaaBugFix.obj
 0001:000624b0       ?Open@BufferIOFileClass@@UAE_NW4FileAccessMode@@@Z 100634b0 f i Hooks.OtamaaBugFix.obj
 0001:000624d0       ?OpenEx@BufferIOFileClass@@UAE_NPBDW4FileAccessMode@@@Z 100634d0 f i Hooks.OtamaaBugFix.obj
 0001:000624f0       ?ReadBytes@BufferIOFileClass@@UAEHPAXH@Z 100634f0 f i Hooks.OtamaaBugFix.obj
 0001:00062510       ?Seek@BufferIOFileClass@@UAEJJW4FileSeekMode@@@Z 10063510 f i Hooks.OtamaaBugFix.obj
 0001:00062530       ?GetFileSize@BufferIOFileClass@@UAEJXZ 10063530 f i Hooks.OtamaaBugFix.obj
 0001:00062550       ?WriteBytes@BufferIOFileClass@@UAEHPAXH@Z 10063550 f i Hooks.OtamaaBugFix.obj
 0001:00062570       ?Close@BufferIOFileClass@@UAEXXZ 10063570 f i Hooks.OtamaaBugFix.obj
 0001:00062590       ?GetFileTime@BufferIOFileClass@@UAEJXZ 10063590 f i Hooks.OtamaaBugFix.obj
 0001:00062590       ?GetFileTime@CDFileClass@@UAEJXZ 10063590 f i Hooks.OtamaaBugFix.obj
 0001:000625a0       ?SetFileTime@BufferIOFileClass@@UAE_NJ@Z 100635a0 f i Hooks.OtamaaBugFix.obj
 0001:000625a0       ?SetFileTime@CDFileClass@@UAE_NJ@Z 100635a0 f i Hooks.OtamaaBugFix.obj
 0001:000625b0       ?Error@BufferIOFileClass@@UAEXW4FileErrorType@@_NPBD@Z 100635b0 f i Hooks.OtamaaBugFix.obj
 0001:000625b0       ?Error@CDFileClass@@UAEXW4FileErrorType@@_NPBD@Z 100635b0 f i Hooks.OtamaaBugFix.obj
 0001:000625c0       ??_EBufferIOFileClass@@UAEPAXI@Z 100635c0 f i Hooks.OtamaaBugFix.obj
 0001:000625c0       ??_GBufferIOFileClass@@UAEPAXI@Z 100635c0 f i Hooks.OtamaaBugFix.obj
 0001:000625e0       ?SetFileName@CDFileClass@@UAEPBDPBD@Z 100635e0 f i Hooks.OtamaaBugFix.obj
 0001:00062600       ?Exists@CDFileClass@@UAE_N_N@Z 10063600 f i Hooks.OtamaaBugFix.obj
 0001:00062610       ?HasHandle@CDFileClass@@UAE_NXZ 10063610 f i Hooks.OtamaaBugFix.obj
 0001:00062620       ?Open@CDFileClass@@UAE_NW4FileAccessMode@@@Z 10063620 f i Hooks.OtamaaBugFix.obj
 0001:00062640       ?OpenEx@CDFileClass@@UAE_NPBDW4FileAccessMode@@@Z 10063640 f i Hooks.OtamaaBugFix.obj
 0001:00062660       ?ReadBytes@CDFileClass@@UAEHPAXH@Z 10063660 f i Hooks.OtamaaBugFix.obj
 0001:00062670       ?Seek@CDFileClass@@UAEJJW4FileSeekMode@@@Z 10063670 f i Hooks.OtamaaBugFix.obj
 0001:00062680       ?GetFileSize@CDFileClass@@UAEJXZ 10063680 f i Hooks.OtamaaBugFix.obj
 0001:00062690       ?WriteBytes@CDFileClass@@UAEHPAXH@Z 10063690 f i Hooks.OtamaaBugFix.obj
 0001:000626a0       ?Close@CDFileClass@@UAEXXZ 100636a0 f i Hooks.OtamaaBugFix.obj
 0001:000626b0       ??_ECDFileClass@@UAEPAXI@Z 100636b0 f i Hooks.OtamaaBugFix.obj
 0001:000626b0       ??_GCDFileClass@@UAEPAXI@Z 100636b0 f i Hooks.OtamaaBugFix.obj
 0001:000626d0       ?SetFileName@CCFileClass@@UAEPBDPBD@Z 100636d0 f i Hooks.OtamaaBugFix.obj
 0001:000626f0       ?Exists@CCFileClass@@UAE_N_N@Z 100636f0 f i Hooks.OtamaaBugFix.obj
 0001:00062710       ?HasHandle@CCFileClass@@UAE_NXZ 10063710 f i Hooks.OtamaaBugFix.obj
 0001:00062730       ?Open@CCFileClass@@UAE_NW4FileAccessMode@@@Z 10063730 f i Hooks.OtamaaBugFix.obj
 0001:00062750       ?OpenEx@CCFileClass@@UAE_NPBDW4FileAccessMode@@@Z 10063750 f i Hooks.OtamaaBugFix.obj
 0001:00062770       ?ReadBytes@CCFileClass@@UAEHPAXH@Z 10063770 f i Hooks.OtamaaBugFix.obj
 0001:00062790       ?Seek@CCFileClass@@UAEJJW4FileSeekMode@@@Z 10063790 f i Hooks.OtamaaBugFix.obj
 0001:000627b0       ?GetFileSize@CCFileClass@@UAEJXZ 100637b0 f i Hooks.OtamaaBugFix.obj
 0001:000627d0       ?WriteBytes@CCFileClass@@UAEHPAXH@Z 100637d0 f i Hooks.OtamaaBugFix.obj
 0001:000627f0       ?Close@CCFileClass@@UAEXXZ 100637f0 f i Hooks.OtamaaBugFix.obj
 0001:00062810       ?GetFileTime@CCFileClass@@UAEJXZ 10063810 f i Hooks.OtamaaBugFix.obj
 0001:00062830       ?SetFileTime@CCFileClass@@UAE_NJ@Z 10063830 f i Hooks.OtamaaBugFix.obj
 0001:00062850       ?Error@CCFileClass@@UAEXW4FileErrorType@@_NPBD@Z 10063850 f i Hooks.OtamaaBugFix.obj
 0001:00062870       ??_ECCFileClass@@UAEPAXI@Z 10063870 f i Hooks.OtamaaBugFix.obj
 0001:00062870       ??_GCCFileClass@@UAEPAXI@Z 10063870 f i Hooks.OtamaaBugFix.obj
 0001:00062890       ??0CCFileClass@@QAE@PBD@Z  10063890 f i Hooks.OtamaaBugFix.obj
 0001:000628f0       ??0MemoryBuffer@@QAE@XZ    100638f0 f i Hooks.OtamaaBugFix.obj
 0001:00062910       ??1BufferIOFileClass@@UAE@XZ 10063910 f i Hooks.OtamaaBugFix.obj
 0001:00062940       ??1CCFileClass@@UAE@XZ     10063940 f i Hooks.OtamaaBugFix.obj
 0001:00062980       ??1CDFileClass@@UAE@XZ     10063980 f i Hooks.OtamaaBugFix.obj
 0001:000629b0       ??1FileClass@@UAE@XZ       100639b0 f i Hooks.OtamaaBugFix.obj
 0001:000629c0       ??1MemoryBuffer@@QAE@XZ    100639c0 f i Hooks.OtamaaBugFix.obj
 0001:000629d0       ??1RawFileClass@@UAE@XZ    100639d0 f i Hooks.OtamaaBugFix.obj
 0001:00062a00       ?CollectCrate@CellClass@@QBEXPAVFootClass@@@Z 10063a00 f i Hooks.OtamaaBugFix.obj
 0001:00062a40       ?FindIndex@ParticleTypeClass@@SIHPBD@Z 10063a40 f i Hooks.OtamaaBugFix.obj
 0001:00062a90       ?IsValidCell@MapClass@@QAE_NABVCellStruct@@@Z 10063a90 f i Hooks.OtamaaBugFix.obj
 0001:00062b80       ?LoadTile@IsometricTileTypeClass@@QBEHXZ 10063b80 f i Hooks.OtamaaBugFix.obj
 0001:00062c70       ?SelectWeapon@TechnoClass@@UBEHPAVAbstractClass@@@Z 10063c70 f i Hooks.OtamaaBugFix.obj
 0001:00062c90       ?TheaterInit@SmudgeTypeClass@@SIXW4TheaterType@@@Z 10063c90 f i Hooks.OtamaaBugFix.obj
 0001:00062d10       _AircraftClass_IsSinking_SinkAnim 10063d10 f   Hooks.OtamaaBugFix.obj
 0001:00062d80       _BuildingClass_Overpowerer_AddUnique 10063d80 f   Hooks.OtamaaBugFix.obj
 0001:00062dd0       _BuildingClass_UpdateOverpowerState 10063dd0 f   Hooks.OtamaaBugFix.obj
 0001:00062e00       _BulletClass_AI_TrailerInheritOwner 10063e00 f   Hooks.OtamaaBugFix.obj
 0001:00062ea0       _JumpetLocomotionClass_DrawMatrix 10063ea0 f   Hooks.OtamaaBugFix.obj
 0001:00062ee0       _JumpjetLocomotionClass_UpdateMoving 10063ee0 f   Hooks.OtamaaBugFix.obj
 0001:00062f10       _MultiplayGameMode_GenerateInitForces 10063f10 f   Hooks.OtamaaBugFix.obj
 0001:00062f30       _ParasiteClass_CanInfect_ParasitePointerGone_Check 10063f30 f   Hooks.OtamaaBugFix.obj
 0001:00062f60       _TeamClass_TMission_Move_To_Own_Building_index 10063f60 f   Hooks.OtamaaBugFix.obj
 0001:00062fb0       _TechnoClass_AI_AttackAllies 10063fb0 f   Hooks.OtamaaBugFix.obj
 0001:00062fe0       _TechnoClass_AI_DrawBehindAnim 10063fe0 f   Hooks.OtamaaBugFix.obj
 0001:00063050       _TechnoClass_Cloak_Deselect 10064050 f   Hooks.OtamaaBugFix.obj
 0001:000630a0       _TechnoClass_FireAt_AnimOwner 100640a0 f   Hooks.OtamaaBugFix.obj
 0001:00063200       _TechnoClass_GetFireError_AttackICUnit 10064200 f   Hooks.OtamaaBugFix.obj
 0001:00063240       _TechnoClass_IsSinking_SinkAnim 10064240 f   Hooks.OtamaaBugFix.obj
 0001:000632b0       _TechnoClass_TakeDamage_AnimDebris 100642b0 f   Hooks.OtamaaBugFix.obj
 0001:00063340       _TechnoClass_TakeDamage_Metallic_AnimDebris 10064340 f   Hooks.OtamaaBugFix.obj
 0001:000633e0       _TiberiumClass_Grow_CheckMapCoords 100643e0 f   Hooks.OtamaaBugFix.obj
 0001:00063440       _TunnelLocomotionClass_Process_Stop 10064440 f   Hooks.OtamaaBugFix.obj
 0001:00063470       _UnitClass_SelectWeapon_Replacements 10064470 f   Hooks.OtamaaBugFix.obj
 0001:000634b0       _VeinholeMonsterClass_AI_TSRandomRate_1 100644b0 f   Hooks.OtamaaBugFix.obj
 0001:00063510       _VeinholeMonsterClass_AI_TSRandomRate_2 10064510 f   Hooks.OtamaaBugFix.obj
 0001:00063570       _VeinholeMonsterClass_CTOR_SetArmor 10064570 f   Hooks.OtamaaBugFix.obj
 0001:000635b0       _VeinholeMonsterClass_CTOR_TSRandomRate 100645b0 f   Hooks.OtamaaBugFix.obj
 0001:00063610       _WaveClass_DamageCell_FixNoHouseOwner 10064610 f   Hooks.OtamaaBugFix.obj
 0001:00063680       ?DrawAll@EBolt@@SIXXZ      10064680 f i Hooks.Render.obj
 0001:00063690       ?DrawAll@IonBlastClass@@SIXXZ 10064690 f i Hooks.Render.obj
 0001:000636a0       ?DrawAll@VeinholeMonsterClass@@SIXXZ 100646a0 f i Hooks.Render.obj
 0001:000636b0       _GScreenClass_Render       100646b0 f   Hooks.Render.obj
 0001:000636c0       _TacticalClass_Render_ReplaceEbolt 100646c0 f   Hooks.Render.obj
 0001:000636d0       _TacticalClass_Render_ReplaceIonBlast 100646d0 f   Hooks.Render.obj
 0001:000636e0       ?Apply@BlittersFix@@SGXXZ  100646e0 f   Patches.obj
 0001:00063710       ??$?6_WU?$char_traits@_W@std@@@std@@YGAAV?$basic_ostream@_WU?$char_traits@_W@std@@@0@AAV10@D@Z 10064710 f i PhobosToolTip.obj
 0001:00063990       ??$?6_WU?$char_traits@_W@std@@@std@@YGAAV?$basic_ostream@_WU?$char_traits@_W@std@@@0@AAV10@PB_W@Z 10064990 f i PhobosToolTip.obj
 0001:00063bc0       ??$_Maklocstr@_W@std@@YAPA_WPBDPA_WABU_Cvtvec@@@Z 10064bc0 f i PhobosToolTip.obj
 0001:00063c90       ??$use_facet@V?$ctype@_W@std@@@std@@YAABV?$ctype@_W@0@ABVlocale@0@@Z 10064c90 f i PhobosToolTip.obj
 0001:00063e10       ??$use_facet@V?$numpunct@_W@std@@@std@@YAABV?$numpunct@_W@0@ABVlocale@0@@Z 10064e10 f i PhobosToolTip.obj
 0001:00064060       ??0?$basic_ostream@_WU?$char_traits@_W@std@@@std@@QAE@PAV?$basic_streambuf@_WU?$char_traits@_W@std@@@1@_N@Z 10065060 f i PhobosToolTip.obj
 0001:00064200       ??0?$basic_ostringstream@_WU?$char_traits@_W@std@@V?$allocator@_W@2@@std@@QAE@XZ 10065200 f i PhobosToolTip.obj
 0001:00064300       ??0?$basic_string@_WU?$char_traits@_W@std@@V?$allocator@_W@2@@std@@QAE@I_W@Z 10065300 f i PhobosToolTip.obj
 0001:00064400       ??0_Locinfo@std@@QAE@PBD@Z 10065400 f i PhobosToolTip.obj
 0001:00064470       ??0_System_error@std@@IAE@Verror_code@1@ABV?$basic_string@DU?$char_traits@D@std@@V?$allocator@D@2@@1@@Z 10065470 f i PhobosToolTip.obj
 0001:000645e0       ??0_System_error@std@@QAE@ABV01@@Z 100655e0 f i PhobosToolTip.obj
 0001:00064620       ??0failure@ios_base@std@@QAE@ABV012@@Z 10065620 f i PhobosToolTip.obj
 0001:00064670       ??0failure@ios_base@std@@QAE@PBDABVerror_code@2@@Z 10065670 f i PhobosToolTip.obj
 0001:00064710       ??0runtime_error@std@@QAE@ABV01@@Z 10065710 f i PhobosToolTip.obj
 0001:00064740       ??0sentry@?$basic_ostream@_WU?$char_traits@_W@std@@@std@@QAE@AAV12@@Z 10065740 f i PhobosToolTip.obj
 0001:000647b0       ??0system_error@std@@QAE@ABV01@@Z 100657b0 f i PhobosToolTip.obj
 0001:00064800       ??1?$basic_string@_WU?$char_traits@_W@std@@V?$allocator@_W@2@@std@@QAE@XZ 10065800 f i PhobosToolTip.obj
 0001:00064800       ?_Tidy_deallocate@?$basic_string@_WU?$char_traits@_W@std@@V?$allocator@_W@2@@std@@AAEXXZ 10065800 f i PhobosToolTip.obj
 0001:00064860       ??1?$basic_stringbuf@_WU?$char_traits@_W@std@@V?$allocator@_W@2@@std@@UAE@XZ 10065860 f i PhobosToolTip.obj
 0001:00064940       ??1_Locinfo@std@@QAE@XZ    10065940 f i PhobosToolTip.obj
 0001:000649e0       ??6?$basic_ostream@_WU?$char_traits@_W@std@@@std@@QAEAAV01@H@Z 100659e0 f i PhobosToolTip.obj
 0001:00064c80       ??_D?$basic_ostringstream@_WU?$char_traits@_W@std@@V?$allocator@_W@2@@std@@QAEXXZ 10065c80 f i PhobosToolTip.obj
 0001:00064cd3       ??_E?$basic_ostream@_WU?$char_traits@_W@std@@@std@@$4PPPPPPPM@A@AEPAXI@Z 10065cd3 f i PhobosToolTip.obj
 0001:00064cdb       ??_E?$basic_ostringstream@_WU?$char_traits@_W@std@@V?$allocator@_W@2@@std@@$4PPPPPPPM@A@AEPAXI@Z 10065cdb f i PhobosToolTip.obj
 0001:00064cf0       ??_E?$basic_ios@DU?$char_traits@D@std@@@std@@UAEPAXI@Z 10065cf0 f i ArmorTypeClass.obj
 0001:00064cf0       ??_E?$basic_ios@_WU?$char_traits@_W@std@@@std@@UAEPAXI@Z 10065cf0 f i PhobosToolTip.obj
 0001:00064cf0       ??_G?$basic_ios@DU?$char_traits@D@std@@@std@@UAEPAXI@Z 10065cf0 f i ArmorTypeClass.obj
 0001:00064cf0       ??_G?$basic_ios@_WU?$char_traits@_W@std@@@std@@UAEPAXI@Z 10065cf0 f i PhobosToolTip.obj
 0001:00064d20       ??_E?$basic_ostream@_WU?$char_traits@_W@std@@@std@@UAEPAXI@Z 10065d20 f i PhobosToolTip.obj
 0001:00064d20       ??_G?$basic_ostream@_WU?$char_traits@_W@std@@@std@@UAEPAXI@Z 10065d20 f i PhobosToolTip.obj
 0001:00064d70       ??_E?$basic_ostringstream@_WU?$char_traits@_W@std@@V?$allocator@_W@2@@std@@UAEPAXI@Z 10065d70 f i PhobosToolTip.obj
 0001:00064d70       ??_G?$basic_ostringstream@_WU?$char_traits@_W@std@@V?$allocator@_W@2@@std@@UAEPAXI@Z 10065d70 f i PhobosToolTip.obj
 0001:00064de0       ??_E?$basic_streambuf@_WU?$char_traits@_W@std@@@std@@UAEPAXI@Z 10065de0 f i PhobosToolTip.obj
 0001:00064de0       ??_G?$basic_streambuf@_WU?$char_traits@_W@std@@@std@@UAEPAXI@Z 10065de0 f i PhobosToolTip.obj
 0001:00064e30       ??_E?$basic_stringbuf@_WU?$char_traits@_W@std@@V?$allocator@_W@2@@std@@UAEPAXI@Z 10065e30 f i PhobosToolTip.obj
 0001:00064e30       ??_G?$basic_stringbuf@_WU?$char_traits@_W@std@@V?$allocator@_W@2@@std@@UAEPAXI@Z 10065e30 f i PhobosToolTip.obj
 0001:00064e50       ??_E?$ctype@_W@std@@MAEPAXI@Z 10065e50 f i PhobosToolTip.obj
 0001:00064e50       ??_G?$ctype@_W@std@@MAEPAXI@Z 10065e50 f i PhobosToolTip.obj
 0001:00064ea0       ??_E?$num_get@DV?$istreambuf_iterator@DU?$char_traits@D@std@@@std@@@std@@MAEPAXI@Z 10065ea0 f i ArmorTypeClass.obj
 0001:00064ea0       ??_E?$num_put@_WV?$ostreambuf_iterator@_WU?$char_traits@_W@std@@@std@@@std@@MAEPAXI@Z 10065ea0 f i PhobosToolTip.obj
 0001:00064ea0       ??_G?$num_get@DV?$istreambuf_iterator@DU?$char_traits@D@std@@@std@@@std@@MAEPAXI@Z 10065ea0 f i ArmorTypeClass.obj
 0001:00064ea0       ??_G?$num_put@_WV?$ostreambuf_iterator@_WU?$char_traits@_W@std@@@std@@@std@@MAEPAXI@Z 10065ea0 f i PhobosToolTip.obj
 0001:00064ed0       ??_E?$numpunct@_W@std@@MAEPAXI@Z 10065ed0 f i PhobosToolTip.obj
 0001:00064ed0       ??_G?$numpunct@_W@std@@MAEPAXI@Z 10065ed0 f i PhobosToolTip.obj
 0001:00064f20       ??_E_Facet_base@std@@UAEPAXI@Z 10065f20 f i PhobosToolTip.obj
 0001:00064f20       ??_G_Facet_base@std@@UAEPAXI@Z 10065f20 f i PhobosToolTip.obj
 0001:00064f50       ??_E_Iostream_error_category2@std@@UAEPAXI@Z 10065f50 f i PhobosToolTip.obj
 0001:00064f50       ??_G_Iostream_error_category2@std@@UAEPAXI@Z 10065f50 f i PhobosToolTip.obj
 0001:00064f70       ??_E_System_error@std@@UAEPAXI@Z 10065f70 f i PhobosToolTip.obj
 0001:00064f70       ??_Efailure@ios_base@std@@UAEPAXI@Z 10065f70 f i PhobosToolTip.obj
 0001:00064f70       ??_Esystem_error@std@@UAEPAXI@Z 10065f70 f i PhobosToolTip.obj
 0001:00064f70       ??_G_System_error@std@@UAEPAXI@Z 10065f70 f i PhobosToolTip.obj
 0001:00064f70       ??_Gfailure@ios_base@std@@UAEPAXI@Z 10065f70 f i PhobosToolTip.obj
 0001:00064f70       ??_Gsystem_error@std@@UAEPAXI@Z 10065f70 f i PhobosToolTip.obj
 0001:00064fa0       ??_Eios_base@std@@UAEPAXI@Z 10065fa0 f i PhobosToolTip.obj
 0001:00064fa0       ??_Gios_base@std@@UAEPAXI@Z 10065fa0 f i PhobosToolTip.obj
 0001:00064fd0       ?GetTechnoType@ObjectTypeClass@@SIPAVTechnoTypeClass@@W4AbstractType@@H@Z 10065fd0 f i PhobosToolTip.obj
 0001:00064ff0       ?HelpText@PhobosToolTip@@QAEXPAVSuperWeaponTypeClass@@@Z 10065ff0 f   PhobosToolTip.obj
 0001:000652b0       ?HelpText@PhobosToolTip@@QAEXPAVTechnoTypeClass@@@Z 100662b0 f   PhobosToolTip.obj
 0001:00065620       ?Process@ToolTipManager@@QAE_NXZ 10066620 f i PhobosToolTip.obj
 0001:00065640       ?_Decref@facet@locale@std@@UAEPAV_Facet_base@3@XZ 10066640 f i PhobosToolTip.obj
 0001:00065660       ?_Ffmt@?$num_put@_WV?$ostreambuf_iterator@_WU?$char_traits@_W@std@@@std@@@std@@ABAPADPADDH@Z 10066660 f i PhobosToolTip.obj
 0001:00065720       ?_Fput@?$num_put@_WV?$ostreambuf_iterator@_WU?$char_traits@_W@std@@@std@@@std@@ABA?AV?$ostreambuf_iterator@_WU?$char_traits@_W@std@@@2@V32@AAVios_base@2@_WPBDI@Z 10066720 f i PhobosToolTip.obj
 0001:00065c90       ?_Gnavail@?$basic_streambuf@DU?$char_traits@D@std@@@std@@IBE_JXZ 10066c90 f i ArmorTypeClass.obj
 0001:00065c90       ?_Gnavail@?$basic_streambuf@_WU?$char_traits@_W@std@@@std@@IBE_JXZ 10066c90 f i PhobosToolTip.obj
 0001:00065cb0       ?_Incref@facet@locale@std@@UAEXXZ 10066cb0 f i PhobosToolTip.obj
 0001:00065cc0       ?_Iput@?$num_put@_WV?$ostreambuf_iterator@_WU?$char_traits@_W@std@@@std@@@std@@ABA?AV?$ostreambuf_iterator@_WU?$char_traits@_W@std@@@2@V32@AAVios_base@2@_WPADI@Z 10066cc0 f i PhobosToolTip.obj
 0001:000661c0       ?_Osfx@?$basic_ostream@DU?$char_traits@D@std@@@std@@QAEXXZ 100671c0 f i ArmorTypeClass.obj
 0001:000661c0       ?_Osfx@?$basic_ostream@_WU?$char_traits@_W@std@@@std@@QAEXXZ 100671c0 f i PhobosToolTip.obj
 0001:00066240       ?_Pnavail@?$basic_streambuf@DU?$char_traits@D@std@@@std@@IBE_JXZ 10067240 f i ArmorTypeClass.obj
 0001:00066240       ?_Pnavail@?$basic_streambuf@_WU?$char_traits@_W@std@@@std@@IBE_JXZ 10067240 f i PhobosToolTip.obj
 0001:00066260       ?_Put@?$num_put@_WV?$ostreambuf_iterator@_WU?$char_traits@_W@std@@@std@@@std@@ABA?AV?$ostreambuf_iterator@_WU?$char_traits@_W@std@@@2@V32@PB_WI@Z 10067260 f i PhobosToolTip.obj
 0001:000662f0       ?_Rep@?$num_put@_WV?$ostreambuf_iterator@_WU?$char_traits@_W@std@@@std@@@std@@ABA?AV?$ostreambuf_iterator@_WU?$char_traits@_W@std@@@2@V32@_WI@Z 100672f0 f i PhobosToolTip.obj
 0001:00066370       ?append@?$basic_string@DU?$char_traits@D@std@@V?$allocator@D@2@@std@@QAEAAV12@ID@Z 10067370 f i PhobosToolTip.obj
 0001:000664d0       ?assign@?$basic_string@_WU?$char_traits@_W@std@@V?$allocator@_W@2@@std@@QAEAAV12@$$QAV12@@Z 100674d0 f i PhobosToolTip.obj
 0001:00066520       ?clear@ios_base@std@@QAEXH@Z 10067520 f i PhobosToolTip.obj
 0001:00066580       ?clear@ios_base@std@@QAEXH_N@Z 10067580 f i PhobosToolTip.obj
 0001:000665f0       ?deallocate@?$allocator@_W@std@@QAEXQA_WI@Z 100675f0 f i PhobosToolTip.obj
 0001:00066630       ?default_error_condition@error_category@std@@UBE?AVerror_condition@2@H@Z 10067630 f i PhobosToolTip.obj
 0001:00066640       ?do_decimal_point@?$numpunct@_W@std@@MBE_WXZ 10067640 f i PhobosToolTip.obj
 0001:00066650       ?do_falsename@?$numpunct@_W@std@@MBE?AV?$basic_string@_WU?$char_traits@_W@std@@V?$allocator@_W@2@@2@XZ 10067650 f i PhobosToolTip.obj
 0001:000666a0       ?do_grouping@?$numpunct@D@std@@MBE?AV?$basic_string@DU?$char_traits@D@std@@V?$allocator@D@2@@2@XZ 100676a0 f i ArmorTypeClass.obj
 0001:000666a0       ?do_grouping@?$numpunct@_W@std@@MBE?AV?$basic_string@DU?$char_traits@D@std@@V?$allocator@D@2@@2@XZ 100676a0 f i PhobosToolTip.obj
 0001:000666e0       ?do_is@?$ctype@_W@std@@MBEPB_WPB_W0PAF@Z 100676e0 f i PhobosToolTip.obj
 0001:00066700       ?do_is@?$ctype@_W@std@@MBE_NF_W@Z 10067700 f i PhobosToolTip.obj
 0001:00066720       ?do_narrow@?$ctype@_W@std@@MBED_WD@Z 10067720 f i PhobosToolTip.obj
 0001:00066770       ?do_narrow@?$ctype@_W@std@@MBEPB_WPB_W0DPAD@Z 10067770 f i PhobosToolTip.obj
 0001:000667e0       ?do_put@?$num_put@_WV?$ostreambuf_iterator@_WU?$char_traits@_W@std@@@std@@@std@@MBE?AV?$ostreambuf_iterator@_WU?$char_traits@_W@std@@@2@V32@AAVios_base@2@_WJ@Z 100677e0 f i PhobosToolTip.obj
 0001:000668b0       ?do_put@?$num_put@_WV?$ostreambuf_iterator@_WU?$char_traits@_W@std@@@std@@@std@@MBE?AV?$ostreambuf_iterator@_WU?$char_traits@_W@std@@@2@V32@AAVios_base@2@_WK@Z 100678b0 f i PhobosToolTip.obj
 0001:00066980       ?do_put@?$num_put@_WV?$ostreambuf_iterator@_WU?$char_traits@_W@std@@@std@@@std@@MBE?AV?$ostreambuf_iterator@_WU?$char_traits@_W@std@@@2@V32@AAVios_base@2@_WN@Z 10067980 f i PhobosToolTip.obj
 0001:00066b20       ?do_put@?$num_put@_WV?$ostreambuf_iterator@_WU?$char_traits@_W@std@@@std@@@std@@MBE?AV?$ostreambuf_iterator@_WU?$char_traits@_W@std@@@2@V32@AAVios_base@2@_WO@Z 10067b20 f i PhobosToolTip.obj
 0001:00066cc0       ?do_put@?$num_put@_WV?$ostreambuf_iterator@_WU?$char_traits@_W@std@@@std@@@std@@MBE?AV?$ostreambuf_iterator@_WU?$char_traits@_W@std@@@2@V32@AAVios_base@2@_WPBX@Z 10067cc0 f i PhobosToolTip.obj
 0001:00066d10       ?do_put@?$num_put@_WV?$ostreambuf_iterator@_WU?$char_traits@_W@std@@@std@@@std@@MBE?AV?$ostreambuf_iterator@_WU?$char_traits@_W@std@@@2@V32@AAVios_base@2@_W_J@Z 10067d10 f i PhobosToolTip.obj
 0001:00066df0       ?do_put@?$num_put@_WV?$ostreambuf_iterator@_WU?$char_traits@_W@std@@@std@@@std@@MBE?AV?$ostreambuf_iterator@_WU?$char_traits@_W@std@@@2@V32@AAVios_base@2@_W_K@Z 10067df0 f i PhobosToolTip.obj
 0001:00066ed0       ?do_put@?$num_put@_WV?$ostreambuf_iterator@_WU?$char_traits@_W@std@@@std@@@std@@MBE?AV?$ostreambuf_iterator@_WU?$char_traits@_W@std@@@2@V32@AAVios_base@2@_W_N@Z 10067ed0 f i PhobosToolTip.obj
 0001:000670a0       ?do_scan_is@?$ctype@_W@std@@MBEPB_WFPB_W0@Z 100680a0 f i PhobosToolTip.obj
 0001:000670e0       ?do_scan_not@?$ctype@_W@std@@MBEPB_WFPB_W0@Z 100680e0 f i PhobosToolTip.obj
 0001:00067120       ?do_thousands_sep@?$numpunct@_W@std@@MBE_WXZ 10068120 f i PhobosToolTip.obj
 0001:00067130       ?do_tolower@?$ctype@_W@std@@MBEPB_WPA_WPB_W@Z 10068130 f i PhobosToolTip.obj
 0001:00067170       ?do_tolower@?$ctype@_W@std@@MBE_W_W@Z 10068170 f i PhobosToolTip.obj
 0001:00067190       ?do_toupper@?$ctype@_W@std@@MBEPB_WPA_WPB_W@Z 10068190 f i PhobosToolTip.obj
 0001:000671d0       ?do_toupper@?$ctype@_W@std@@MBE_W_W@Z 100681d0 f i PhobosToolTip.obj
 0001:000671f0       ?do_truename@?$numpunct@_W@std@@MBE?AV?$basic_string@_WU?$char_traits@_W@std@@V?$allocator@_W@2@@2@XZ 100681f0 f i PhobosToolTip.obj
 0001:00067240       ?do_widen@?$ctype@_W@std@@MBEPBDPBD0PA_W@Z 10068240 f i PhobosToolTip.obj
 0001:000672c0       ?do_widen@?$ctype@_W@std@@MBE_WD@Z 100682c0 f i PhobosToolTip.obj
 0001:00067310       ?equivalent@error_category@std@@UBE_NABVerror_code@2@H@Z 10068310 f i PhobosToolTip.obj
 0001:00067340       ?equivalent@error_category@std@@UBE_NHABVerror_condition@2@@Z 10068340 f i PhobosToolTip.obj
 0001:00067380       ?flush@?$basic_ostream@_WU?$char_traits@_W@std@@@std@@QAEAAV12@XZ 10068380 f i PhobosToolTip.obj
 0001:000674c0       ?make_error_code@std@@YG?AVerror_code@1@W4io_errc@1@@Z 100684c0 f i PhobosToolTip.obj
 0001:000674e0       ?message@_Iostream_error_category2@std@@UBE?AV?$basic_string@DU?$char_traits@D@std@@V?$allocator@D@2@@2@H@Z 100684e0 f i PhobosToolTip.obj
 0001:000675a0       ?name@_Iostream_error_category2@std@@UBEPBDXZ 100685a0 f i PhobosToolTip.obj
 0001:000675b0       ?overflow@?$basic_streambuf@_WU?$char_traits@_W@std@@@std@@MAEGG@Z 100685b0 f i PhobosToolTip.obj
 0001:000675b0       ?pbackfail@?$basic_streambuf@_WU?$char_traits@_W@std@@@std@@MAEGG@Z 100685b0 f i PhobosToolTip.obj
 0001:000675c0       ?overflow@?$basic_stringbuf@_WU?$char_traits@_W@std@@V?$allocator@_W@2@@std@@MAEGG@Z 100685c0 f i PhobosToolTip.obj
 0001:00067730       ?pbackfail@?$basic_stringbuf@_WU?$char_traits@_W@std@@V?$allocator@_W@2@@std@@MAEGG@Z 10068730 f i PhobosToolTip.obj
 0001:000677a0       ?put@?$num_put@_WV?$ostreambuf_iterator@_WU?$char_traits@_W@std@@@std@@@std@@QBE?AV?$ostreambuf_iterator@_WU?$char_traits@_W@std@@@2@V32@AAVios_base@2@_WJ@Z 100687a0 f i PhobosToolTip.obj
 0001:000677d0       ?seekoff@?$basic_streambuf@DU?$char_traits@D@std@@@std@@MAE?AV?$fpos@U_Mbstatet@@@2@_JHH@Z 100687d0 f i ArmorTypeClass.obj
 0001:000677d0       ?seekoff@?$basic_streambuf@_WU?$char_traits@_W@std@@@std@@MAE?AV?$fpos@U_Mbstatet@@@2@_JHH@Z 100687d0 f i PhobosToolTip.obj
 0001:00067800       ?seekoff@?$basic_stringbuf@_WU?$char_traits@_W@std@@V?$allocator@_W@2@@std@@MAE?AV?$fpos@U_Mbstatet@@@2@_JHH@Z 10068800 f i PhobosToolTip.obj
 0001:000679b0       ?seekpos@?$basic_streambuf@DU?$char_traits@D@std@@@std@@MAE?AV?$fpos@U_Mbstatet@@@2@V32@H@Z 100689b0 f i ArmorTypeClass.obj
 0001:000679b0       ?seekpos@?$basic_streambuf@_WU?$char_traits@_W@std@@@std@@MAE?AV?$fpos@U_Mbstatet@@@2@V32@H@Z 100689b0 f i PhobosToolTip.obj
 0001:000679e0       ?seekpos@?$basic_stringbuf@_WU?$char_traits@_W@std@@V?$allocator@_W@2@@std@@MAE?AV?$fpos@U_Mbstatet@@@2@V32@H@Z 100689e0 f i PhobosToolTip.obj
 0001:00067b20       ?setbuf@?$basic_streambuf@DU?$char_traits@D@std@@@std@@MAEPAV12@PAD_J@Z 10068b20 f i ArmorTypeClass.obj
 0001:00067b20       ?setbuf@?$basic_streambuf@_WU?$char_traits@_W@std@@@std@@MAEPAV12@PA_W_J@Z 10068b20 f i PhobosToolTip.obj
 0001:00067b30       ?setstate@?$basic_ios@DU?$char_traits@D@std@@@std@@QAEXH_N@Z 10068b30 f i ArmorTypeClass.obj
 0001:00067b30       ?setstate@?$basic_ios@_WU?$char_traits@_W@std@@@std@@QAEXH_N@Z 10068b30 f i PhobosToolTip.obj
 0001:00067b60       ?showmanyc@?$basic_streambuf@DU?$char_traits@D@std@@@std@@MAE_JXZ 10068b60 f i ArmorTypeClass.obj
 0001:00067b60       ?showmanyc@?$basic_streambuf@_WU?$char_traits@_W@std@@@std@@MAE_JXZ 10068b60 f i PhobosToolTip.obj
 0001:00067b70       ?sputc@?$basic_streambuf@_WU?$char_traits@_W@std@@@std@@QAEG_W@Z 10068b70 f i PhobosToolTip.obj
 0001:00067bb0       ?sputn@?$basic_streambuf@_WU?$char_traits@_W@std@@@std@@QAE_JPB_W_J@Z 10068bb0 f i PhobosToolTip.obj
 0001:00067bd0       ?str@?$basic_stringbuf@_WU?$char_traits@_W@std@@V?$allocator@_W@2@@std@@QGBE?AV?$basic_string@_WU?$char_traits@_W@std@@V?$allocator@_W@2@@2@XZ 10068bd0 f i PhobosToolTip.obj
 0001:00067ce0       ?Get_Bytes_Per_Pixel@XSurface@@UBEHXZ 10068ce0 f i PNGFile.obj
 0001:00067ce0       ?Get_Pitch@XSurface@@UBEHXZ 10068ce0 f i PNGFile.obj
 0001:00067ce0       ?sync@?$basic_streambuf@DU?$char_traits@D@std@@@std@@MAEHXZ 10068ce0 f i ArmorTypeClass.obj
 0001:00067ce0       ?sync@?$basic_streambuf@_WU?$char_traits@_W@std@@@std@@MAEHXZ 10068ce0 f i PhobosToolTip.obj
 0001:00067cf0       ?uflow@?$basic_streambuf@_WU?$char_traits@_W@std@@@std@@MAEGXZ 10068cf0 f i PhobosToolTip.obj
 0001:00067d20       ?underflow@?$basic_streambuf@_WU?$char_traits@_W@std@@@std@@MAEGXZ 10068d20 f i PhobosToolTip.obj
 0001:00067d30       ?underflow@?$basic_stringbuf@_WU?$char_traits@_W@std@@V?$allocator@_W@2@@std@@MAEGXZ 10068d30 f i PhobosToolTip.obj
 0001:00067da0       ?xsgetn@?$basic_streambuf@_WU?$char_traits@_W@std@@@std@@MAE_JPA_W_J@Z 10068da0 f i PhobosToolTip.obj
 0001:00067e90       ?xsputn@?$basic_streambuf@_WU?$char_traits@_W@std@@@std@@MAE_JPB_W_J@Z 10068e90 f i PhobosToolTip.obj
 0001:00067f70       _CCToolTip_Draw1           10068f70 f   PhobosToolTip.obj
 0001:00067fe0       _CCToolTip_Draw2_SetBuffer 10068fe0 f   PhobosToolTip.obj
 0001:00068010       _CCToolTip_Draw2_SetMaxWidth 10069010 f   PhobosToolTip.obj
 0001:00068040       _CCToolTip_Draw2_SetSurface 10069040 f   PhobosToolTip.obj
 0001:00068060       _CCToolTip_Draw2_SetX      10069060 f   PhobosToolTip.obj
 0001:00068090       _CCToolTip_Draw2_SetY      10069090 f   PhobosToolTip.obj
 0001:000680d0       _SidebarClass_StripClass_HelpText 100690d0 f   PhobosToolTip.obj
 0001:00068140       ??0Surface@@QAE@HH@Z       10069140 f i PNGFile.obj
 0001:00068170       ??1BSurface@@UAE@XZ        10069170 f i PNGFile.obj
 0001:000681b0       ??1Surface@@UAE@XZ         100691b0 f i PNGFile.obj
 0001:000681d0       ??1XSurface@@UAE@XZ        100691d0 f i PNGFile.obj
 0001:00068200       ??_EBSurface@@UAEPAXI@Z    10069200 f i PNGFile.obj
 0001:00068200       ??_GBSurface@@UAEPAXI@Z    10069200 f i PNGFile.obj
 0001:00068220       ??_ESurface@@UAEPAXI@Z     10069220 f i PNGFile.obj
 0001:00068220       ??_GSurface@@UAEPAXI@Z     10069220 f i PNGFile.obj
 0001:00068240       ??_EXSurface@@UAEPAXI@Z    10069240 f i PNGFile.obj
 0001:00068240       ??_GXSurface@@UAEPAXI@Z    10069240 f i PNGFile.obj
 0001:00068260       ?Can_Lock@Surface@@UBE_NHH@Z 10069260 f i PNGFile.obj
 0001:00068280       ?Copy_From@XSurface@@UAE_NAAURectangleStruct@@0PAVSurface@@00_N2@Z 10069280 f i PNGFile.obj
 0001:000682a0       ?Copy_From@XSurface@@UAE_NAAURectangleStruct@@PAVSurface@@0_N2@Z 100692a0 f i PNGFile.obj
 0001:000682c0       ?Copy_From@XSurface@@UAE_NPAVSurface@@_N1@Z 100692c0 f i PNGFile.obj
 0001:000682e0       ?DrawDashedLine_@XSurface@@UAEHAAVPoint2D@@0IQA_NH_N@Z 100692e0 f i PNGFile.obj
 0001:000682f0       ?DrawLineColor_AZ@XSurface@@UAE_NAAURectangleStruct@@AAVPoint2D@@1IHH_N@Z 100692f0 f i PNGFile.obj
 0001:000682f0       ?DrawMultiplyingLine_AZ@XSurface@@UAE_NAAURectangleStruct@@AAVPoint2D@@1HHH_N@Z 100692f0 f i PNGFile.obj
 0001:000682f0       ?DrawRGBMultiplyingLine_AZ@XSurface@@UAE_NPAURectangleStruct@@PAVPoint2D@@1PAUColorStruct@@MKK@Z 100692f0 f i PNGFile.obj
 0001:00068300       ?DrawLine_@XSurface@@UAE_NAAVPoint2D@@0I_N@Z 10069300 f i PNGFile.obj
 0001:00068310       ?DrawSubtractiveLine_AZ@XSurface@@UAE_NAAURectangleStruct@@AAVPoint2D@@1AAUColorStruct@@HH_N333M@Z 10069310 f i PNGFile.obj
 0001:00068320       ?Draw_Dashed_Line@XSurface@@UAEHAAVPoint2D@@0IQA_NH@Z 10069320 f i PNGFile.obj
 0001:00068340       ?Draw_Ellipse@XSurface@@UAE_NVPoint2D@@HHURectangleStruct@@I@Z 10069340 f i PNGFile.obj
 0001:00068360       ?Draw_Line@XSurface@@UAE_NAAURectangleStruct@@AAVPoint2D@@1I@Z 10069360 f i PNGFile.obj
 0001:00068380       ?Draw_Line@XSurface@@UAE_NAAVPoint2D@@0I@Z 10069380 f i PNGFile.obj
 0001:000683a0       ?Draw_Rect@XSurface@@UAE_NAAURectangleStruct@@0I@Z 100693a0 f i PNGFile.obj
 0001:000683c0       ?Draw_Rect@XSurface@@UAE_NAAURectangleStruct@@I@Z 100693c0 f i PNGFile.obj
 0001:000683e0       ?Fill@XSurface@@UAE_NI@Z   100693e0 f i PNGFile.obj
 0001:00068400       ?Fill_Rect@XSurface@@UAE_NAAURectangleStruct@@0I@Z 10069400 f i PNGFile.obj
 0001:00068420       ?Fill_Rect@XSurface@@UAE_NAAURectangleStruct@@I@Z 10069420 f i PNGFile.obj
 0001:00068440       ?Fill_Rect_Trans@XSurface@@UAE_NAAURectangleStruct@@ABUColorStruct@@I@Z 10069440 f i PNGFile.obj
 0001:00068460       ?Get_Bytes_Per_Pixel@BSurface@@UBEHXZ 10069460 f i PNGFile.obj
 0001:00068480       ?Get_Height@Surface@@UBEHXZ 10069480 f i PNGFile.obj
 0001:000684a0       ?Get_Pitch@BSurface@@UBEHXZ 100694a0 f i PNGFile.obj
 0001:000684c0       ?Get_Pixel@XSurface@@UAEIAAVPoint2D@@@Z 100694c0 f i PNGFile.obj
 0001:000684e0       ?Get_Pixel_Clip@XSurface@@UAEIAAVPoint2D@@AAURectangleStruct@@@Z 100694e0 f i PNGFile.obj
 0001:00068500       ?Get_Rect@Surface@@UBE?AURectangleStruct@@XZ 10069500 f i PNGFile.obj
 0001:00068520       ?Get_Width@Surface@@UBEHXZ 10069520 f i PNGFile.obj
 0001:00068540       ?IsDSurface@Surface@@UBE_NXZ 10069540 f i PNGFile.obj
 0001:00068560       ?IsDSurface@XSurface@@UBE_NXZ 10069560 f i PNGFile.obj
 0001:00068570       ?Is_Locked@XSurface@@UBE_NXZ 10069570 f i PNGFile.obj
 0001:00068590       ?Lock@BSurface@@UAEPAXHH@Z 10069590 f i PNGFile.obj
 0001:000685b0       ?Lock@XSurface@@UAEPAXHH@Z 100695b0 f i PNGFile.obj
 0001:000685d0       ?PlotLine@XSurface@@UAE_NAAURectangleStruct@@AAVPoint2D@@1P6GX1@Z@Z 100695d0 f i PNGFile.obj
 0001:000685f0       ?Put_Pixel@XSurface@@UAE_NAAVPoint2D@@I@Z 100695f0 f i PNGFile.obj
 0001:00068610       ?Put_Pixel_Clip@XSurface@@UAE_NAAVPoint2D@@IAAURectangleStruct@@@Z 10069610 f i PNGFile.obj
 0001:00068630       ?Read@PNGFile@@YGPAVBSurface@@PAVFileClass@@PAEPAXJ@Z 10069630 f   PNGFile.obj
 0001:00068a20       ?Unlock@XSurface@@UAE_NXZ  10069a20 f i PNGFile.obj
 0001:00068a40       ?vt_entry_68@Surface@@UBE_NHH@Z 10069a40 f i PNGFile.obj
 0001:00068a60       _Read_PCX_File_InterceptPNG 10069a60 f   PNGFile.obj
 0001:00068a90       ?atoi@CRT@@SAHPBD@Z        10069a90 f i TextInput.obj
 0001:00068aa0       _MessageListClass_Input    10069aa0 f   TextInput.obj
 0001:00068b10       _WWUI_NewEditCtrl          10069b10 f   TextInput.obj
 0001:00068b80       ??$Create@VLoadOptionsClass@@U?$GameAllocator@VLoadOptionsClass@@@@$$V@Memory@@SGPAVLoadOptionsClass@@AAU?$GameAllocator@VLoadOptionsClass@@@@@Z 10069b80 f i RetryDialog.obj
 0001:00068bb0       ??0LoadOptionsClass@@QAE@XZ 10069bb0 f i RetryDialog.obj
 0001:00068bd0       ?Do@EvadeClass@@QAEXXZ     10069bd0 f i RetryDialog.obj
 0001:00068bf0       ?LoadDialog@LoadOptionsClass@@QAE_NXZ 10069bf0 f i RetryDialog.obj
 0001:00068c10       ?Process@WWMessageBox@@QAE?AW4Result@1@PB_W000_N@Z 10069c10 f i RetryDialog.obj
 0001:00068c30       ?Render@GScreenClass@@QAEXXZ 10069c30 f i RetryDialog.obj
 0001:00068c50       ?SetState@ToolTipManager@@QAEX_N@Z 10069c50 f i RetryDialog.obj
 0001:00068c70       ?Stop@ThemeClass@@QAEX_N@Z 10069c70 f i RetryDialog.obj
 0001:00068c90       _DoLose_RetryDialogForCampaigns 10069c90 f   RetryDialog.obj
 0001:00068da0       _LoadOptionClass_Dialog_CenterListBox 10069da0 f   RetryDialog.obj
 0001:00068f20       ?wcsicmp@CRT@@SAHPB_W0@Z   10069f20 f i Hooks.INIClass.obj
 0001:00068f30       _INIClass__Get_UUID        10069f30 f   Hooks.INIClass.obj
 0001:000690d0       _Game_Save_SavegameInformation 1006a0d0 f   Hooks.Savegame.obj
 0001:000690f0       _LoadGame_Phobos           1006a0f0 f   Hooks.Savegame.obj
 0001:00069100       _LoadOptionsClass_GetFileInfo 1006a100 f   Hooks.Savegame.obj
 0001:00069120       _SaveGame_Phobos           1006a120 f   Hooks.Savegame.obj
 0001:00069130       ?IsTypeSelecting@Game@@SG_NXZ 1006a130 f i Selection.obj
 0001:00069140       ?IsUndeployable@BuildingTypeClass@@QBE_NXZ 1006a140 f i Selection.obj
 0001:00069160       ?Tactical_MakeFilteredSelection@ExtSelection@@SIXPAVTacticalClass@@PAXP6I_NPAVObjectClass@@@Z@Z 1006a160 f i Selection.obj
 0001:00069330       ?Tactical_SelectFiltered@ExtSelection@@SGXPAVTacticalClass@@PAULTRBStruct@@P6I_NPAVObjectClass@@@Z_N@Z 1006a330 f i Selection.obj
 0001:00069500       ?UICommands_TypeSelect_7327D0@Game@@SIXPBD@Z 1006a500 f i Selection.obj
 0001:00069520       ?BlitToSurface@PCX@@QAE_NPAURectangleStruct@@PAVDSurface@@PAVBSurface@@G@Z 1006a520 f i Hooks.PCX.obj
 0001:00069540       ?GetSurface@PCX@@QAEPAVBSurface@@PBDPAUBytePalette@@@Z 1006a540 f i Hooks.PCX.obj
 0001:00069560       ?strstr@CRT@@SAPADPBD0@Z   1006a560 f i Hooks.PCX.obj
 0001:00069570       _PCX_LoadScreen            1006a570 f   Hooks.PCX.obj
 0001:00069690       _RGB_PCX_Loader            1006a690 f   Hooks.PCX.obj
 0001:000696b0       _StripClass_Draw_DrawMissing 1006a6b0 f   Hooks.PCX.obj
 0001:000697b0       ??_ECCINIClass@@UAEPAXI@Z  1006a7b0 f i Hooks.UI.obj
 0001:000697b0       ??_GCCINIClass@@UAEPAXI@Z  1006a7b0 f i Hooks.UI.obj
 0001:000697e0       ??_EINIClass@@UAEPAXI@Z    1006a7e0 f i Hooks.UI.obj
 0001:000697e0       ??_GINIClass@@UAEPAXI@Z    1006a7e0 f i Hooks.UI.obj
 0001:00069820       ?ReadCCFile@CCINIClass@@QAEPAV1@PAVFileClass@@_N1@Z 1006a820 f i Hooks.UI.obj
 0001:00069840       ?ReadPreviewPack@PreviewClass@@QAE_NAAVINIClass@@@Z 1006a840 f i Hooks.UI.obj
 0001:00069860       ?ReadStartPoints@ScenarioClass@@QAEXAAVINIClass@@@Z 1006a860 f i Hooks.UI.obj
 0001:000699a0       _CreditsClass_GraphicLogic_HarvesterCounter 1006a9a0 f   Hooks.UI.obj
 0001:00069c60       _LoadingScreen_DisableEmptySpawnPositions 1006ac60 f   Hooks.UI.obj
 0001:00069c80       _LoadingScreen_SkipPreview 1006ac80 f   Hooks.UI.obj
 0001:00069ca0       _PreviewClass_ReadPreview  1006aca0 f   Hooks.UI.obj
 0001:00069d70       _Replace_XXICON_With_New   1006ad70 f   Hooks.UI.obj
 0001:00069df0       _StripClass_DrawIt_GetSWData 1006adf0 f   Hooks.UI.obj
 0001:00069e00       _StripClass_DrawIt_GetTechnoData 1006ae00 f   Hooks.UI.obj
 0001:00069e10       _StripClass_Draw_GClock_ClearContext 1006ae10 f   Hooks.UI.obj
 0001:00069e30       _StripClass_OperatorLessThan_CameoPriority 1006ae30 f   Hooks.UI.obj
 0001:00069f30       _UI_ApplyAppIcon           1006af30 f   Hooks.UI.obj
 0001:00069f90       _LaserDrawClass_DrawInHouseColor_BetterDrawing 1006af90 f   Hooks.LaserDraw.obj
 0001:0006a0c0       _LaserDrawClass_DrawInHouseColor_Context_Set 1006b0c0 f   Hooks.LaserDraw.obj
 0001:0006a170       ??$_Emplace_reallocate@ULineDrawDataStruct@@@?$vector@ULineDrawDataStruct@@V?$allocator@ULineDrawDataStruct@@@std@@@std@@AAEPAULineDrawDataStruct@@QAU2@$$QAU2@@Z 1006b170 f i ElectricBoltClass.obj
 0001:0006a360       ??$_Uninitialized_copy@PAULineDrawDataStruct@@V?$allocator@ULineDrawDataStruct@@@std@@@std@@YGPAULineDrawDataStruct@@QAU1@0PAU1@AAV?$allocator@ULineDrawDataStruct@@@0@@Z 1006b360 f i ElectricBoltClass.obj
 0001:0006a360       ??$_Uninitialized_move@PAULineDrawDataStruct@@V?$allocator@ULineDrawDataStruct@@@std@@@std@@YGPAULineDrawDataStruct@@QAU1@0PAU1@AAV?$allocator@ULineDrawDataStruct@@@0@@Z 1006b360 f i ElectricBoltClass.obj
 0001:0006a3e0       ??$construct@ULineDrawDataStruct@@U1@@?$_Default_allocator_traits@V?$allocator@ULineDrawDataStruct@@@std@@@std@@SGXAAV?$allocator@ULineDrawDataStruct@@@1@QAULineDrawDataStruct@@$$QAU3@@Z 1006b3e0 f i ElectricBoltClass.obj
 0001:0006a430       ?AdjustForZ@Game@@SIHH@Z   1006b430 f i ElectricBoltClass.obj
 0001:0006a450       ?Clear_All@ElectricBoltManager@@SGXXZ 1006b450 f   ElectricBoltClass.obj
 0001:0006a520       ?Clip_Line@Game@@SI_NPAVPoint2D@@0PBURectangleStruct@@@Z 1006b520 f i ElectricBoltClass.obj
 0001:0006a540       ?Create@ElectricBoltClass@@QAEXAAUCoordStruct@@0HPAVParticleSystemTypeClass@@_N@Z 1006b540 f   ElectricBoltClass.obj
 0001:0006a5e0       ?Draw_All@ElectricBoltManager@@SGXXZ 1006b5e0 f   ElectricBoltClass.obj
 0001:0006a750       ?Draw_Bolts@ElectricBoltClass@@AAEXXZ 1006b750 f   ElectricBoltClass.obj
 0001:0006a8e0       ?Plot_Bolt@ElectricBoltClass@@AAEXAAUCoordStruct@@0@Z 1006b8e0 f   ElectricBoltClass.obj
 0001:0006b0c0       ??$_Destroy_range@V?$allocator@UItem@FlyingStrings@@@std@@@std@@YGXPAUItem@FlyingStrings@@QAU12@AAV?$allocator@UItem@FlyingStrings@@@0@@Z 1006c0c0 f i FlyingStrings.obj
 0001:0006b0f0       ??$_Emplace_reallocate@UItem@FlyingStrings@@@?$vector@UItem@FlyingStrings@@V?$allocator@UItem@FlyingStrings@@@std@@@std@@AAEPAUItem@FlyingStrings@@QAU23@$$QAU23@@Z 1006c0f0 f i FlyingStrings.obj
 0001:0006b320       ??$_Uninitialized_move@PAUItem@FlyingStrings@@V?$allocator@UItem@FlyingStrings@@@std@@@std@@YGPAUItem@FlyingStrings@@QAU12@0PAU12@AAV?$allocator@UItem@FlyingStrings@@@0@@Z 1006c320 f i FlyingStrings.obj
 0001:0006b350       ??0?$basic_string@_WU?$char_traits@_W@std@@V?$allocator@_W@2@@std@@QAE@QB_W@Z 1006c350 f i FlyingStrings.obj
 0001:0006b390       ??0Item@FlyingStrings@@QAE@$$QAU01@@Z 1006c390 f i FlyingStrings.obj
 0001:0006b420       ??1Item@FlyingStrings@@QAE@XZ 1006c420 f i FlyingStrings.obj
 0001:0006b480       ?Add@FlyingStrings@@SGXABV?$basic_string@_WU?$char_traits@_W@std@@V?$allocator@_W@2@@std@@ABUCoordStruct@@ABUColorStruct@@ABVPoint2D@@@Z 1006c480 f   FlyingStrings.obj
 0001:0006b670       ?AddMoneyString@FlyingStrings@@SGX_NHPAVTechnoClass@@ABW4AffectedHouse@@UCoordStruct@@VPoint2D@@ABUColorStruct@@@Z 1006c670 f   FlyingStrings.obj
 0001:0006b880       ?UpdateAll@FlyingStrings@@SGXXZ 1006c880 f   FlyingStrings.obj
 0001:0006ba80       ?deallocate@?$allocator@UItem@FlyingStrings@@@std@@QAEXQAUItem@FlyingStrings@@I@Z 1006ca80 f i FlyingStrings.obj
 0001:0006bac0       ??$Serialize@VPhobosStreamReader@@@LauchSWData@@QAE_NAAVPhobosStreamReader@@@Z 1006cac0 f i LauchSWData.obj
 0001:0006bc00       ?Load@LauchSWData@@QAE_NAAVPhobosStreamReader@@_N@Z 1006cc00 f   LauchSWData.obj
 0001:0006bc10       ?Read@?$Nullable@PAVSuperWeaponTypeClass@@@@QAEXAAVINI_EX@@PBD1_N@Z 1006cc10 f i LauchSWData.obj
 0001:0006bcb0       ?Read@LauchSWData@@QAE_NAAVINI_EX@@PBDH@Z 1006ccb0 f   LauchSWData.obj
 0001:0006bf50       ?Save@LauchSWData@@QBE_NAAVPhobosStreamWriter@@@Z 1006cf50 f   LauchSWData.obj
 0001:0006c010       ??$Serialize@VPhobosStreamReader@@@ShieldClass@@AAE_NAAVPhobosStreamReader@@@Z 1006d010 f i ShieldClass.obj
 0001:0006c2b0       ??$Serialize@VPhobosStreamWriter@@@ShieldClass@@AAE_NAAVPhobosStreamWriter@@@Z 1006d2b0 f i ShieldClass.obj
 0001:0006c450       ??$make_unique@VShieldClass@@AAPAVTechnoClass@@$0A@@std@@YG?AV?$unique_ptr@VShieldClass@@U?$default_delete@VShieldClass@@@std@@@0@AAPAVTechnoClass@@@Z 1006d450 f i ShieldClass.obj
 0001:0006c610       ??0ShieldClass@@QAE@PAVTechnoClass@@_N@Z 1006d610 f   ShieldClass.obj
 0001:0006c790       ??0ShieldClass@@QAE@XZ     1006d790 f   ShieldClass.obj
 0001:0006c850       ?BreakShield@ShieldClass@@QAEXPAVAnimTypeClass@@PAVWeaponTypeClass@@@Z 1006d850 f   ShieldClass.obj
 0001:0006c9e0       ?BuildingUnderAttack@HouseClass@@QAEXPAVBuildingClass@@@Z 1006d9e0 f i ShieldClass.obj
 0001:0006ca00       ?CanBePenetrated@ShieldClass@@QBE_NPAVWarheadTypeClass@@@Z 1006da00 f   ShieldClass.obj
 0001:0006ca80       ?CanBeTargeted@ShieldClass@@QBE_NPAVWeaponTypeClass@@@Z 1006da80 f   ShieldClass.obj
 0001:0006cb40       ?CloakCheck@ShieldClass@@AAEXXZ 1006db40 f   ShieldClass.obj
 0001:0006cbb0       ?Contains@?$ValueableVector@PAVShieldTypeClass@@@@QBE_NABQAVShieldTypeClass@@@Z 1006dbb0 f i ShieldClass.obj
 0001:0006cbd0       ?ConvertCheck@ShieldClass@@AAE_NXZ 1006dbd0 f   ShieldClass.obj
 0001:0006cf20       ?CreateAnim@ShieldClass@@AAEXXZ 1006df20 f   ShieldClass.obj
 0001:0006cfa0       ?DrawShieldBar@ShieldClass@@QAEXHPAVPoint2D@@PAURectangleStruct@@@Z 1006dfa0 f   ShieldClass.obj
 0001:0006cff0       ?DrawShieldBar_Building@ShieldClass@@AAEXHPAVPoint2D@@PAURectangleStruct@@@Z 1006dff0 f   ShieldClass.obj
 0001:0006d220       ?DrawShieldBar_Other@ShieldClass@@AAEXHPAVPoint2D@@PAURectangleStruct@@@Z 1006e220 f   ShieldClass.obj
 0001:0006d3c0       ?DrawShieldBar_Pip@ShieldClass@@AAEH_N@Z 1006e3c0 f   ShieldClass.obj
 0001:0006d4d0       ?DrawShieldBar_PipAmount@ShieldClass@@AAEHH@Z 1006e4d0 f   ShieldClass.obj
 0001:0006d550       ?GetFramesSinceLastBroken@ShieldClass@@QBEHXZ 1006e550 f   ShieldClass.obj
 0001:0006d560       ?GetHP@ShieldClass@@QBEHXZ 1006e560 f   ShieldClass.obj
 0001:0006d570       ?GetHealthRatio@ShieldClass@@QBENXZ 1006e570 f   ShieldClass.obj
 0001:0006d5a0       ?GetIdleAnimType@ShieldClass@@ABEPAVAnimTypeClass@@XZ 1006e5a0 f   ShieldClass.obj
 0001:0006d620       ?GetPercentageAmount@ShieldClass@@ABEHN@Z 1006e620 f   ShieldClass.obj
 0001:0006d690       ?GetType@ShieldClass@@QBEPAVShieldTypeClass@@XZ 1006e690 f   ShieldClass.obj
 0001:0006d6a0       ?InvalidatePointer@ShieldClass@@UAEXPAX_N@Z 1006e6a0 f   ShieldClass.obj
 0001:0006d6c0       ?IsActive@ShieldClass@@QBE_NXZ 1006e6c0 f   ShieldClass.obj
 0001:0006d6f0       ?IsAvailable@ShieldClass@@QBE_NXZ 1006e6f0 f   ShieldClass.obj
 0001:0006d700       ?IsBrokenAndNonRespawning@ShieldClass@@QBE_NXZ 1006e700 f   ShieldClass.obj
 0001:0006d730       ?KillAnim@ShieldClass@@QAEXXZ 1006e730 f   ShieldClass.obj
 0001:0006d730       ?OnRemove@ShieldClass@@UAEXXZ 1006e730 f   ShieldClass.obj
 0001:0006d780       ?Load@ShieldClass@@QAE_NAAVPhobosStreamReader@@_N@Z 1006e780 f   ShieldClass.obj
 0001:0006d790       ?OnReceiveDamage@ShieldClass@@UAEXPAUargs_ReceiveDamage@@@Z 1006e790 f   ShieldClass.obj
 0001:0006dbb0       ?OnTemporalUpdate@ShieldClass@@UAEXPAVTemporalClass@@@Z 1006ebb0 f   ShieldClass.obj
 0001:0006dca0       ?OnUpdate@ShieldClass@@UAEXXZ 1006eca0 f   ShieldClass.obj
 0001:0006e090       ?Play@VoxClass@@SIXPBDHH@Z 1006f090 f i ShieldClass.obj
 0001:0006e0b0       ?Save@ShieldClass@@QBE_NAAVPhobosStreamWriter@@@Z 1006f0b0 f   ShieldClass.obj
 0001:0006e0c0       ?SelfHealing@ShieldClass@@AAEXXZ 1006f0c0 f   ShieldClass.obj
 0001:0006e250       ?SetHP@ShieldClass@@QAEXH@Z 1006f250 f   ShieldClass.obj
 0001:0006e280       ?SetRespawn@ShieldClass@@QAEXHNH_N@Z 1006f280 f   ShieldClass.obj
 0001:0006e360       ?SetSelfHealing@ShieldClass@@QAEXHNH_N@Z 1006f360 f   ShieldClass.obj
 0001:0006e430       ?SyncShieldToAnother@ShieldClass@@SGXPAVTechnoClass@@0@Z 1006f430 f   ShieldClass.obj
 0001:0006e530       ?TEventIsShieldBroken@ShieldClass@@SG_NPAVObjectClass@@@Z 1006f530 f   ShieldClass.obj
 0001:0006e570       ?UpdateIdleAnim@ShieldClass@@AAEXXZ 1006f570 f   ShieldClass.obj
 0001:0006e5a0       ?reset@?$unique_ptr@VShieldClass@@U?$default_delete@VShieldClass@@@std@@@std@@QAEXPAVShieldClass@@@Z 1006f5a0 f i ShieldClass.obj
 0001:0006e610       ??0LaserDrawClass@@QAE@ABUCoordStruct@@0ABUColorStruct@@11H@Z 1006f610 f i VerticalLaserClass.obj
 0001:0006e6f0       ?AI@VerticalLaserClass@@QAEXHH@Z 1006f6f0 f   VerticalLaserClass.obj
 0001:0006e8c0       ?Clear@VerticalLaserClass@@SGXXZ 1006f8c0 f   VerticalLaserClass.obj
 0001:0006e910       ?LoadGlobals@VerticalLaserClass@@SG_NAAVPhobosStreamReader@@@Z 1006f910 f   VerticalLaserClass.obj
 0001:0006e930       ?OnUpdateAll@VerticalLaserClass@@SGXXZ 1006f930 f   VerticalLaserClass.obj
 0001:0006e9e0       ?SaveGlobals@VerticalLaserClass@@SG_NAAVPhobosStreamWriter@@@Z 1006f9e0 f   VerticalLaserClass.obj
 0001:0006ea70       ??$Serialize@VPhobosStreamReader@@@LaserTrailClass@@AAE_NAAVPhobosStreamReader@@@Z 1006fa70 f i LaserTrailClass.obj
 0001:0006ebf0       ?Load@LaserTrailClass@@QAE_NAAVPhobosStreamReader@@_N@Z 1006fbf0 f   LaserTrailClass.obj
 0001:0006ec00       ?Save@LaserTrailClass@@QBE_NAAVPhobosStreamWriter@@@Z 1006fc00 f   LaserTrailClass.obj
 0001:0006ecd0       ?Update@LaserTrailClass@@QAE_NABUCoordStruct@@@Z 1006fcd0 f   LaserTrailClass.obj
 0001:0006ef60       ??$?8DU?$char_traits@D@std@@@std@@YG_NABV?$istreambuf_iterator@DU?$char_traits@D@std@@@0@0@Z 1006ff60 f i ArmorTypeClass.obj
 0001:0006f000       ??$_Common_extract_with_num_get@M@?$basic_istream@DU?$char_traits@D@std@@@std@@AAEAAV01@AAM@Z 10070000 f i ArmorTypeClass.obj
 0001:0006f180       ??$_Destroy_range@V?$allocator@V?$unique_ptr@VArmorTypeClass@@U?$default_delete@VArmorTypeClass@@@std@@@std@@@std@@@std@@YGXPAV?$unique_ptr@VArmorTypeClass@@U?$default_delete@VArmorTypeClass@@@std@@@0@QAV10@AAV?$allocator@V?$unique_ptr@VArmorTypeClass@@U?$default_delete@VArmorTypeClass@@@std@@@std@@@0@@Z 10070180 f i ArmorTypeClass.obj
 0001:0006f1b0       ??$_Emplace_reallocate@V?$unique_ptr@VArmorTypeClass@@U?$default_delete@VArmorTypeClass@@@std@@@std@@@?$vector@V?$unique_ptr@VArmorTypeClass@@U?$default_delete@VArmorTypeClass@@@std@@@std@@V?$allocator@V?$unique_ptr@VArmorTypeClass@@U?$default_delete@VArmorTypeClass@@@std@@@std@@@2@@std@@AAEPAV?$unique_ptr@VArmorTypeClass@@U?$default_delete@VArmorTypeClass@@@std@@@1@QAV21@$$QAV21@@Z 100701b0 f i ArmorTypeClass.obj
 0001:0006f3a0       ??$_Getloctxt@V?$istreambuf_iterator@DU?$char_traits@D@std@@@std@@D@std@@YAHAAV?$istreambuf_iterator@DU?$char_traits@D@std@@@0@0IPBDW4_Case_sensitive@0@@Z 100703a0 f i ArmorTypeClass.obj
 0001:0006f740       ??$use_facet@V?$ctype@D@std@@@std@@YAABV?$ctype@D@0@ABVlocale@0@@Z 10070740 f i ArmorTypeClass.obj
 0001:0006f8b0       ??$use_facet@V?$num_get@DV?$istreambuf_iterator@DU?$char_traits@D@std@@@std@@@std@@@std@@YAABV?$num_get@DV?$istreambuf_iterator@DU?$char_traits@D@std@@@std@@@0@ABVlocale@0@@Z 100708b0 f i ArmorTypeClass.obj
 0001:0006f9f0       ??$use_facet@V?$numpunct@D@std@@@std@@YAABV?$numpunct@D@0@ABVlocale@0@@Z 100709f0 f i ArmorTypeClass.obj
 0001:0006fbd0       ??0?$basic_istream@DU?$char_traits@D@std@@@std@@QAE@PAV?$basic_streambuf@DU?$char_traits@D@std@@@1@_N@Z 10070bd0 f i ArmorTypeClass.obj
 0001:0006fd80       ??0?$basic_streambuf@DU?$char_traits@D@std@@@std@@IAE@XZ 10070d80 f i ArmorTypeClass.obj
 0001:0006fe00       ??0?$basic_string@DU?$char_traits@D@std@@V?$allocator@D@2@@std@@QAE@ID@Z 10070e00 f i ArmorTypeClass.obj
 0001:0006feb0       ??0?$istreambuf_iterator@DU?$char_traits@D@std@@@std@@QAE@AAV?$basic_istream@DU?$char_traits@D@std@@@1@@Z 10070eb0 f i ArmorTypeClass.obj
 0001:0006fed0       ??1?$basic_stringbuf@DU?$char_traits@D@std@@V?$allocator@D@2@@std@@UAE@XZ 10070ed0 f i ArmorTypeClass.obj
 0001:0006ffa0       ??1locale@std@@QAE@XZ      10070fa0 f i ArmorTypeClass.obj
 0001:0006ffb9       ??_E?$basic_istream@DU?$char_traits@D@std@@@std@@$4PPPPPPPM@A@AEPAXI@Z 10070fb9 f i ArmorTypeClass.obj
 0001:0006ffc1       ??_E?$basic_istringstream@DU?$char_traits@D@std@@V?$allocator@D@2@@std@@$4PPPPPPPM@A@AEPAXI@Z 10070fc1 f i ArmorTypeClass.obj
 0001:0006ffd0       ??_E?$basic_istream@DU?$char_traits@D@std@@@std@@UAEPAXI@Z 10070fd0 f i ArmorTypeClass.obj
 0001:0006ffd0       ??_G?$basic_istream@DU?$char_traits@D@std@@@std@@UAEPAXI@Z 10070fd0 f i ArmorTypeClass.obj
 0001:00070020       ??_E?$basic_istringstream@DU?$char_traits@D@std@@V?$allocator@D@2@@std@@UAEPAXI@Z 10071020 f i ArmorTypeClass.obj
 0001:00070020       ??_G?$basic_istringstream@DU?$char_traits@D@std@@V?$allocator@D@2@@std@@UAEPAXI@Z 10071020 f i ArmorTypeClass.obj
 0001:00070090       ??_E?$basic_streambuf@DU?$char_traits@D@std@@@std@@UAEPAXI@Z 10071090 f i ArmorTypeClass.obj
 0001:00070090       ??_G?$basic_streambuf@DU?$char_traits@D@std@@@std@@UAEPAXI@Z 10071090 f i ArmorTypeClass.obj
 0001:000700e0       ??_E?$basic_stringbuf@DU?$char_traits@D@std@@V?$allocator@D@2@@std@@UAEPAXI@Z 100710e0 f i ArmorTypeClass.obj
 0001:000700e0       ??_G?$basic_stringbuf@DU?$char_traits@D@std@@V?$allocator@D@2@@std@@UAEPAXI@Z 100710e0 f i ArmorTypeClass.obj
 0001:00070100       ??_E?$ctype@D@std@@MAEPAXI@Z 10071100 f i ArmorTypeClass.obj
 0001:00070100       ??_G?$ctype@D@std@@MAEPAXI@Z 10071100 f i ArmorTypeClass.obj
 0001:00070150       ??_E?$numpunct@D@std@@MAEPAXI@Z 10071150 f i ArmorTypeClass.obj
 0001:00070150       ??_G?$numpunct@D@std@@MAEPAXI@Z 10071150 f i ArmorTypeClass.obj
 0001:000701a0       ??_EArmorTypeClass@@UAEPAXI@Z 100711a0 f i ArmorTypeClass.obj
 0001:000701a0       ??_GArmorTypeClass@@UAEPAXI@Z 100711a0 f i ArmorTypeClass.obj
 0001:000701c0       ?AddDefaults@ArmorTypeClass@@SGXXZ 100711c0 f   ArmorTypeClass.obj
 0001:000702c0       ?FindIndex@?$Enumerable@VArmorTypeClass@@@@SGHPBD@Z 100712c0 f i ArmorTypeClass.obj
 0001:00070320       ?IsDefault@ArmorTypeClass@@SG_NPBD@Z 10071320 f   ArmorTypeClass.obj
 0001:00070360       ?IsValidArmorValue@Conversions@@SG_NPBD@Z 10071360 f i ArmorTypeClass.obj
 0001:00070590       ?LoadFromINI@ArmorTypeClass@@UAEXPAVCCINIClass@@@Z 10071590 f   ArmorTypeClass.obj
 0001:00070600       ?LoadFromINIList_New@ArmorTypeClass@@SGXPAVCCINIClass@@_N@Z 10071600 f   ArmorTypeClass.obj
 0001:00070920       ?LoadFromStream@ArmorTypeClass@@UAEXAAVPhobosStreamReader@@@Z 10071920 f   ArmorTypeClass.obj
 0001:00070970       ?SaveToStream@ArmorTypeClass@@UAEXAAVPhobosStreamWriter@@@Z 10071970 f   ArmorTypeClass.obj
 0001:000709a0       ?_Getffld@?$num_get@DV?$istreambuf_iterator@DU?$char_traits@D@std@@@std@@@std@@ABAHPADAAV?$istreambuf_iterator@DU?$char_traits@D@std@@@2@1AAVios_base@2@PAH@Z 100719a0 f i ArmorTypeClass.obj
 0001:00071bf0       ?_Getffldx@?$num_get@DV?$istreambuf_iterator@DU?$char_traits@D@std@@@std@@@std@@ABAHPADAAV?$istreambuf_iterator@DU?$char_traits@D@std@@@2@1AAVios_base@2@PAH@Z 10072bf0 f i ArmorTypeClass.obj
 0001:00072f80       ?_Getifld@?$num_get@DV?$istreambuf_iterator@DU?$char_traits@D@std@@@std@@@std@@ABAHPADAAV?$istreambuf_iterator@DU?$char_traits@D@std@@@2@1HABVlocale@2@@Z 10073f80 f i ArmorTypeClass.obj
 0001:00073970       ?_Ipfx@?$basic_istream@DU?$char_traits@D@std@@@std@@QAE_N_N@Z 10074970 f i ArmorTypeClass.obj
 0001:00073b90       ?do_decimal_point@?$numpunct@D@std@@MBEDXZ 10074b90 f i ArmorTypeClass.obj
 0001:00073ba0       ?do_falsename@?$numpunct@D@std@@MBE?AV?$basic_string@DU?$char_traits@D@std@@V?$allocator@D@2@@2@XZ 10074ba0 f i ArmorTypeClass.obj
 0001:00073be0       ?do_get@?$num_get@DV?$istreambuf_iterator@DU?$char_traits@D@std@@@std@@@std@@MBE?AV?$istreambuf_iterator@DU?$char_traits@D@std@@@2@V32@0AAVios_base@2@AAHAAG@Z 10074be0 f i ArmorTypeClass.obj
 0001:00073ce0       ?do_get@?$num_get@DV?$istreambuf_iterator@DU?$char_traits@D@std@@@std@@@std@@MBE?AV?$istreambuf_iterator@DU?$char_traits@D@std@@@2@V32@0AAVios_base@2@AAHAAI@Z 10074ce0 f i ArmorTypeClass.obj
 0001:00073dd0       ?do_get@?$num_get@DV?$istreambuf_iterator@DU?$char_traits@D@std@@@std@@@std@@MBE?AV?$istreambuf_iterator@DU?$char_traits@D@std@@@2@V32@0AAVios_base@2@AAHAAJ@Z 10074dd0 f i ArmorTypeClass.obj
 0001:00073eb0       ?do_get@?$num_get@DV?$istreambuf_iterator@DU?$char_traits@D@std@@@std@@@std@@MBE?AV?$istreambuf_iterator@DU?$char_traits@D@std@@@2@V32@0AAVios_base@2@AAHAAK@Z 10074eb0 f i ArmorTypeClass.obj
 0001:00073f90       ?do_get@?$num_get@DV?$istreambuf_iterator@DU?$char_traits@D@std@@@std@@@std@@MBE?AV?$istreambuf_iterator@DU?$char_traits@D@std@@@2@V32@0AAVios_base@2@AAHAAM@Z 10074f90 f i ArmorTypeClass.obj
 0001:000740e0       ?do_get@?$num_get@DV?$istreambuf_iterator@DU?$char_traits@D@std@@@std@@@std@@MBE?AV?$istreambuf_iterator@DU?$char_traits@D@std@@@2@V32@0AAVios_base@2@AAHAAN@Z 100750e0 f i ArmorTypeClass.obj
 0001:00074220       ?do_get@?$num_get@DV?$istreambuf_iterator@DU?$char_traits@D@std@@@std@@@std@@MBE?AV?$istreambuf_iterator@DU?$char_traits@D@std@@@2@V32@0AAVios_base@2@AAHAAO@Z 10075220 f i ArmorTypeClass.obj
 0001:00074390       ?do_get@?$num_get@DV?$istreambuf_iterator@DU?$char_traits@D@std@@@std@@@std@@MBE?AV?$istreambuf_iterator@DU?$char_traits@D@std@@@2@V32@0AAVios_base@2@AAHAAPAX@Z 10075390 f i ArmorTypeClass.obj
 0001:00074460       ?do_get@?$num_get@DV?$istreambuf_iterator@DU?$char_traits@D@std@@@std@@@std@@MBE?AV?$istreambuf_iterator@DU?$char_traits@D@std@@@2@V32@0AAVios_base@2@AAHAA_J@Z 10075460 f i ArmorTypeClass.obj
 0001:00074550       ?do_get@?$num_get@DV?$istreambuf_iterator@DU?$char_traits@D@std@@@std@@@std@@MBE?AV?$istreambuf_iterator@DU?$char_traits@D@std@@@2@V32@0AAVios_base@2@AAHAA_K@Z 10075550 f i ArmorTypeClass.obj
 0001:00074640       ?do_get@?$num_get@DV?$istreambuf_iterator@DU?$char_traits@D@std@@@std@@@std@@MBE?AV?$istreambuf_iterator@DU?$char_traits@D@std@@@2@V32@0AAVios_base@2@AAHAA_N@Z 10075640 f i ArmorTypeClass.obj
 0001:00074a00       ?do_narrow@?$ctype@D@std@@MBEDDD@Z 10075a00 f i ArmorTypeClass.obj
 0001:00074a10       ?do_narrow@?$ctype@D@std@@MBEPBDPBD0DPAD@Z 10075a10 f i ArmorTypeClass.obj
 0001:00074a30       ?do_thousands_sep@?$numpunct@D@std@@MBEDXZ 10075a30 f i ArmorTypeClass.obj
 0001:00074a40       ?do_tolower@?$ctype@D@std@@MBEDD@Z 10075a40 f i ArmorTypeClass.obj
 0001:00074a60       ?do_tolower@?$ctype@D@std@@MBEPBDPADPBD@Z 10075a60 f i ArmorTypeClass.obj
 0001:00074a90       ?do_toupper@?$ctype@D@std@@MBEDD@Z 10075a90 f i ArmorTypeClass.obj
 0001:00074ab0       ?do_toupper@?$ctype@D@std@@MBEPBDPADPBD@Z 10075ab0 f i ArmorTypeClass.obj
 0001:00074ae0       ?do_truename@?$numpunct@D@std@@MBE?AV?$basic_string@DU?$char_traits@D@std@@V?$allocator@D@2@@2@XZ 10075ae0 f i ArmorTypeClass.obj
 0001:00074b20       ?do_widen@?$ctype@D@std@@MBEDD@Z 10075b20 f i ArmorTypeClass.obj
 0001:00074b30       ?do_widen@?$ctype@D@std@@MBEPBDPBD0PAD@Z 10075b30 f i ArmorTypeClass.obj
 0001:00074b50       ?flush@?$basic_ostream@DU?$char_traits@D@std@@@std@@QAEAAV12@XZ 10075b50 f i ArmorTypeClass.obj
 0001:00074cb0       ?get@?$num_get@DV?$istreambuf_iterator@DU?$char_traits@D@std@@@std@@@std@@QBE?AV?$istreambuf_iterator@DU?$char_traits@D@std@@@2@V32@0AAVios_base@2@AAHAAM@Z 10075cb0 f i ArmorTypeClass.obj
 0001:00074ce0       ?overflow@?$basic_streambuf@DU?$char_traits@D@std@@@std@@MAEHH@Z 10075ce0 f i ArmorTypeClass.obj
 0001:00074ce0       ?pbackfail@?$basic_streambuf@DU?$char_traits@D@std@@@std@@MAEHH@Z 10075ce0 f i ArmorTypeClass.obj
 0001:00074cf0       ?overflow@?$basic_stringbuf@DU?$char_traits@D@std@@V?$allocator@D@2@@std@@MAEHH@Z 10075cf0 f i ArmorTypeClass.obj
 0001:00074e40       ?pbackfail@?$basic_stringbuf@DU?$char_traits@D@std@@V?$allocator@D@2@@std@@MAEHH@Z 10075e40 f i ArmorTypeClass.obj
 0001:00074e90       ?push_back@?$basic_string@DU?$char_traits@D@std@@V?$allocator@D@2@@std@@QAEXD@Z 10075e90 f i ArmorTypeClass.obj
 0001:00074fa0       ?seekoff@?$basic_stringbuf@DU?$char_traits@D@std@@V?$allocator@D@2@@std@@MAE?AV?$fpos@U_Mbstatet@@@2@_JHH@Z 10075fa0 f i ArmorTypeClass.obj
 0001:00075120       ?seekpos@?$basic_stringbuf@DU?$char_traits@D@std@@V?$allocator@D@2@@std@@MAE?AV?$fpos@U_Mbstatet@@@2@V32@H@Z 10076120 f i ArmorTypeClass.obj
 0001:00075240       ?sgetc@?$basic_streambuf@DU?$char_traits@D@std@@@std@@QAEHXZ 10076240 f i ArmorTypeClass.obj
 0001:00075260       ?snextc@?$basic_streambuf@DU?$char_traits@D@std@@@std@@QAEHXZ 10076260 f i ArmorTypeClass.obj
 0001:000752d0       ?strchr@CRT@@SAPADPBDH@Z   100762d0 f i ArmorTypeClass.obj
 0001:000752e0       ?uflow@?$basic_streambuf@DU?$char_traits@D@std@@@std@@MAEHXZ 100762e0 f i ArmorTypeClass.obj
 0001:00075310       ?raw_length@pDNameNode@@UBEHXZ 10076310 f i libvcruntime:undname.obj
 0001:00075310       ?underflow@?$basic_streambuf@DU?$char_traits@D@std@@@std@@MAEHXZ 10076310 f i ArmorTypeClass.obj
 0001:00075320       ?underflow@?$basic_stringbuf@DU?$char_traits@D@std@@V?$allocator@D@2@@std@@MAEHXZ 10076320 f i ArmorTypeClass.obj
 0001:00075380       ?xsgetn@?$basic_streambuf@DU?$char_traits@D@std@@@std@@MAE_JPAD_J@Z 10076380 f i ArmorTypeClass.obj
 0001:00075460       ?xsputn@?$basic_streambuf@DU?$char_traits@D@std@@@std@@MAE_JPBD_J@Z 10076460 f i ArmorTypeClass.obj
 0001:00075540       ??$Serialize@VPhobosStreamReader@@@HoverTypeClass@@AAEXAAVPhobosStreamReader@@@Z 10076540 f i HoverTypeClass.obj
 0001:000757a0       ??$Serialize@VPhobosStreamWriter@@@HoverTypeClass@@AAEXAAVPhobosStreamWriter@@@Z 100767a0 f i HoverTypeClass.obj
 0001:000758d0       ?GetMainSection@?$Enumerable@VHoverTypeClass@@@@SGPBDXZ 100768d0 f   HoverTypeClass.obj
 0001:000758e0       ?LoadFromINI@HoverTypeClass@@UAEXPAVCCINIClass@@@Z 100768e0 f   HoverTypeClass.obj
 0001:000759a0       ?LoadFromStream@HoverTypeClass@@UAEXAAVPhobosStreamReader@@@Z 100769a0 f   HoverTypeClass.obj
 0001:000759b0       ?SaveToStream@HoverTypeClass@@UAEXAAVPhobosStreamWriter@@@Z 100769b0 f   HoverTypeClass.obj
 0001:000759c0       ??$Serialize@VPhobosStreamReader@@@RadTypeClass@@AAEXAAVPhobosStreamReader@@@Z 100769c0 f i RadTypeClass.obj
 0001:00075dc0       ??$Serialize@VPhobosStreamWriter@@@RadTypeClass@@AAEXAAVPhobosStreamWriter@@@Z 10076dc0 f i RadTypeClass.obj
 0001:00075fd0       ??$_Destroy_range@V?$allocator@V?$unique_ptr@VRadTypeClass@@U?$default_delete@VRadTypeClass@@@std@@@std@@@std@@@std@@YGXPAV?$unique_ptr@VRadTypeClass@@U?$default_delete@VRadTypeClass@@@std@@@0@QAV10@AAV?$allocator@V?$unique_ptr@VRadTypeClass@@U?$default_delete@VRadTypeClass@@@std@@@std@@@0@@Z 10076fd0 f i RadTypeClass.obj
 0001:00076000       ??$_Emplace_reallocate@V?$unique_ptr@VRadTypeClass@@U?$default_delete@VRadTypeClass@@@std@@@std@@@?$vector@V?$unique_ptr@VRadTypeClass@@U?$default_delete@VRadTypeClass@@@std@@@std@@V?$allocator@V?$unique_ptr@VRadTypeClass@@U?$default_delete@VRadTypeClass@@@std@@@std@@@2@@std@@AAEPAV?$unique_ptr@VRadTypeClass@@U?$default_delete@VRadTypeClass@@@std@@@1@QAV21@$$QAV21@@Z 10077000 f i RadTypeClass.obj
 0001:000761f0       ??0RadTypeClass@@QAE@QBD@Z 100771f0 f i RadTypeClass.obj
 0001:000762c0       ??_ERadTypeClass@@UAEPAXI@Z 100772c0 f i RadTypeClass.obj
 0001:000762c0       ??_GRadTypeClass@@UAEPAXI@Z 100772c0 f i RadTypeClass.obj
 0001:000762e0       ?AddDefaults@RadTypeClass@@SGXXZ 100772e0 f   RadTypeClass.obj
 0001:000763c0       ?GetMainSection@?$Enumerable@VRadTypeClass@@@@SGPBDXZ 100773c0 f   RadTypeClass.obj
 0001:000763d0       ?LoadFromINI@RadTypeClass@@UAEXPAVCCINIClass@@@Z 100773d0 f   RadTypeClass.obj
 0001:00076520       ?LoadFromStream@RadTypeClass@@UAEXAAVPhobosStreamReader@@@Z 10077520 f   RadTypeClass.obj
 0001:00076530       ?SaveToStream@RadTypeClass@@UAEXAAVPhobosStreamWriter@@@Z 10077530 f   RadTypeClass.obj
 0001:00076540       ??$Serialize@VPhobosStreamReader@@@ShieldTypeClass@@AAEXAAVPhobosStreamReader@@@Z 10077540 f i ShieldTypeClass.obj
 0001:00076a50       ??$Serialize@VPhobosStreamWriter@@@ShieldTypeClass@@AAEXAAVPhobosStreamWriter@@@Z 10077a50 f i ShieldTypeClass.obj
 0001:00076e20       ?GetIdleAnimType@ShieldTypeClass@@QAEPAVAnimTypeClass@@_NN@Z 10077e20 f   ShieldTypeClass.obj
 0001:00076ed0       ?GetMainSection@?$Enumerable@VShieldTypeClass@@@@SGPBDXZ 10077ed0 f   ShieldTypeClass.obj
 0001:00076ee0       ?LoadFromINI@ShieldTypeClass@@UAEXPAVCCINIClass@@@Z 10077ee0 f   ShieldTypeClass.obj
 0001:00077190       ?LoadFromStream@ShieldTypeClass@@UAEXAAVPhobosStreamReader@@@Z 10078190 f   ShieldTypeClass.obj
 0001:000771a0       ?Read@?$Damageable@PAVAnimTypeClass@@@@QAEXAAVINI_EX@@PBD11@Z 100781a0 f i ShieldTypeClass.obj
 0001:00077250       ?Read@?$Valueable@W4AttachedAnimFlag@@@@QAEXAAVINI_EX@@PBD1_N@Z 10078250 f i ShieldTypeClass.obj
 0001:00077340       ?SaveToStream@ShieldTypeClass@@UAEXAAVPhobosStreamWriter@@@Z 10078340 f   ShieldTypeClass.obj
 0001:00077350       ??$Serialize@VPhobosStreamReader@@@LaserTrailTypeClass@@AAEXAAVPhobosStreamReader@@@Z 10078350 f i LaserTrailTypeClass.obj
 0001:00077450       ??_ELaserTrailTypeClass@@UAEPAXI@Z 10078450 f i LaserTrailTypeClass.obj
 0001:00077450       ??_GLaserTrailTypeClass@@UAEPAXI@Z 10078450 f i LaserTrailTypeClass.obj
 0001:00077470       ?GetMainSection@?$Enumerable@VLaserTrailTypeClass@@@@SGPBDXZ 10078470 f   LaserTrailTypeClass.obj
 0001:00077480       ?LoadFromINI@LaserTrailTypeClass@@UAEXPAVCCINIClass@@@Z 10078480 f   LaserTrailTypeClass.obj
 0001:00077540       ?LoadFromStream@LaserTrailTypeClass@@UAEXAAVPhobosStreamReader@@@Z 10078540 f   LaserTrailTypeClass.obj
 0001:00077550       ?SaveToStream@LaserTrailTypeClass@@UAEXAAVPhobosStreamWriter@@@Z 10078550 f   LaserTrailTypeClass.obj
 0001:00077600       ??$Serialize@VPhobosStreamReader@@@ExtData@BulletTypeExt@@AAEXAAVPhobosStreamReader@@@Z 10078600 f i Body.obj
 0001:00077d40       ??$Serialize@VPhobosStreamWriter@@@ExtData@BulletTypeExt@@AAEXAAVPhobosStreamWriter@@@Z 10078d40 f i Body.obj
 0001:000781d0       ??0BulletTypeClass@@QAE@PBD@Z 100791d0 f i Body.obj
 0001:00078220       ??0ExtData@BulletTypeExt@@QAE@PAVBulletTypeClass@@@Z 10079220 f i Body.obj
 0001:000783c0       ??1ExtContainer@BulletTypeExt@@UAE@XZ 100793c0 f   Body.obj
 0001:00078420       ??1ExtData@BulletTypeExt@@UAE@XZ 10079420 f   Body.obj
 0001:00078500       ??_EExtContainer@BulletTypeExt@@UAEPAXI@Z 10079500 f i Body.obj
 0001:00078500       ??_GExtContainer@BulletTypeExt@@UAEPAXI@Z 10079500 f i Body.obj
 0001:00078530       ??_EExtData@BulletTypeExt@@UAEPAXI@Z 10079530 f i Body.obj
 0001:00078530       ??_GExtData@BulletTypeExt@@UAEPAXI@Z 10079530 f i Body.obj
 0001:00078630       ?CreateBullet@ExtData@BulletTypeExt@@QBEPAVBulletClass@@PAVAbstractClass@@PAVTechnoClass@@HPAVWarheadTypeClass@@HH_N@Z 10079630 f   Body.obj
 0001:00078690       ?CreateBullet@ExtData@BulletTypeExt@@QBEPAVBulletClass@@PAVAbstractClass@@PAVTechnoClass@@PAVWeaponTypeClass@@@Z 10079690 f   Body.obj
 0001:00078740       ?Find@BulletTypeClass@@SIPAV1@PBD@Z 10079740 f i Body.obj
 0001:00078780       ?FindOrAllocate@BulletTypeClass@@SIPAV1@PBD@Z 10079780 f i Body.obj
 0001:000787e0       ?GetAdjustedGravity@BulletTypeExt@@SGNPAVBulletTypeClass@@@Z 100797e0 f   Body.obj
 0001:00078820       ?GetDefaultBulletType@BulletTypeExt@@SGPAVBulletTypeClass@@XZ 10079820 f   Body.obj
 0001:00078830       ?GetExtData@BulletTypeExt@@SGPAVExtData@1@PAVBulletTypeClass@@@Z 10079830 f   Body.obj
 0001:00078850       ?HasSplitBehavior@ExtData@BulletTypeExt@@QAE_NXZ 10079850 f   Body.obj
 0001:00078870       ?Initialize@ExtData@BulletTypeExt@@UAEXXZ 10079870 f i Body.obj
 0001:00078890       ?InvalidatePointer@ExtData@BulletTypeExt@@UAEXPAX_N@Z 10079890 f   Body.obj
 0001:000788b0       ?Load@?$Container@VBulletTypeExt@@@@MAE_NPAVBulletTypeClass@@PAUIStream@@@Z 100798b0 f i Body.obj
 0001:000788d0       ?LoadFromINIFile@ExtData@BulletTypeExt@@UAEXPAVCCINIClass@@@Z 100798d0 f   Body.obj
 0001:00078c40       ?LoadFromStream@ExtData@BulletTypeExt@@UAEXAAVPhobosStreamReader@@@Z 10079c40 f   Body.obj
 0001:00078c70       ?LoadKey@?$Container@VBulletTypeExt@@@@IAEPAVExtData@BulletTypeExt@@PAVBulletTypeClass@@PAUIStream@@@Z 10079c70 f i Body.obj
 0001:00078de0       ?Remove@?$Container@VBulletTypeExt@@@@QAEXPBVBulletTypeClass@@@Z 10079de0 f i Body.obj
 0001:00078f40       ?Save@?$Container@VBulletTypeExt@@@@MAE_NPAVBulletTypeClass@@PAUIStream@@@Z 10079f40 f i Body.obj
 0001:00079050       ?SaveToStream@ExtData@BulletTypeExt@@UAEXAAVPhobosStreamWriter@@@Z 1007a050 f   Body.obj
 0001:00079080       _BulletTypeClass_CTOR      1007a080 f   Body.obj
 0001:00079170       _BulletTypeClass_LoadFromINI 1007a170 f   Body.obj
 0001:00079220       _BulletTypeClass_Load_Suffix 1007a220 f   Body.obj
 0001:000792b0       _BulletTypeClass_SDDTOR    1007a2b0 f   Body.obj
 0001:000792d0       _BulletTypeClass_SaveLoad_Prefix 1007a2d0 f   Body.obj
 0001:00079310       _BulletTypeClass_Save_Suffix 1007a310 f   Body.obj
 0001:00079390       ??$Process@PAVExtData@BuildingTypeExt@@H@PhobosStreamReader@@QAEAAV0@AAV?$map@PAVExtData@BuildingTypeExt@@HU?$less@PAVExtData@BuildingTypeExt@@@std@@V?$allocator@U?$pair@QAVExtData@BuildingTypeExt@@H@std@@@4@@std@@_N@Z 1007a390 f i Body.obj
 0001:000794d0       ??$Process@PAVExtData@BuildingTypeExt@@H@PhobosStreamWriter@@QAEAAV0@AAV?$map@PAVExtData@BuildingTypeExt@@HU?$less@PAVExtData@BuildingTypeExt@@@std@@V?$allocator@U?$pair@QAVExtData@BuildingTypeExt@@H@std@@@4@@std@@_N@Z 1007a4d0 f i Body.obj
 0001:00079580       ??$Serialize@VPhobosStreamReader@@@ExtData@HouseExt@@AAEXAAVPhobosStreamReader@@@Z 1007a580 f i Body.obj
 0001:00079740       ??$Serialize@VPhobosStreamWriter@@@ExtData@HouseExt@@AAEXAAVPhobosStreamWriter@@@Z 1007a740 f i Body.obj
 0001:00079890       ??0ExtData@HouseExt@@QAE@PAVHouseClass@@@Z 1007a890 f i Body.obj
 0001:00079980       ??1ExtContainer@HouseExt@@UAE@XZ 1007a980 f   Body.obj
 0001:000799e0       ??_ECounterClass@@UAEPAXI@Z 1007a9e0 f i Body.obj
 0001:000799e0       ??_GCounterClass@@UAEPAXI@Z 1007a9e0 f i Body.obj
 0001:00079a20       ??_EExtContainer@HouseExt@@UAEPAXI@Z 1007aa20 f i Body.obj
 0001:00079a20       ??_GExtContainer@HouseExt@@UAEPAXI@Z 1007aa20 f i Body.obj
 0001:00079a50       ??_EExtData@HouseExt@@UAEPAXI@Z 1007aa50 f i Body.obj
 0001:00079a50       ??_GExtData@HouseExt@@UAEPAXI@Z 1007aa50 f i Body.obj
 0001:00079af0       ?ActiveHarvesterCount@HouseExt@@SGHPAVHouseClass@@@Z 1007aaf0 f   Body.obj
 0001:00079b80       ?Clear@CounterClass@@UAEXXZ 1007ab80 f i Body.obj
 0001:00079bb0       ?FindCivilianSide@HouseExt@@SGPAVHouseClass@@XZ 1007abb0 f   Body.obj
 0001:00079bf0       ?FindNeutral@HouseExt@@SGPAVHouseClass@@XZ 1007abf0 f   Body.obj
 0001:00079c10       ?ForceOnlyTargetHouseEnemy@HouseExt@@SGXPAVHouseClass@@H@Z 1007ac10 f   Body.obj
 0001:00079c80       ?GetHouseKind@HouseExt@@SGPAVHouseClass@@ABW4OwnerHouseKind@@_NPAV2@22@Z 1007ac80 f   Body.obj
 0001:00079d40       ?GetSlaveHouse@HouseExt@@SGPAVHouseClass@@ABW4SlaveReturnTo@@PAV2@1@Z 1007ad40 f   Body.obj
 0001:00079de0       ?InvalidatePointer@ExtData@HouseExt@@UAEXPAX_N@Z 1007ade0 f   Body.obj
 0001:00079e60       ?Load@?$Container@VHouseExt@@@@MAE_NPAVHouseClass@@PAUIStream@@@Z 1007ae60 f i Body.obj
 0001:00079e80       ?LoadFromStream@ExtData@HouseExt@@UAEXAAVPhobosStreamReader@@@Z 1007ae80 f   Body.obj
 0001:00079eb0       ?LoadKey@?$Container@VHouseExt@@@@IAEPAVExtData@HouseExt@@PAVHouseClass@@PAUIStream@@@Z 1007aeb0 f i Body.obj
 0001:0007a020       ?Save@?$Container@VHouseExt@@@@MAE_NPAVHouseClass@@PAUIStream@@@Z 1007b020 f i Body.obj
 0001:0007a130       ?SaveToStream@ExtData@HouseExt@@UAEXAAVPhobosStreamWriter@@@Z 1007b130 f   Body.obj
 0001:0007a160       ?TotalHarvesterCount@HouseExt@@SGHPAVHouseClass@@@Z 1007b160 f   Body.obj
 0001:0007a200       ?Uninitialize@ExtData@HouseExt@@UAEXXZ 1007b200 f i Body.obj
 0001:0007a230       _HouseClass_CTOR           1007b230 f   Body.obj
 0001:0007a320       _HouseClass_DTOR           1007b320 f   Body.obj
 0001:0007a430       _HouseClass_InitFromINI    1007b430 f   Body.obj
 0001:0007a4c0       _HouseClass_Load_Suffix    1007b4c0 f   Body.obj
 0001:0007a550       _HouseClass_SaveLoad_Prefix 1007b550 f   Body.obj
 0001:0007a590       _HouseClass_Save_Suffix    1007b590 f   Body.obj
 0001:0007a610       ??A?$map@PAVExtData@BuildingTypeExt@@HU?$less@PAVExtData@BuildingTypeExt@@@std@@V?$allocator@U?$pair@QAVExtData@BuildingTypeExt@@H@std@@@4@@std@@QAEAAHABQAVExtData@BuildingTypeExt@@@Z 1007b610 f i Hooks.obj
 0001:0007a6b0       _HouseClass_UpdatePower_PowerOutput 1007b6b0 f   Hooks.obj
 0001:0007a6d0       _HouseClass_UpdatePower_UpdateCounter 1007b6d0 f   Hooks.obj
 0001:0007b110       ??$_Find_last@PAVFootClass@@@?$_Hash@V?$_Umap_traits@PAVFootClass@@NV?$_Uhash_compare@PAVFootClass@@U?$hash@PAVFootClass@@@std@@U?$equal_to@PAVFootClass@@@3@@std@@V?$allocator@U?$pair@QAVFootClass@@N@std@@@3@$0A@@std@@@std@@IBE?AU?$_Hash_find_last_result@PAU?$_List_node@U?$pair@QAVFootClass@@N@std@@PAX@std@@@1@ABQAVFootClass@@I@Z 1007c110 f i Body.obj
 0001:0007ba70       ??$_Try_emplace@ABQAVFootClass@@$$V@?$_Hash@V?$_Umap_traits@PAVFootClass@@NV?$_Uhash_compare@PAVFootClass@@U?$hash@PAVFootClass@@@std@@U?$equal_to@PAVFootClass@@@3@@std@@V?$allocator@U?$pair@QAVFootClass@@N@std@@@3@$0A@@std@@@std@@IAE?AU?$pair@PAU?$_List_node@U?$pair@QAVFootClass@@N@std@@PAX@std@@_N@1@ABQAVFootClass@@@Z 1007ca70 f i Body.obj
 0001:0007bc30       ??0ScriptClass@@QAE@PAVScriptTypeClass@@@Z 1007cc30 f i Body.obj
 0001:0007bc50       ??1?$DynamicVectorClass@PAVTechnoTypeClass@@@@UAE@XZ 1007cc50 f i Body.obj
 0001:0007bc70       ??1?$_Hash@V?$_Umap_traits@PAVFootClass@@NV?$_Uhash_compare@PAVFootClass@@U?$hash@PAVFootClass@@@std@@U?$equal_to@PAVFootClass@@@3@@std@@V?$allocator@U?$pair@QAVFootClass@@N@std@@@3@$0A@@std@@@std@@QAE@XZ 1007cc70 f i Body.obj
 0001:0007bd00       ??1ExtContainer@ScriptExt@@UAE@XZ 1007cd00 f   Body.obj
 0001:0007bd60       ??_EExtContainer@ScriptExt@@UAEPAXI@Z 1007cd60 f i Body.obj
 0001:0007bd60       ??_GExtContainer@ScriptExt@@UAEPAXI@Z 1007cd60 f i Body.obj
 0001:0007bd90       ?AddMember@TeamClass@@QAE_NPAVFootClass@@_N@Z 1007cd90 f i Body.obj
 0001:0007bdb0       ?DistributedLoadOntoTransport@ScriptExt@@SGXPAVTeamClass@@H@Z 1007cdb0 f   Body.obj
 0001:0007c4f0       ?EvaluateObjectWithMask@ScriptExt@@SG_NPAVTechnoClass@@HHH0@Z 1007d4f0 f   Body.obj
 0001:0007d880       ?FindBestObject@ScriptExt@@SGPAVTechnoClass@@PAV2@HH_NHH@Z 1007e880 f   Body.obj
 0001:0007dc10       ?FindTheTeamLeader@ScriptExt@@SGPAVFootClass@@PAVTeamClass@@@Z 1007ec10 f   Body.obj
 0001:0007dd10       ?FollowFriendlyByGroup@ScriptExt@@SGXPAVTeamClass@@H@Z 1007ed10 f   Body.obj
 0001:0007e190       ?GetItem@?$VectorClass@V?$DynamicVectorClass@PAVScriptTypeClass@@@@@@UBE?AV?$DynamicVectorClass@PAVScriptTypeClass@@@@H@Z 1007f190 f i Body.obj
 0001:0007e190       ?GetItem@?$VectorClass@V?$DynamicVectorClass@PAVTechnoTypeClass@@@@@@UBE?AV?$DynamicVectorClass@PAVTechnoTypeClass@@@@H@Z 1007f190 f i Body.obj
 0001:0007e240       ?GetNextAction@ScriptClass@@QBEPAUScriptActionNode@@PAU2@@Z 1007f240 f i Body.obj
 0001:0007e260       ?GetSpecificAction@ScriptExt@@SG?AUScriptActionNode@@PAVScriptClass@@H@Z 1007f260 f   Body.obj
 0001:0007e2a0       ?GetWeapon@ScriptExt@@SG?AU?$pair@PAVWeaponTypeClass@@PAV1@@std@@PAVTechnoClass@@@Z 1007f2a0 f   Body.obj
 0001:0007e350       ?GreatestThreat@ScriptExt@@SGPAVTechnoClass@@PAV2@HHPAVHouseClass@@HH_N@Z 1007f350 f   Body.obj
 0001:0007e810       ?HasNextMission@ScriptClass@@QBE_NXZ 1007f810 f i Body.obj
 0001:0007e830       ?IncreaseCurrentTriggerWeight@ScriptExt@@SGXPAVTeamClass@@_NN@Z 1007f830 f   Body.obj
 0001:0007e8c0       ?Load@?$Container@VScriptExt@@@@MAE_NPAVScriptClass@@PAUIStream@@@Z 1007f8c0 f i Body.obj
 0001:0007e8e0       ?LoadIntoTransports@ScriptExt@@SGXPAVTeamClass@@@Z 1007f8e0 f   Body.obj
 0001:0007eb80       ?LoadKey@?$Container@VScriptExt@@@@IAEPAVExtData@ScriptExt@@PAVScriptClass@@PAUIStream@@@Z 1007fb80 f i Body.obj
 0001:0007eda0       ?Mission_Attack@ScriptExt@@SGXPAVTeamClass@@_NHHH@Z 1007fda0 f   Body.obj
 0001:0007fd10       ?Mission_Attack_List1Random@ScriptExt@@SGXPAVTeamClass@@_NHH@Z 10080d10 f   Body.obj
 0001:000800c0       ?Mission_Attack_List@ScriptExt@@SGXPAVTeamClass@@_NHH@Z 100810c0 f   Body.obj
 0001:00080170       ?Mission_Gather_NearTheLeader@ScriptExt@@SGXPAVTeamClass@@H@Z 10081170 f   Body.obj
 0001:00080520       ?Mission_Move@ScriptExt@@SGXPAVTeamClass@@H_NHH@Z 10081520 f   Body.obj
 0001:00080c80       ?Mission_Move_List1Random@ScriptExt@@SGXPAVTeamClass@@H_NHH@Z 10081c80 f   Body.obj
 0001:00081020       ?Mission_Move_List@ScriptExt@@SGXPAVTeamClass@@H_NH@Z 10082020 f   Body.obj
 0001:000810d0       ?ModifyCurrentTriggerWeight@ScriptExt@@CGXPAVTeamClass@@_NN@Z 100820d0 f   Body.obj
 0001:00081160       ?MoveMissionEndStatus@ScriptExt@@CG_NPAVTeamClass@@PAVTechnoClass@@PAVFootClass@@H@Z 10082160 f   Body.obj
 0001:000813b0       ?PickRandomScript@ScriptExt@@SGXPAVTeamClass@@H@Z 100823b0 f   Body.obj
 0001:00081520       ?ProcessAction@ScriptExt@@SGXPAVTeamClass@@@Z 10082520 f   Body.obj
 0001:00081d20       ?RallyUnitInMap@ScriptExt@@SGXPAVTeamClass@@H@Z 10082d20 f   Body.obj
 0001:00081ed0       ?LiberateMember@TeamClass@@QBEXPAVFootClass@@HE@Z 10082ed0 f i StaticInits.obj
 0001:00081ed0       ?RemoveMember@TeamClass@@QBEXPAVFootClass@@HE@Z 10082ed0 f i Body.obj
 0001:00081ef0       ?Save@?$Container@VScriptExt@@@@MAE_NPAVScriptClass@@PAUIStream@@@Z 10082ef0 f i Body.obj
 0001:00081ff0       ?Set_ForceJump_Countdown@ScriptExt@@SGXPAVTeamClass@@_NH@Z 10082ff0 f   Body.obj
 0001:00082110       ?SkipNextAction@ScriptExt@@SGXPAVTeamClass@@H@Z 10083110 f   Body.obj
 0001:00082250       ?StopTeamMemberMoving@ScriptExt@@SG_NPAVTeamClass@@@Z 10083250 f   Body.obj
 0001:00082330       ?VariablesHandler@ScriptExt@@SGXPAVTeamClass@@W4PhobosScripts@@H@Z 10083330 f   Body.obj
 0001:00083510       ?WaitUntilFullAmmoAction@ScriptExt@@SGXPAVTeamClass@@@Z 10084510 f   Body.obj
 0001:00083670       ?_Assign_grow@?$_Hash_vec@V?$allocator@V?$_List_unchecked_iterator@V?$_List_val@U?$_List_simple_types@U?$pair@QAVFootClass@@N@std@@@std@@@std@@@std@@@std@@@std@@QAEXIV?$_List_unchecked_iterator@V?$_List_val@U?$_List_simple_types@U?$pair@QAVFootClass@@N@std@@@std@@@std@@@2@@Z 10084670 f i Body.obj
 0001:00083760       ?_Forced_rehash@?$_Hash@V?$_Umap_traits@PAVFootClass@@NV?$_Uhash_compare@PAVFootClass@@U?$hash@PAVFootClass@@@std@@U?$equal_to@PAVFootClass@@@3@@std@@V?$allocator@U?$pair@QAVFootClass@@N@std@@@3@$0A@@std@@@std@@IAEXI@Z 10084760 f i Body.obj
 0001:000838c0       _TeamClass_AI              100848c0 f   Hooks.obj
 0001:00083a80       _TeamClass_AI_MoveToCell   10084a80 f   Hooks.obj
 0001:00083ae0       ??$Exec@VScriptTypeClass@@@ObjectTypeParser@@YGXPAVCCINIClass@@AAV?$DynamicVectorClass@V?$DynamicVectorClass@PAVScriptTypeClass@@@@@@PBD_N3@Z 10084ae0 f i Body.obj
 0001:00083da0       ??$Exec@VTechnoTypeClass@@@ObjectTypeParser@@YGXPAVCCINIClass@@AAV?$DynamicVectorClass@V?$DynamicVectorClass@PAVTechnoTypeClass@@@@@@PBD_N3@Z 10084da0 f i Body.obj
 0001:00084060       ??$Serialize@VPhobosStreamReader@@@ExtData@RulesExt@@AAEXAAVPhobosStreamReader@@@Z 10085060 f i Body.obj
 0001:00084930       ??$Serialize@VPhobosStreamWriter@@@ExtData@RulesExt@@AAEXAAVPhobosStreamWriter@@@Z 10085930 f i Body.obj
 0001:000850c0       ??$_Destroy_range@V?$allocator@V?$unique_ptr@VLaserTrailTypeClass@@U?$default_delete@VLaserTrailTypeClass@@@std@@@std@@@std@@@std@@YGXPAV?$unique_ptr@VLaserTrailTypeClass@@U?$default_delete@VLaserTrailTypeClass@@@std@@@0@QAV10@AAV?$allocator@V?$unique_ptr@VLaserTrailTypeClass@@U?$default_delete@VLaserTrailTypeClass@@@std@@@std@@@0@@Z 100860c0 f i Body.obj
 0001:000850f0       ??$_Emplace_reallocate@V?$unique_ptr@VLaserTrailTypeClass@@U?$default_delete@VLaserTrailTypeClass@@@std@@@std@@@?$vector@V?$unique_ptr@VLaserTrailTypeClass@@U?$default_delete@VLaserTrailTypeClass@@@std@@@std@@V?$allocator@V?$unique_ptr@VLaserTrailTypeClass@@U?$default_delete@VLaserTrailTypeClass@@@std@@@std@@@2@@std@@AAEPAV?$unique_ptr@VLaserTrailTypeClass@@U?$default_delete@VLaserTrailTypeClass@@@std@@@1@QAV21@$$QAV21@@Z 100860f0 f i Body.obj
 0001:000852e0       ??0ExtData@RulesExt@@QAE@PAVRulesClass@@@Z 100862e0 f i Body.obj
 0001:00085630       ??0ScriptTypeClass@@QAE@PBD@Z 10086630 f i Body.obj
 0001:00085650       ??0TrailType@@QAE@QBD@Z    10086650 f i Body.obj
 0001:000858b0       ??1?$VectorClass@V?$DynamicVectorClass@PAVScriptTypeClass@@@@@@UAE@XZ 100868b0 f i Body.obj
 0001:000858b0       ??1?$VectorClass@V?$DynamicVectorClass@PAVTechnoTypeClass@@@@@@UAE@XZ 100868b0 f i Body.obj
 0001:000858f0       ??4?$DynamicVectorClass@PAVScriptTypeClass@@@@QAEAAV0@$$QAV0@@Z 100868f0 f i Body.obj
 0001:000858f0       ??4?$DynamicVectorClass@PAVTechnoTypeClass@@@@QAEAAV0@$$QAV0@@Z 100868f0 f i Body.obj
 0001:00085950       ??R?$default_delete@VExtData@RulesExt@@@std@@QBEXPAVExtData@RulesExt@@@Z 10086950 f i Body.obj
 0001:00085a50       ??_E?$DynamicVectorClass@V?$DynamicVectorClass@PAVScriptTypeClass@@@@@@UAEPAXI@Z 10086a50 f i Body.obj
 0001:00085a50       ??_E?$DynamicVectorClass@V?$DynamicVectorClass@PAVTechnoTypeClass@@@@@@UAEPAXI@Z 10086a50 f i Body.obj
 0001:00085a50       ??_G?$DynamicVectorClass@V?$DynamicVectorClass@PAVScriptTypeClass@@@@@@UAEPAXI@Z 10086a50 f i Body.obj
 0001:00085a50       ??_G?$DynamicVectorClass@V?$DynamicVectorClass@PAVTechnoTypeClass@@@@@@UAEPAXI@Z 10086a50 f i Body.obj
 0001:00085a70       ??_E?$VectorClass@V?$DynamicVectorClass@PAVScriptTypeClass@@@@@@UAEPAXI@Z 10086a70 f i Body.obj
 0001:00085a70       ??_E?$VectorClass@V?$DynamicVectorClass@PAVTechnoTypeClass@@@@@@UAEPAXI@Z 10086a70 f i Body.obj
 0001:00085a70       ??_G?$VectorClass@V?$DynamicVectorClass@PAVScriptTypeClass@@@@@@UAEPAXI@Z 10086a70 f i Body.obj
 0001:00085a70       ??_G?$VectorClass@V?$DynamicVectorClass@PAVTechnoTypeClass@@@@@@UAEPAXI@Z 10086a70 f i Body.obj
 0001:00085a90       ??_EExtData@RulesExt@@UAEPAXI@Z 10086a90 f i Body.obj
 0001:00085a90       ??_GExtData@RulesExt@@UAEPAXI@Z 10086a90 f i Body.obj
 0001:00085b90       ?Allocate@RulesExt@@SGXPAVRulesClass@@@Z 10086b90 f   Body.obj
 0001:00085bf0       ?Find@ScriptTypeClass@@SIPAV1@PBD@Z 10086bf0 f i Body.obj
 0001:00085c30       ?FindIndex@SideClass@@SIHPBD@Z 10086c30 f i Body.obj
 0001:00085c80       ?FindIndexOfName@HouseTypeClass@@SIHPBD@Z 10086c80 f i Body.obj
 0001:00085ca0       ?FindOrAllocate@ScriptTypeClass@@SIPAV1@PBD@Z 10086ca0 f i Body.obj
 0001:00085d00       ?Load@?$Nullable@H@@QAE_NAAVPhobosStreamReader@@_N@Z 10086d00 f i Body.obj
 0001:00085d50       ?LoadAfterTypeData@ExtData@RulesExt@@UAEXPAVRulesClass@@PAVCCINIClass@@@Z 10086d50 f   Body.obj
 0001:00086370       ?LoadBeforeTypeData@ExtData@RulesExt@@UAEXPAVRulesClass@@PAVCCINIClass@@@Z 10087370 f   Body.obj
 0001:00086950       ?LoadBeforeTypeData@RulesExt@@SGXPAVRulesClass@@PAVCCINIClass@@@Z 10087950 f   Body.obj
 0001:00086a90       ?LoadEarlyBeforeColor@RulesExt@@SGXPAVRulesClass@@PAVCCINIClass@@@Z 10087a90 f   Body.obj
 0001:00086cd0       ?LoadFromINIList@?$Enumerable@VLaserTrailTypeClass@@@@SGXPAVCCINIClass@@_N@Z 10087cd0 f i Body.obj
 0001:00086ee0       ?LoadFromINIList@?$Enumerable@VRadTypeClass@@@@SGXPAVCCINIClass@@_N@Z 10087ee0 f i Body.obj
 0001:000870c0       ?LoadFromINIList@?$Enumerable@VTrailType@@@@SGXPAVCCINIClass@@_N@Z 100880c0 f i Body.obj
 0001:000872a0       ?LoadFromStream@ExtData@RulesExt@@UAEXAAVPhobosStreamReader@@@Z 100882a0 f   Body.obj
 0001:000872d0       ?Read@?$NullableIdx@VParticleTypeClass@@@@QAEXAAVINI_EX@@PBD1@Z 100882d0 f i Body.obj
 0001:00087360       ?Read@?$NullableVector@M@@QAEXAAVINI_EX@@PBD1@Z 10088360 f i Body.obj
 0001:000874c0       ?Read@?$Valueable@PAUSHPStruct@@@@QAEXAAVINI_EX@@PBD1_N@Z 100884c0 f i Body.obj
 0001:000874e0       ?ReadBool@INIClass@@QAE_NPBD0_N@Z 100884e0 f i Body.obj
 0001:00087500       ?ReadFromStream@?$PhobosStreamObject@V?$DynamicVectorClass@V?$DynamicVectorClass@PAVScriptTypeClass@@@@@@@Savegame@@QBE_NAAVPhobosStreamReader@@AAV?$DynamicVectorClass@V?$DynamicVectorClass@PAVScriptTypeClass@@@@@@_N@Z 10088500 f i Body.obj
 0001:00087500       ?ReadFromStream@?$PhobosStreamObject@V?$DynamicVectorClass@V?$DynamicVectorClass@PAVTechnoTypeClass@@@@@@@Savegame@@QBE_NAAVPhobosStreamReader@@AAV?$DynamicVectorClass@V?$DynamicVectorClass@PAVTechnoTypeClass@@@@@@_N@Z 10088500 f i Body.obj
 0001:000876b0       ?ReadFromStream@?$PhobosStreamObject@V?$DynamicVectorClass@V?$DynamicVectorClass@V?$basic_string@DU?$char_traits@D@std@@V?$allocator@D@2@@std@@@@@@@Savegame@@QBE_NAAVPhobosStreamReader@@AAV?$DynamicVectorClass@V?$DynamicVectorClass@V?$basic_string@DU?$char_traits@D@std@@V?$allocator@D@2@@std@@@@@@_N@Z 100886b0 f i Body.obj
 0001:00087840       ?SaveToStream@ExtData@RulesExt@@UAEXAAVPhobosStreamWriter@@@Z 10088840 f   Body.obj
 0001:00087870       ?SetCapacity@?$DynamicVectorClass@V?$DynamicVectorClass@PAVScriptTypeClass@@@@@@UAE_NHPAV?$DynamicVectorClass@PAVScriptTypeClass@@@@@Z 10088870 f i Body.obj
 0001:00087870       ?SetCapacity@?$DynamicVectorClass@V?$DynamicVectorClass@PAVTechnoTypeClass@@@@@@UAE_NHPAV?$DynamicVectorClass@PAVTechnoTypeClass@@@@@Z 10088870 f i Body.obj
 0001:00087890       ?SetCapacity@?$VectorClass@V?$DynamicVectorClass@PAVScriptTypeClass@@@@@@UAE_NHPAV?$DynamicVectorClass@PAVScriptTypeClass@@@@@Z 10088890 f i Body.obj
 0001:00087890       ?SetCapacity@?$VectorClass@V?$DynamicVectorClass@PAVTechnoTypeClass@@@@@@UAE_NHPAV?$DynamicVectorClass@PAVTechnoTypeClass@@@@@Z 10088890 f i Body.obj
 0001:00087a20       ?Size@ExtData@RulesExt@@UBEIXZ 10088a20 f i Body.obj
 0001:00087a30       _Game_ReadScenario_FinishReadingScenarioINI 10088a30 f   Body.obj
 0001:00087a80       _RulesClass_Addition       10088a80 f   Body.obj
 0001:00087b10       _RulesClass_CTOR           10088b10 f   Body.obj
 0001:00087b80       _RulesClass_DTOR           10088b80 f   Body.obj
 0001:00087bb0       _RulesClass_LoadAfterTypeData_CompleteInitialization 10088bb0 f   Body.obj
 0001:00087bf0       _RulesClass_Load_Suffix    10088bf0 f   Body.obj
 0001:00087c90       _RulesClass_SaveLoad_Prefix 10088c90 f   Body.obj
 0001:00087cb0       _RulesClass_Save_Suffix    10088cb0 f   Body.obj
 0001:00087d40       _RulesData_LoadAfterAllLogicData 10088d40 f   Body.obj
 0001:00087d50       _RulesData_LoadAfterTypeData 10088d50 f   Body.obj
 0001:00087d70       _RulesData_LoadBeforeGeneralData 10088d70 f   Body.obj
 0001:00087d80       _RulesData_LoadBeforeTypeData 10088d80 f   Body.obj
 0001:00087da0       ??$Serialize@VPhobosStreamReader@@@ExtData@SideExt@@AAEXAAVPhobosStreamReader@@@Z 10088da0 f i Body.obj
 0001:00087f20       ??0ExtData@SideExt@@QAE@PAVSideClass@@@Z 10088f20 f i Body.obj
 0001:00087fb0       ??1ExtContainer@SideExt@@UAE@XZ 10088fb0 f   Body.obj
 0001:00088010       ??_EExtContainer@SideExt@@UAEPAXI@Z 10089010 f i Body.obj
 0001:00088010       ??_GExtContainer@SideExt@@UAEPAXI@Z 10089010 f i Body.obj
 0001:00088040       ??_EExtData@SideExt@@UAEPAXI@Z 10089040 f i Body.obj
 0001:00088040       ??_GExtData@SideExt@@UAEPAXI@Z 10089040 f i Body.obj
 0001:00088060       ?Initialize@ExtData@SideExt@@UAEXXZ 10089060 f   Body.obj
 0001:00088080       ?Load@?$Container@VSideExt@@@@MAE_NPAVSideClass@@PAUIStream@@@Z 10089080 f i Body.obj
 0001:000880a0       ?LoadFromINIFile@ExtData@SideExt@@UAEXPAVCCINIClass@@@Z 100890a0 f   Body.obj
 0001:000881d0       ?LoadFromStream@ExtData@SideExt@@UAEXAAVPhobosStreamReader@@@Z 100891d0 f   Body.obj
 0001:00088200       ?LoadKey@?$Container@VSideExt@@@@IAEPAVExtData@SideExt@@PAVSideClass@@PAUIStream@@@Z 10089200 f i Body.obj
 0001:00088370       ?Read@?$Valueable@W4TextAlign@@@@QAEXAAVINI_EX@@PBD1_N@Z 10089370 f i Body.obj
 0001:00088450       ?ReadTheme@INIClass@@QAEHPBD0H@Z 10089450 f i Body.obj
 0001:00088470       ?Save@?$Container@VSideExt@@@@MAE_NPAVSideClass@@PAUIStream@@@Z 10089470 f i Body.obj
 0001:00088490       ?SaveKey@?$Container@VSideExt@@@@IAEPAVExtData@SideExt@@PAVSideClass@@PAUIStream@@@Z 10089490 f i Body.obj
 0001:00088640       ?SaveToStream@ExtData@SideExt@@UAEXAAVPhobosStreamWriter@@@Z 10089640 f   Body.obj
 0001:00088740       ?Size@ExtData@SideExt@@UBEIXZ 10089740 f i Body.obj
 0001:00088750       _SideClass_CTOR            10089750 f   Body.obj
 0001:00088840       _SideClass_LoadAllFromINI  10089840 f   Body.obj
 0001:000888f0       _SideClass_Load_Suffix     100898f0 f   Body.obj
 0001:00088980       _SideClass_SDDTOR          10089980 f   Body.obj
 0001:00088a10       _SideClass_SaveLoad_Prefix 10089a10 f   Body.obj
 0001:00088a50       _SideClass_Save_Suffix     10089a50 f   Body.obj
 0001:00088ad0       ?Play@ThemeClass@@QAEHH@Z  10089ad0 f i Hooks.obj
 0001:00088af0       _HouseClass_WinLose_Theme  10089af0 f   Hooks.obj
 0001:00088b50       _SidebarGDIPositions1      10089b50 f   Hooks.SidebarGDIPositions.obj
 0001:00088bb0       _SidebarGDIPositions2      10089bb0 f   Hooks.SidebarGDIPositions.obj
 0001:00088c10       _SidebarGDIPositions3      10089c10 f   Hooks.SidebarGDIPositions.obj
 0001:00088c80       _SidebarGDIPositions4      10089c80 f   Hooks.SidebarGDIPositions.obj
 0001:00088ce0       _SidebarGDIPositions5      10089ce0 f   Hooks.SidebarGDIPositions.obj
 0001:00088d40       ??$Serialize@VPhobosStreamReader@@@ExtData@VoxelAnimTypeExt@@AAEXAAVPhobosStreamReader@@@Z 10089d40 f i Body.obj
 0001:00089040       ??$Serialize@VPhobosStreamWriter@@@ExtData@VoxelAnimTypeExt@@AAEXAAVPhobosStreamWriter@@@Z 1008a040 f i Body.obj
 0001:00089230       ??1ExtContainer@VoxelAnimTypeExt@@UAE@XZ 1008a230 f   Body.obj
 0001:00089290       ??_EExtContainer@VoxelAnimTypeExt@@UAEPAXI@Z 1008a290 f i Body.obj
 0001:00089290       ??_GExtContainer@VoxelAnimTypeExt@@UAEPAXI@Z 1008a290 f i Body.obj
 0001:000892c0       ??_EExtData@VoxelAnimTypeExt@@UAEPAXI@Z 1008a2c0 f i Body.obj
 0001:000892c0       ??_GExtData@VoxelAnimTypeExt@@UAEPAXI@Z 1008a2c0 f i Body.obj
 0001:00089380       ?FindOrAllocate@?$Container@VVoxelAnimTypeExt@@@@QAEPAVExtData@VoxelAnimTypeExt@@PAVVoxelAnimTypeClass@@@Z 1008a380 f i Body.obj
 0001:00089530       ?GetExtData@VoxelAnimTypeExt@@SGPAVExtData@1@PAVVoxelAnimTypeClass@@@Z 1008a530 f   Body.obj
 0001:00089540       ?Load@?$Container@VVoxelAnimTypeExt@@@@MAE_NPAVVoxelAnimTypeClass@@PAUIStream@@@Z 1008a540 f i Body.obj
 0001:00089670       ?LoadFromINIFile@ExtData@VoxelAnimTypeExt@@UAEXPAVCCINIClass@@@Z 1008a670 f   Body.obj
 0001:00089760       ?LoadFromStream@ExtData@VoxelAnimTypeExt@@UAEXAAVPhobosStreamReader@@@Z 1008a760 f   Body.obj
 0001:00089790       ?Remove@?$Container@VVoxelAnimTypeExt@@@@QAEXPBVVoxelAnimTypeClass@@@Z 1008a790 f i Body.obj
 0001:000898b0       ?Save@?$Container@VVoxelAnimTypeExt@@@@MAE_NPAVVoxelAnimTypeClass@@PAUIStream@@@Z 1008a8b0 f i Body.obj
 0001:000899c0       ?SaveToStream@ExtData@VoxelAnimTypeExt@@UAEXAAVPhobosStreamWriter@@@Z 1008a9c0 f   Body.obj
 0001:000899f0       _VoxelAnimTypeClass_CTOR   1008a9f0 f   Body.obj
 0001:00089a10       _VoxelAnimTypeClass_DTOR   1008aa10 f   Body.obj
 0001:00089a30       _VoxelAnimTypeClass_LoadFromINI 1008aa30 f   Body.obj
 0001:00089ad0       _VoxelAnimTypeClass_Load_Suffix 1008aad0 f   Body.obj
 0001:00089b60       _VoxelAnimTypeClass_SaveLoad_Prefix 1008ab60 f   Body.obj
 0001:00089ba0       _VoxelAnimTypeClass_Save_Suffix 1008aba0 f   Body.obj
 0001:00089c20       ??1ExtContainer@VoxelAnimExt@@UAE@XZ 1008ac20 f   Body.obj
 0001:00089c80       ??_EExtContainer@VoxelAnimExt@@UAEPAXI@Z 1008ac80 f i Body.obj
 0001:00089c80       ??_GExtContainer@VoxelAnimExt@@UAEPAXI@Z 1008ac80 f i Body.obj
 0001:00089cb0       ??_EExtData@VoxelAnimExt@@UAEPAXI@Z 1008acb0 f i Body.obj
 0001:00089cb0       ??_GExtData@VoxelAnimExt@@UAEPAXI@Z 1008acb0 f i Body.obj
 0001:00089ce0       ?FindOrAllocate@?$Container@VVoxelAnimExt@@@@QAEPAVExtData@VoxelAnimExt@@PAVVoxelAnimClass@@@Z 1008ace0 f i Body.obj
 0001:00089e60       ?GetTechnoOwner@VoxelAnimExt@@SGPAVTechnoClass@@PAVVoxelAnimClass@@_N@Z 1008ae60 f   Body.obj
 0001:00089e90       ?InitializeConstants@ExtData@VoxelAnimExt@@UAEXXZ 1008ae90 f   Body.obj
 0001:00089f10       ?InitializeLaserTrails@ExtData@VoxelAnimExt@@QAEXPAV1VoxelAnimTypeExt@@@Z 1008af10 f   Body.obj
 0001:0008a180       ?InvalidatePointer@ExtData@VoxelAnimExt@@UAEXPAX_N@Z 1008b180 f   Body.obj
 0001:0008a1a0       ?Load@?$Container@VVoxelAnimExt@@@@MAE_NPAVVoxelAnimClass@@PAUIStream@@@Z 1008b1a0 f i Body.obj
 0001:0008a330       ?LoadFromStream@ExtData@VoxelAnimExt@@UAEXAAVPhobosStreamReader@@@Z 1008b330 f   Body.obj
 0001:0008a3c0       ?Save@?$Container@VVoxelAnimExt@@@@MAE_NPAVVoxelAnimClass@@PAUIStream@@@Z 1008b3c0 f i Body.obj
 0001:0008a3e0       ?SaveKey@?$Container@VVoxelAnimExt@@@@IAEPAVExtData@VoxelAnimExt@@PAVVoxelAnimClass@@PAUIStream@@@Z 1008b3e0 f i Body.obj
 0001:0008a5a0       ?SaveToStream@ExtData@VoxelAnimExt@@UAEXAAVPhobosStreamWriter@@@Z 1008b5a0 f   Body.obj
 0001:0008a680       ?resize@?$vector@V?$unique_ptr@VLaserTrailClass@@U?$default_delete@VLaserTrailClass@@@std@@@std@@V?$allocator@V?$unique_ptr@VLaserTrailClass@@U?$default_delete@VLaserTrailClass@@@std@@@std@@@2@@std@@QAEXI@Z 1008b680 f i Body.obj
 0001:0008a710       _VoxelAnimClass_CTOR       1008b710 f   Body.obj
 0001:0008a730       _VoxelAnimClass_DTOR       1008b730 f   Body.obj
 0001:0008a7c0       _VoxelAnimClass_Load_Suffix 1008b7c0 f   Body.obj
 0001:0008a850       _VoxelAnimClass_SaveLoad_Prefix 1008b850 f   Body.obj
 0001:0008a890       _VoxelAnimClass_Save_Suffix 1008b890 f   Body.obj
 0001:0008a910       ?Detonate@Otamaa@Helper@@YG?AU?$pair@_NH@std@@ABV?$Nullable@PAVWeaponTypeClass@@@@HPAVWarheadTypeClass@@_NABUCoordStruct@@PAVTechnoClass@@PAVHouseClass@@2@Z 1008b910 f i Hooks.obj
 0001:0008aa70       ?UnInit@ObjectClass@@UAEXXZ 1008ba70 f i Hooks.obj
 0001:0008aac0       _VoxelAnimClass_AI_Additional 1008bac0 f   Hooks.obj
 0001:0008ab80       _VoxelAnimClass_AI_Expired 1008bb80 f   Hooks.obj
 0001:0008adb0       _VoxelAnimClass_BounceAnim 1008bdb0 f   Hooks.obj
 0001:0008ae60       ??$Serialize@VPhobosStreamReader@@@AttachFireData@@QAE_NAAVPhobosStreamReader@@@Z 1008be60 f i Body.obj
 0001:0008af70       ??$Serialize@VPhobosStreamReader@@@ExtData@WeaponTypeExt@@AAEXAAVPhobosStreamReader@@@Z 1008bf70 f i Body.obj
 0001:0008b490       ??$Serialize@VPhobosStreamWriter@@@ExtData@WeaponTypeExt@@AAEXAAVPhobosStreamWriter@@@Z 1008c490 f i Body.obj
 0001:0008b7c0       ??0ExtData@WeaponTypeExt@@QAE@PAVWeaponTypeClass@@@Z 1008c7c0 f i Body.obj
 0001:0008b8d0       ??1ExtContainer@WeaponTypeExt@@UAE@XZ 1008c8d0 f   Body.obj
 0001:0008b930       ??_EExtContainer@WeaponTypeExt@@UAEPAXI@Z 1008c930 f i Body.obj
 0001:0008b930       ??_GExtContainer@WeaponTypeExt@@UAEPAXI@Z 1008c930 f i Body.obj
 0001:0008b960       ??_EExtData@WeaponTypeExt@@UAEPAXI@Z 1008c960 f i Body.obj
 0001:0008b960       ??_GExtData@WeaponTypeExt@@UAEPAXI@Z 1008c960 f i Body.obj
 0001:0008ba20       ?DetonateAt@WeaponTypeExt@@SGXPAVWeaponTypeClass@@PAVObjectClass@@PAVTechnoClass@@@Z 1008ca20 f   Body.obj
 0001:0008bad0       ?DetonateAt@WeaponTypeExt@@SGXPAVWeaponTypeClass@@PAVObjectClass@@PAVTechnoClass@@H@Z 1008cad0 f   Body.obj
 0001:0008bb80       ?FindOrAllocate@?$Enumerable@VRadTypeClass@@@@SGPAVRadTypeClass@@PBD@Z 1008cb80 f i Body.obj
 0001:0008bc10       ?Initialize@ExtData@WeaponTypeExt@@UAEXXZ 1008cc10 f   Body.obj
 0001:0008bc30       ?InvalidatePointer@ExtContainer@WeaponTypeExt@@UAEXPAX_N@Z 1008cc30 f   Body.obj
 0001:0008bc50       ?Load@?$Container@VWeaponTypeExt@@@@MAE_NPAVWeaponTypeClass@@PAUIStream@@@Z 1008cc50 f i Body.obj
 0001:0008bc70       ?LoadFromINIFile@ExtData@WeaponTypeExt@@UAEXPAVCCINIClass@@@Z 1008cc70 f   Body.obj
 0001:0008c000       ?LoadFromStream@ExtData@WeaponTypeExt@@UAEXAAVPhobosStreamReader@@@Z 1008d000 f   Body.obj
 0001:0008c030       ?LoadGlobals@WeaponTypeExt@@SG_NAAVPhobosStreamReader@@@Z 1008d030 f   Body.obj
 0001:0008c0a0       ?LoadKey@?$Container@VWeaponTypeExt@@@@IAEPAVExtData@WeaponTypeExt@@PAVWeaponTypeClass@@PAUIStream@@@Z 1008d0a0 f i Body.obj
 0001:0008c210       ?Read@?$Valueable@PAVRadTypeClass@@@@QAEXAAVINI_EX@@PBD1_N@Z 1008d210 f i Body.obj
 0001:0008c2b0       ?Read@?$Valueable@W4AreaFireTarget@@@@QAEXAAVINI_EX@@PBD1_N@Z 1008d2b0 f i Body.obj
 0001:0008c350       ?Save@?$Container@VWeaponTypeExt@@@@MAE_NPAVWeaponTypeClass@@PAUIStream@@@Z 1008d350 f i Body.obj
 0001:0008c460       ?SaveGlobals@WeaponTypeExt@@SG_NAAVPhobosStreamWriter@@@Z 1008d460 f   Body.obj
 0001:0008c4a0       ?SaveToStream@ExtData@WeaponTypeExt@@UAEXAAVPhobosStreamWriter@@@Z 1008d4a0 f   Body.obj
 0001:0008c4d0       _WeaponTypeClass_CTOR      1008d4d0 f   Body.obj
 0001:0008c5c0       _WeaponTypeClass_LoadFromINI 1008d5c0 f   Body.obj
 0001:0008c660       _WeaponTypeClass_Load_Suffix 1008d660 f   Body.obj
 0001:0008c6f0       _WeaponTypeClass_SDDTOR    1008d6f0 f   Body.obj
 0001:0008c820       _WeaponTypeClass_Save      1008d820 f   Body.obj
 0001:0008c8a0       _WeaponTypeClass_SaveLoad_Prefix 1008d8a0 f   Body.obj
 0001:0008c8e0       ??$_Emplace_reallocate@ABQAVEBolt@@PBVExtData@WeaponTypeExt@@@?$vector@U?$pair@PAVEBolt@@PBVExtData@WeaponTypeExt@@@std@@V?$allocator@U?$pair@PAVEBolt@@PBVExtData@WeaponTypeExt@@@std@@@2@@std@@AAEPAU?$pair@PAVEBolt@@PBVExtData@WeaponTypeExt@@@1@QAU21@ABQAVEBolt@@$$QAPBVExtData@WeaponTypeExt@@@Z 1008d8e0 f i Hook.EBolt.obj
 0001:0008cab0       _EBolt_DTOR                1008dab0 f   Hook.EBolt.obj
 0001:0008cb10       _Ebolt_DrawFist_Disable    1008db10 f   Hook.EBolt.obj
 0001:0008cb70       _Ebolt_DrawSecond_Disable  1008db70 f   Hook.EBolt.obj
 0001:0008cb90       _Ebolt_DrawThird_Disable   1008db90 f   Hook.EBolt.obj
 0001:0008cbb0       _TechnoClass_FireEBolt_SetExtMap_AfterAres 1008dbb0 f   Hook.EBolt.obj
 0001:0008cc50       ?UnloadBunker@BuildingClass@@QAEXXZ 1008dc50 f i Hooks.obj
 0001:0008cc70       _TemporalClass_GetHelperDamage_AfterAres 1008dc70 f   Hooks.obj
 0001:0008cc90       _TemporalClass_LetItGo_ExpireEffect 1008dc90 f   Hooks.obj
 0001:0008ce80       _TemporalClass_Update_RemoveBuildingTarget 1008de80 f   Hooks.obj
 0001:0008cfa0       _WeaponTypeClass_GetSpeed_ApplyGravity 1008dfa0 f   Hooks.obj
 0001:0008cfc0       _WeaponTypeClass_SetSpeed_ApplyGravity 1008dfc0 f   Hooks.obj
 0001:0008cfe0       _DiskLaser_Circle          1008dfe0 f   Hooks.DiskLaserRadius.obj
 0001:0008d1a0       ?FatalErrorAndExit@Debug@@SAXPBDZZ 1008e1a0 f   Debug.obj
 0001:0008d1f0       ?INIParseFailed@Debug@@SGXPBD000@Z 1008e1f0 f   Debug.obj
 0001:0008d220       ?Log@Debug@@SAXPBDZZ       1008e220 f   Debug.obj
 0001:0008d230       ?AddCameo@SidebarClass@@QAE_NW4AbstractType@@H@Z 1008e230 f i Helpers.obj
 0001:0008d250       ?Grant@SuperClass@@QAE_N_N00@Z 1008e250 f i Helpers.obj
 0001:0008d270       ?LauchSW@Otamaa@Helpers@@YG_NPAVSuperWeaponTypeClass@@PAVHouseClass@@UCoordStruct@@_N33333333@Z 1008e270 f   Helpers.obj
 0001:0008d480       ?RepaintSidebar@SidebarClass@@QAEXH@Z 1008e480 f i Helpers.obj
 0001:0008d4a0       ?Reset@SuperClass@@QAEXXZ  1008e4a0 f i Helpers.obj
 0001:0008d4c0       ??$_Insert_range@PBE@?$vector@EV?$allocator@E@std@@@std@@AAEXV?$_Vector_const_iterator@V?$_Vector_val@U?$_Simple_types@E@std@@@std@@@1@PBE1Uforward_iterator_tag@1@@Z 1008e4c0 f i Stream.obj
 0001:0008d740       ??0PhobosByteStream@@QAE@I@Z 1008e740 f   Stream.obj
 0001:0008d780       ??1PhobosByteStream@@QAE@XZ 1008e780 f   Stream.obj
 0001:0008d7d0       ?Read@PhobosByteStream@@QAE_NPAEI@Z 1008e7d0 f   Stream.obj
 0001:0008d820       ?ReadBlockFromStream@PhobosByteStream@@QAEIPAUIStream@@@Z 1008e820 f   Stream.obj
 0001:0008d8f0       ?RegisterChange@PhobosStreamReader@@QAE_NPAX@Z 1008e8f0 f   Stream.obj
 0001:0008d940       ?Write@PhobosByteStream@@QAEXPBEI@Z 1008e940 f   Stream.obj
 0001:0008d960       ?WriteBlockToStream@PhobosByteStream@@QBE_NPAUIStream@@@Z 1008e960 f   Stream.obj
 0001:0008d9d0       ?_Reallocate_exactly@?$vector@EV?$allocator@E@std@@@std@@AAEXI@Z 1008e9d0 f i Stream.obj
 0001:0008daf0       ?resize@?$vector@EV?$allocator@E@std@@@std@@QAEXI@Z 1008eaf0 f i Stream.obj
 0001:0008db50       ?RegisterChange@PhobosSwizzle@@QAEJPAX0@Z 1008eb50 f   Swizzle.obj
 0001:0008db70       ?RegisterForChange@PhobosSwizzle@@QAEJPAPAX@Z 1008eb70 f   Swizzle.obj
 0001:0008db90       ??0BytePalette@@QAE@ABUColorStruct@@@Z 1008eb90 f i Constructs.obj
 0001:0008dbb0       ??0ConvertClass@@QAE@ABUBytePalette@@0PAVDSurface@@I_N@Z 1008ebb0 f i Constructs.obj
 0001:0008dbf0       ??1ConvertClass@@UAE@XZ    1008ebf0 f i Constructs.obj
 0001:0008dc10       ??_EConvertClass@@UAEPAXI@Z 1008ec10 f i Constructs.obj
 0001:0008dc10       ??_GConvertClass@@UAEPAXI@Z 1008ec10 f i Constructs.obj
 0001:0008dc40       ?CreateConvert@CustomPalette@@AAEXXZ 1008ec40 f   Constructs.obj
 0001:0008dcc0       ?Load@CustomPalette@@QAE_NAAVPhobosStreamReader@@_N@Z 1008ecc0 f   Constructs.obj
 0001:0008ddb0       ?LoadFromName@CustomPalette@@QAE_NPBD@Z 1008edb0 f   Constructs.obj
 0001:0008ded0       ?Read@CustomPalette@@QAE_NPAVCCINIClass@@PBD11@Z 1008eed0 f   Constructs.obj
 0001:0008df70       ?ReadWholeFile@FileClass@@SIPAXPAV1@@Z 1008ef70 f i Constructs.obj
 0001:0008df90       ?Save@CustomPalette@@QBE_NAAVPhobosStreamWriter@@@Z 1008ef90 f   Constructs.obj
 0001:0008dfe0       ?AreCellAndObjectsEligible@EnumFunctions@@SG_NQAVCellClass@@ABW4AffectedTarget@@ABW4AffectedHouse@@PAVHouseClass@@_N4@Z 1008efe0 f   EnumFunctions.obj
 0001:0008e140       ?CanTargetHouse@EnumFunctions@@SG_NABW4AffectedHouse@@PAVHouseClass@@1@Z 1008f140 f   EnumFunctions.obj
 0001:0008e1b0       ?GetTranslucentLevel@EnumFunctions@@SG?AW4BlitterFlags@@ABH@Z 1008f1b0 f   EnumFunctions.obj
 0001:0008e1f0       ?IsCellEligible@EnumFunctions@@SG_NQAVCellClass@@ABW4AffectedTarget@@_N@Z 1008f1f0 f   EnumFunctions.obj
 0001:0008e250       ?IsTechnoEligible@EnumFunctions@@SG_NQAVTechnoClass@@ABW4AffectedTarget@@_N@Z 1008f250 f   EnumFunctions.obj
 0001:0008e2f0       ?AdjacentCellsInRange@GeneralUtils@@SG?AV?$vector@VCellStruct@@V?$allocator@VCellStruct@@@std@@@std@@I@Z 1008f2f0 f   GeneralUtils.obj
 0001:0008e4b0       ?GetWarheadVersusArmor@GeneralUtils@@SG?BNPAVWarheadTypeClass@@W4Armor@@@Z 1008f4b0 f   GeneralUtils.obj
 0001:0008e4f0       ?IsValidString@GeneralUtils@@SG_NPBD@Z 1008f4f0 f   GeneralUtils.obj
 0001:0008e560       ?LoadStringOrDefault@GeneralUtils@@SGPB_WPBDPB_W@Z 1008f560 f   GeneralUtils.obj
 0001:0008e5e0       ?LoadStringUnlessMissing@GeneralUtils@@SGPB_WPBDPB_W@Z 1008f5e0 f   GeneralUtils.obj
 0001:0008e680       ?Read@ArmorType@@QAE_NAAVINI_EX@@PBD1_N@Z 1008f680 f   Template.obj
 0001:0008e6d0       ?ReadArmorType@INIClass@@QAEHPBD0H@Z 1008f6d0 f i Template.obj
 0001:0008e6f0       ?Apply@Patch@@QAEXXZ       1008f6f0 f   Patch.obj
 0001:0008e730       ?ApplyStatic@Patch@@SGXXZ  1008f730 f   Patch.obj
 0001:0008e820       ?GetDebuggerProcessId@Patch@@SGKK@Z 1008f820 f   Patch.obj
 0001:0008e8c0       _DllMain@12                1008f8c0 f   Phobos.obj
 0001:0008e8e0       _GScreenClass_DrawText     1008f8e0 f   Phobos.obj
 0001:0008e9e0       _Game_ExeRun               1008f9e0 f   Phobos.obj
 0001:0008eb50       _OptionsClass_LoadSettings_LoadPhobosSettings 1008fb50 f   Phobos.obj
 0001:0008ef20       _SyringeHandshake          1008ff20 f   Phobos.obj
 0001:0008f000       __YR_CmdLineParse          10090000 f   Phobos.obj
 0001:0008f170       _operator_new_AddExtraSize 10090170 f   Phobos.obj
 0001:0008f180       ?stristr@PhobosCRT@@SGPADPBD0@Z 10090180 f   Phobos.CRT.obj
 0001:0008f1f0       ??$Process@VAITriggerTypeExt@@@ClearHelper@@SG_NXZ 100901f0 f i Phobos.Ext.obj
 0001:0008f280       ??$Process@VAnimExt@@@ClearHelper@@SG_NXZ 10090280 f i Phobos.Ext.obj
 0001:0008f320       ??$Process@VAnimExt@@@LoadHelper@@SG_NPAUIStream@@@Z 10090320 f i Phobos.Ext.obj
 0001:0008f320       ??$Process@VAnimTypeExt@@@LoadHelper@@SG_NPAUIStream@@@Z 10090320 f i Phobos.Ext.obj
 0001:0008f320       ??$Process@VBuildingExt@@@LoadHelper@@SG_NPAUIStream@@@Z 10090320 f i Phobos.Ext.obj
 0001:0008f320       ??$Process@VBuildingTypeExt@@@LoadHelper@@SG_NPAUIStream@@@Z 10090320 f i Phobos.Ext.obj
 0001:0008f320       ??$Process@VBulletExt@@@LoadHelper@@SG_NPAUIStream@@@Z 10090320 f i Phobos.Ext.obj
 0001:0008f320       ??$Process@VBulletTypeExt@@@LoadHelper@@SG_NPAUIStream@@@Z 10090320 f i Phobos.Ext.obj
 0001:0008f320       ??$Process@VCaptureExt@@@LoadHelper@@SG_NPAUIStream@@@Z 10090320 f i Phobos.Ext.obj
 0001:0008f320       ??$Process@VCellExt@@@LoadHelper@@SG_NPAUIStream@@@Z 10090320 f i Phobos.Ext.obj
 0001:0008f320       ??$Process@VHouseExt@@@LoadHelper@@SG_NPAUIStream@@@Z 10090320 f i Phobos.Ext.obj
 0001:0008f320       ??$Process@VParasiteExt@@@LoadHelper@@SG_NPAUIStream@@@Z 10090320 f i Phobos.Ext.obj
 0001:0008f320       ??$Process@VParticleTypeExt@@@LoadHelper@@SG_NPAUIStream@@@Z 10090320 f i Phobos.Ext.obj
 0001:0008f320       ??$Process@VRadSiteExt@@@LoadHelper@@SG_NPAUIStream@@@Z 10090320 f i Phobos.Ext.obj
 0001:0008f320       ??$Process@VRulesExt@@@LoadHelper@@SG_NPAUIStream@@@Z 10090320 f i Phobos.Ext.obj
 0001:0008f320       ??$Process@VScenarioExt@@@LoadHelper@@SG_NPAUIStream@@@Z 10090320 f i Phobos.Ext.obj
 0001:0008f320       ??$Process@VScriptExt@@@LoadHelper@@SG_NPAUIStream@@@Z 10090320 f i Phobos.Ext.obj
 0001:0008f320       ??$Process@VScriptTypeExt@@@LoadHelper@@SG_NPAUIStream@@@Z 10090320 f i Phobos.Ext.obj
 0001:0008f320       ??$Process@VSideExt@@@LoadHelper@@SG_NPAUIStream@@@Z 10090320 f i Phobos.Ext.obj
 0001:0008f320       ??$Process@VSmudgeTypeExt@@@LoadHelper@@SG_NPAUIStream@@@Z 10090320 f i Phobos.Ext.obj
 0001:0008f320       ??$Process@VSuperExt@@@LoadHelper@@SG_NPAUIStream@@@Z 10090320 f i Phobos.Ext.obj
 0001:0008f320       ??$Process@VTActionExt@@@LoadHelper@@SG_NPAUIStream@@@Z 10090320 f i Phobos.Ext.obj
 0001:0008f320       ??$Process@VTeamExt@@@LoadHelper@@SG_NPAUIStream@@@Z 10090320 f i Phobos.Ext.obj
 0001:0008f320       ??$Process@VTeamTypeExt@@@LoadHelper@@SG_NPAUIStream@@@Z 10090320 f i Phobos.Ext.obj
 0001:0008f320       ??$Process@VTechnoExt@@@LoadHelper@@SG_NPAUIStream@@@Z 10090320 f i Phobos.Ext.obj
 0001:0008f320       ??$Process@VTechnoTypeExt@@@LoadHelper@@SG_NPAUIStream@@@Z 10090320 f i Phobos.Ext.obj
 0001:0008f320       ??$Process@VTerrainExt@@@LoadHelper@@SG_NPAUIStream@@@Z 10090320 f i Phobos.Ext.obj
 0001:0008f320       ??$Process@VTerrainTypeExt@@@LoadHelper@@SG_NPAUIStream@@@Z 10090320 f i Phobos.Ext.obj
 0001:0008f320       ??$Process@VTiberiumExt@@@LoadHelper@@SG_NPAUIStream@@@Z 10090320 f i Phobos.Ext.obj
 0001:0008f320       ??$Process@VVoxelAnimExt@@@LoadHelper@@SG_NPAUIStream@@@Z 10090320 f i Phobos.Ext.obj
 0001:0008f320       ??$Process@VVoxelAnimTypeExt@@@LoadHelper@@SG_NPAUIStream@@@Z 10090320 f i Phobos.Ext.obj
 0001:0008f320       ??$Process@VWarheadTypeExt@@@LoadHelper@@SG_NPAUIStream@@@Z 10090320 f i Phobos.Ext.obj
 0001:0008f3a0       ??$Process@VAnimExt@@@SaveHelper@@SG_NPAUIStream@@@Z 100903a0 f i Phobos.Ext.obj
 0001:0008f3a0       ??$Process@VAnimTypeExt@@@SaveHelper@@SG_NPAUIStream@@@Z 100903a0 f i Phobos.Ext.obj
 0001:0008f3a0       ??$Process@VBuildingExt@@@SaveHelper@@SG_NPAUIStream@@@Z 100903a0 f i Phobos.Ext.obj
 0001:0008f3a0       ??$Process@VBuildingTypeExt@@@SaveHelper@@SG_NPAUIStream@@@Z 100903a0 f i Phobos.Ext.obj
 0001:0008f3a0       ??$Process@VBulletExt@@@SaveHelper@@SG_NPAUIStream@@@Z 100903a0 f i Phobos.Ext.obj
 0001:0008f3a0       ??$Process@VBulletTypeExt@@@SaveHelper@@SG_NPAUIStream@@@Z 100903a0 f i Phobos.Ext.obj
 0001:0008f3a0       ??$Process@VCaptureExt@@@SaveHelper@@SG_NPAUIStream@@@Z 100903a0 f i Phobos.Ext.obj
 0001:0008f3a0       ??$Process@VCellExt@@@SaveHelper@@SG_NPAUIStream@@@Z 100903a0 f i Phobos.Ext.obj
 0001:0008f3a0       ??$Process@VHouseExt@@@SaveHelper@@SG_NPAUIStream@@@Z 100903a0 f i Phobos.Ext.obj
 0001:0008f3a0       ??$Process@VParasiteExt@@@SaveHelper@@SG_NPAUIStream@@@Z 100903a0 f i Phobos.Ext.obj
 0001:0008f3a0       ??$Process@VParticleTypeExt@@@SaveHelper@@SG_NPAUIStream@@@Z 100903a0 f i Phobos.Ext.obj
 0001:0008f3a0       ??$Process@VRadSiteExt@@@SaveHelper@@SG_NPAUIStream@@@Z 100903a0 f i Phobos.Ext.obj
 0001:0008f3a0       ??$Process@VRulesExt@@@SaveHelper@@SG_NPAUIStream@@@Z 100903a0 f i Phobos.Ext.obj
 0001:0008f3a0       ??$Process@VScenarioExt@@@SaveHelper@@SG_NPAUIStream@@@Z 100903a0 f i Phobos.Ext.obj
 0001:0008f3a0       ??$Process@VScriptExt@@@SaveHelper@@SG_NPAUIStream@@@Z 100903a0 f i Phobos.Ext.obj
 0001:0008f3a0       ??$Process@VScriptTypeExt@@@SaveHelper@@SG_NPAUIStream@@@Z 100903a0 f i Phobos.Ext.obj
 0001:0008f3a0       ??$Process@VSideExt@@@SaveHelper@@SG_NPAUIStream@@@Z 100903a0 f i Phobos.Ext.obj
 0001:0008f3a0       ??$Process@VSmudgeTypeExt@@@SaveHelper@@SG_NPAUIStream@@@Z 100903a0 f i Phobos.Ext.obj
 0001:0008f3a0       ??$Process@VSuperExt@@@SaveHelper@@SG_NPAUIStream@@@Z 100903a0 f i Phobos.Ext.obj
 0001:0008f3a0       ??$Process@VTActionExt@@@SaveHelper@@SG_NPAUIStream@@@Z 100903a0 f i Phobos.Ext.obj
 0001:0008f3a0       ??$Process@VTeamExt@@@SaveHelper@@SG_NPAUIStream@@@Z 100903a0 f i Phobos.Ext.obj
 0001:0008f3a0       ??$Process@VTeamTypeExt@@@SaveHelper@@SG_NPAUIStream@@@Z 100903a0 f i Phobos.Ext.obj
 0001:0008f3a0       ??$Process@VTechnoExt@@@SaveHelper@@SG_NPAUIStream@@@Z 100903a0 f i Phobos.Ext.obj
 0001:0008f3a0       ??$Process@VTechnoTypeExt@@@SaveHelper@@SG_NPAUIStream@@@Z 100903a0 f i Phobos.Ext.obj
 0001:0008f3a0       ??$Process@VTerrainExt@@@SaveHelper@@SG_NPAUIStream@@@Z 100903a0 f i Phobos.Ext.obj
 0001:0008f3a0       ??$Process@VTerrainTypeExt@@@SaveHelper@@SG_NPAUIStream@@@Z 100903a0 f i Phobos.Ext.obj
 0001:0008f3a0       ??$Process@VTiberiumExt@@@SaveHelper@@SG_NPAUIStream@@@Z 100903a0 f i Phobos.Ext.obj
 0001:0008f3a0       ??$Process@VVoxelAnimExt@@@SaveHelper@@SG_NPAUIStream@@@Z 100903a0 f i Phobos.Ext.obj
 0001:0008f3a0       ??$Process@VVoxelAnimTypeExt@@@SaveHelper@@SG_NPAUIStream@@@Z 100903a0 f i Phobos.Ext.obj
 0001:0008f3a0       ??$Process@VWarheadTypeExt@@@SaveHelper@@SG_NPAUIStream@@@Z 100903a0 f i Phobos.Ext.obj
 0001:0008f410       ??$Process@VArmorTypeClass@@@LoadHelper@@SG_NPAUIStream@@@Z 10090410 f i Phobos.Ext.obj
 0001:0008f490       ??$Process@VArmorTypeClass@@@SaveHelper@@SG_NPAUIStream@@@Z 10090490 f i Phobos.Ext.obj
 0001:0008f550       ??$Process@VBombExt@@@ClearHelper@@SG_NXZ 10090550 f i Phobos.Ext.obj
 0001:0008f5e0       ??$Process@VBombExt@@@LoadHelper@@SG_NPAUIStream@@@Z 100905e0 f i Phobos.Ext.obj
 0001:0008f660       ??$Process@VBombExt@@@SaveHelper@@SG_NPAUIStream@@@Z 10090660 f i Phobos.Ext.obj
 0001:0008f6d0       ??$Process@VBuildingExt@@@ClearHelper@@SG_NXZ 100906d0 f i Phobos.Ext.obj
 0001:0008f7a0       ??$Process@VBuildingTypeExt@@@ClearHelper@@SG_NXZ 100907a0 f i Phobos.Ext.obj
 0001:0008f820       ??$Process@VBulletExt@@@ClearHelper@@SG_NXZ 10090820 f i Phobos.Ext.obj
 0001:0008f8b0       ??$Process@VBulletTypeExt@@@ClearHelper@@SG_NXZ 100908b0 f i Phobos.Ext.obj
 0001:0008f950       ??$Process@VCaptureExt@@@ClearHelper@@SG_NXZ 10090950 f i Phobos.Ext.obj
 0001:0008f9e0       ??$Process@VCellExt@@@ClearHelper@@SG_NXZ 100909e0 f i Phobos.Ext.obj
 0001:0008fa70       ??$Process@VHouseExt@@@ClearHelper@@SG_NXZ 10090a70 f i Phobos.Ext.obj
 0001:0008fb80       ??$Process@VHoverTypeClass@@@LoadHelper@@SG_NPAUIStream@@@Z 10090b80 f i Phobos.Ext.obj
 0001:0008fc90       ??$Process@VHoverTypeClass@@@SaveHelper@@SG_NPAUIStream@@@Z 10090c90 f i Phobos.Ext.obj
 0001:0008fd50       ??$Process@VLaserTrailTypeClass@@@LoadHelper@@SG_NPAUIStream@@@Z 10090d50 f i Phobos.Ext.obj
 0001:0008fdd0       ??$Process@VLaserTrailTypeClass@@@SaveHelper@@SG_NPAUIStream@@@Z 10090dd0 f i Phobos.Ext.obj
 0001:0008fe90       ??$Process@VParasiteExt@@@ClearHelper@@SG_NXZ 10090e90 f i Phobos.Ext.obj
 0001:0008ff20       ??$Process@VParticleExt@@@ClearHelper@@SG_NXZ 10090f20 f i Phobos.Ext.obj
 0001:0008ffb0       ??$Process@VParticleTypeExt@@@ClearHelper@@SG_NXZ 10090fb0 f i Phobos.Ext.obj
 0001:00090090       ??$Process@VRadSiteExt@@@ClearHelper@@SG_NXZ 10091090 f i Phobos.Ext.obj
 0001:00090120       ??$Process@VRadTypeClass@@@LoadHelper@@SG_NPAUIStream@@@Z 10091120 f i Phobos.Ext.obj
 0001:000901a0       ??$Process@VRadTypeClass@@@SaveHelper@@SG_NPAUIStream@@@Z 100911a0 f i Phobos.Ext.obj
 0001:00090260       ??$Process@VSWTypeExt@@@ClearHelper@@SG_NXZ 10091260 f i Phobos.Ext.obj
 0001:00090300       ??$Process@VSWTypeExt@@@InvalidatePointerHelper@@SG_NPAX_N@Z 10091300 f i Phobos.Ext.obj
 0001:00090330       ??$Process@VSWTypeExt@@@LoadHelper@@SG_NPAUIStream@@@Z 10091330 f i Phobos.Ext.obj
 0001:000903b0       ??$Process@VSWTypeExt@@@SaveHelper@@SG_NPAUIStream@@@Z 100913b0 f i Phobos.Ext.obj
 0001:00090420       ??$Process@VScriptExt@@@ClearHelper@@SG_NXZ 10091420 f i Phobos.Ext.obj
 0001:000904a0       ??$Process@VScriptTypeExt@@@ClearHelper@@SG_NXZ 100914a0 f i Phobos.Ext.obj
 0001:00090580       ??$Process@VShieldTypeClass@@@LoadHelper@@SG_NPAUIStream@@@Z 10091580 f i Phobos.Ext.obj
 0001:00090600       ??$Process@VShieldTypeClass@@@SaveHelper@@SG_NPAUIStream@@@Z 10091600 f i Phobos.Ext.obj
 0001:000906c0       ??$Process@VSideExt@@@ClearHelper@@SG_NXZ 100916c0 f i Phobos.Ext.obj
 0001:00090750       ??$Process@VSideExt@@@InvalidatePointerHelper@@SG_NPAX_N@Z 10091750 f i Phobos.Ext.obj
 0001:00090780       ??$Process@VSmudgeTypeExt@@@ClearHelper@@SG_NXZ 10091780 f i Phobos.Ext.obj
 0001:00090810       ??$Process@VSuperExt@@@ClearHelper@@SG_NXZ 10091810 f i Phobos.Ext.obj
 0001:000908a0       ??$Process@VTActionExt@@@ClearHelper@@SG_NXZ 100918a0 f i Phobos.Ext.obj
 0001:00090940       ??$Process@VTActionExt@@@InvalidatePointerHelper@@SG_NPAX_N@Z 10091940 f i Phobos.Ext.obj
 0001:00090970       ??$Process@VTeamExt@@@ClearHelper@@SG_NXZ 10091970 f i Phobos.Ext.obj
 0001:00090a00       ??$Process@VTeamExt@@@InvalidatePointerHelper@@SG_NPAX_N@Z 10091a00 f i Phobos.Ext.obj
 0001:00090a60       ??$Process@VTeamTypeExt@@@ClearHelper@@SG_NXZ 10091a60 f i Phobos.Ext.obj
 0001:00090ae0       ??$Process@VTechnoExt@@@ClearHelper@@SG_NXZ 10091ae0 f i Phobos.Ext.obj
 0001:00090b60       ??$Process@VTechnoExt@@@InvalidatePointerHelper@@SG_NPAX_N@Z 10091b60 f i Phobos.Ext.obj
 0001:00090bc0       ??$Process@VTechnoTypeExt@@@ClearHelper@@SG_NXZ 10091bc0 f i Phobos.Ext.obj
 0001:00090c40       ??$Process@VTechnoTypeExt@@@InvalidatePointerHelper@@SG_NPAX_N@Z 10091c40 f i Phobos.Ext.obj
 0001:00090c70       ??$Process@VTemporalExt@@@ClearHelper@@SG_NXZ 10091c70 f i Phobos.Ext.obj
